(dp0
VServer
p1
Vcmsweb.cern.ch
p2
sVPort
p3
V
p4
sVRequestName
p5
V240916_154544:joshin_crab_muRPCTnPFlatTableProducer_cfg__Muon0__Run2024E-PromptReco-v2__240916-174541
p6
sVvoRole
p7
VNULL
p8
sVvoGroup
p9
g4
sVinstance
p10
Vprod
p11
sVOriginalConfig
p12
ccopy_reg
_reconstructor
p13
(cWMCore.Configuration
Configuration
p14
c__builtin__
object
p15
Ntp16
Rp17
(dp18
V_internal_sections
p19
(lp20
VGeneral
p21
aVJobType
p22
aVData
p23
aVSite
p24
aVUser
p25
aVDebug
p26
asg21
g13
(cWMCore.Configuration
ConfigSection
p27
g15
Ntp28
Rp29
(dp30
V_internal_documentation
p31
g4
sV_internal_name
p32
g21
sV_internal_settings
p33
c__builtin__
set
p34
((lp35
VrequestName
p36
aVtransferLogs
p37
aVtransferOutputs
p38
atp39
Rp40
sV_internal_docstrings
p41
(dp42
sV_internal_children
p43
g34
((lp44
tp45
Rp46
sV_internal_parent_ref
p47
NsV_internal_skipChecks
p48
I00
sg37
I00
sg38
I01
sg36
VmuRPCTnPFlatTableProducer_cfg__Muon0__Run2024E-PromptReco-v2__240916-174541
p49
sbsg22
g13
(g27
g15
Ntp50
Rp51
(dp52
g31
g4
sg32
g22
sg33
g34
((lp53
VpluginName
p54
aVpsetName
p55
atp56
Rp57
sg41
(dp58
sg43
g34
((lp59
tp60
Rp61
sg47
Nsg48
I00
sg54
VAnalysis
p62
sg55
V/afs/cern.ch/user/j/joshin/public/Efficiency/CMSSW_14_1_0_pre7/src/RPCDPGAnalysis/NanoAODTnP/test/muRPCTnPFlatTableProducer_cfg.py
p63
sbsg23
g13
(g27
g15
Ntp64
Rp65
(dp66
g31
g4
sg32
g23
sg33
g34
((lp67
VunitsPerJob
p68
aVpublication
p69
aVallowNonValidInputDataset
p70
aVoutputDatasetTag
p71
aVsplitting
p72
aVoutLFNDirBase
p73
aVinputDataset
p74
atp75
Rp76
sg41
(dp77
sg43
g34
((lp78
tp79
Rp80
sg47
Nsg48
I00
sg69
I00
sg70
I01
sg72
VFileBased
p81
sg68
I10
sg74
V/Muon0/Run2024E-PromptReco-v2/AOD
p82
sg73
V/store/user/joshin/RPC/TnP-NanoAOD/240916-174541
p83
sg71
VmuRPCTnPFlatTableProducer_cfg__Muon0__Run2024E-PromptReco-v2
p84
sbsg24
g13
(g27
g15
Ntp85
Rp86
(dp87
g31
g4
sg32
g24
sg33
g34
((lp88
VstorageSite
p89
atp90
Rp91
sg41
(dp92
sg43
g34
((lp93
tp94
Rp95
sg47
Nsg48
I00
sg89
VT3_CH_CERNBOX
p96
sbsg25
g13
(g27
g15
Ntp97
Rp98
(dp99
g31
g4
sg32
g25
sg33
g34
((lp100
tp101
Rp102
sg41
(dp103
sg43
g34
((lp104
tp105
Rp106
sg47
Nsg48
I00
sbsg26
g13
(g27
g15
Ntp107
Rp108
(dp109
g31
g4
sg32
g26
sg33
g34
((lp110
tp111
Rp112
sg41
(dp113
sg43
g34
((lp114
tp115
Rp116
sg47
Nsg48
I00
sbsbs.