ccopy_reg
_reconstructor
p0
(cFWCore.ParameterSet.Config
Process
p1
c__builtin__
object
p2
Ntp3
Rp4
(dp5
V_Process__name
p6
VRPCTnP
p7
sV_Process__filters
p8
(dp9
sV_Process__producers
p10
(dp11
VmuRPCTnPFlatTableProducer
p12
g0
(cFWCore.ParameterSet.Modules
EDProducer
p13
g2
Ntp14
Rp15
(dp16
V_TypedParameterizable__type
p17
VMuRPCTnPFlatTableProducer
p18
sV_Parameterizable__parameterNames
p19
(lp20
Vname
p21
aVprimaryVertexCollectionTag
p22
aVtriggerResultsTag
p23
aVtriggerEventTag
p24
aVmuonCollectionTag
p25
aVrpcRecHitCollectionTag
p26
aVtagMuonMinPt
p27
aVtagMuonMaxAbsEta
p28
aVtagMuonIdType
p29
aVtagMuonMaxRelIso
p30
aVtagMuonTriggerMatchingPaths
p31
aVtagMuonTriggerMatchingMaxDeltaR
p32
aVtagMuonTriggerMatchingMaxDeltaPtRel
p33
aVprobeMuonMinPt
p34
aVprobeMuonMaxAbsEta
p35
aVprobeMuonIdType
p36
aVdimuonCheckOppositeSign
p37
aVdimuonMinDeltaR
p38
aVdimuonMinMass
p39
aVdimuonMaxMass
p40
aVmightGet
p41
asV_isFrozen
p42
I00
sV_Parameterizable__validator
p43
Nsg21
g0
(cFWCore.ParameterSet.Types
string
p44
g2
Ntp45
Rp46
(dp47
g42
I00
sV_ParameterTypeBase__isTracked
p48
I01
sV_isModified
p49
I00
sV_value
p50
VrpcTnP
p51
sbsg49
I01
sg22
g0
(cFWCore.ParameterSet.Types
InputTag
p52
g2
Ntp53
Rp54
(dp55
g42
I00
sg48
I01
sg49
I00
sV_InputTag__moduleLabel
p56
VofflinePrimaryVertices
p57
sV_InputTag__productInstance
p58
V
p59
sV_InputTag__processName
p60
g59
sbsg23
g0
(g52
g2
Ntp61
Rp62
(dp63
g42
I00
sg48
I01
sg49
I00
sg56
VTriggerResults
p64
sg58
g59
sg60
VHLT
p65
sbsg24
g0
(g52
g2
Ntp66
Rp67
(dp68
g42
I00
sg48
I01
sg49
I00
sg56
VhltTriggerSummaryAOD
p69
sg58
g59
sg60
g65
sbsg25
g0
(g52
g2
Ntp70
Rp71
(dp72
g42
I00
sg48
I01
sg49
I00
sg56
Vmuons
p73
sg58
g59
sg60
g59
sbsg26
g0
(g52
g2
Ntp74
Rp75
(dp76
g42
I00
sg48
I01
sg49
I00
sg56
VrpcRecHits
p77
sg58
g59
sg60
g59
sbsg27
g0
(cFWCore.ParameterSet.Types
double
p78
g2
Ntp79
Rp80
(dp81
g42
I00
sg48
I01
sg49
I00
sg50
I30
sbsg28
g0
(g78
g2
Ntp82
Rp83
(dp84
g42
I00
sg48
I01
sg49
I00
sg50
F2.4
sbsg29
g0
(g44
g2
Ntp85
Rp86
(dp87
g42
I00
sg48
I01
sg49
I00
sg50
Vtight
p88
sbsg30
g0
(g78
g2
Ntp89
Rp90
(dp91
g42
I00
sg48
I01
sg49
I00
sg50
F0.25
sbsg31
g0
(cFWCore.ParameterSet.Types
vstring
p92
c__builtin__
list
p93
(lp94
VHLT_IsoMu24
p95
aVHLT_IsoMu27
p96
aVHLT_IsoMu30
p97
aVHLT_Mu50
p98
aVHLT_Mu55
p99
atp100
Rp101
(dp102
g42
I00
sg48
I01
sg49
I01
sV_nPerLine
p103
I1
sbsg32
g0
(g78
g2
Ntp104
Rp105
(dp106
g42
I00
sg48
I01
sg49
I00
sg50
F0.1
sbsg33
g0
(g78
g2
Ntp107
Rp108
(dp109
g42
I00
sg48
I01
sg49
I00
sg50
F0.5
sbsg34
g0
(g78
g2
Ntp110
Rp111
(dp112
g42
I00
sg48
I01
sg49
I00
sg50
I10
sbsg35
g0
(g78
g2
Ntp113
Rp114
(dp115
g42
I00
sg48
I01
sg49
I00
sg50
F2.1
sbsg36
g0
(g44
g2
Ntp116
Rp117
(dp118
g42
I00
sg48
I01
sg49
I00
sg50
Vtracker
p119
sbsg37
g0
(cFWCore.ParameterSet.Types
bool
p120
g2
Ntp121
Rp122
(dp123
g42
I00
sg48
I01
sg49
I00
sg50
I01
sbsg38
g0
(g78
g2
Ntp124
Rp125
(dp126
g42
I00
sg48
I01
sg49
I00
sg50
F0.1
sbsg39
g0
(g78
g2
Ntp127
Rp128
(dp129
g42
I00
sg48
I01
sg49
I00
sg50
I70
sbsg40
g0
(g78
g2
Ntp130
Rp131
(dp132
g42
I00
sg48
I01
sg49
I00
sg50
I110
sbsg41
g0
(cFWCore.ParameterSet.Types
_OptionalParameter
p133
g2
Ntp134
Rp135
(dp136
g42
I00
sg48
I00
sg49
I00
sV_ProxyParameter__type
p137
g92
sV_ProxyParameter__value
p138
NsbsV_filename
p139
V/afs/cern.ch/user/j/joshin/public/RPCEffTnP/CMSSW_14_1_0/cfipython/el9_amd64_gcc12/DPGAnalysis/MuonTools/MuRPCTnPFlatTableProducer.py
p140
sV_lineNumber
p141
I4
sV_Labelable__label
p142
g12
sbssV_Process__switchproducers
p143
(dp144
sV_Process__source
p145
g0
(cFWCore.ParameterSet.Modules
Source
p146
g2
Ntp147
Rp148
(dp149
g17
VPoolSource
p150
sg19
(lp151
VfileNames
p152
aVsecondaryFileNames
p153
aVinputCommands
p154
asg42
I00
sg43
Nsg152
g0
(g92
g93
(lp155
tp156
Rp157
(dp158
g42
I00
sg48
I00
sg49
I00
sg103
I1
sbsg49
I00
sg153
g0
(g92
g93
(lp159
tp160
Rp161
(dp162
g42
I00
sg48
I00
sg49
I00
sg103
I1
sbsg154
g0
(g92
g93
(lp163
Vkeep *
p164
aVdrop TotemFEDInfos_totemT2Digis_TotemT2_RECO
p165
aVdrop TotemT2DigiedmNewDetSetVector_totemT2Digis_TotemT2_RECO
p166
aVdrop TotemVFATStatusedmDetSetVector_totemT2Digis_TotemT2_RECO
p167
aVdrop floatBXVector_gtStage2Digis_CICADAScore_RECO
p168
atp169
Rp170
(dp171
g42
I00
sg48
I00
sg49
I00
sg103
I1
sbsg139
V/cvmfs/cms.cern.ch/el9_amd64_gcc12/cms/cmssw/CMSSW_14_1_0/src/FWCore/ParameterSet/python/Modules.py
p172
sg141
I195
sbsV_Process__looper
p173
NsV_Process__subProcesses
p174
(lp175
sV_Process__schedule
p176
g0
(cFWCore.ParameterSet.SequenceTypes
Schedule
p177
g93
(lp178
g0
(cFWCore.ParameterSet.SequenceTypes
Path
p179
g2
Ntp180
Rp181
(dp182
g42
I00
sV_seq
p183
g0
(cFWCore.ParameterSet.SequenceTypes
_SequenceCollection
p184
g2
Ntp185
Rp186
(dp187
V_collection
p188
(lp189
g15
asbsg49
I00
sV_tasks
p190
g0
(cFWCore.ParameterSet.OrderedSet
OrderedSet
p191
g2
Ntp192
Rp193
(dp194
Vend
p195
(lp196
Nag196
ag196
asVmap
p197
(dp198
sbsg142
VrpcTnPPath
p199
sbag0
(cFWCore.ParameterSet.SequenceTypes
EndPath
p200
g2
Ntp201
Rp202
(dp203
g42
I00
sg183
g0
(g184
g2
Ntp204
Rp205
(dp206
g188
(lp207
g0
(cFWCore.ParameterSet.Modules
OutputModule
p208
g2
Ntp209
Rp210
(dp211
g17
VNanoAODOutputModule
p212
sg19
(lp213
VfileName
p214
aVoutputCommands
p215
aVSelectEvents
p216
asg42
I00
sg43
Nsg214
g0
(g44
g2
Ntp217
Rp218
(dp219
g42
I00
sg48
I00
sg49
I00
sg50
Voutput.root
p220
sbsg49
I00
sg215
g0
(g92
g93
(lp221
Vdrop *
p222
aVkeep nanoaodFlatTable_*Table_*_*
p223
aVkeep edmTriggerResults_*_*_*
p224
aVkeep String_*_genModel_*
p225
aVkeep nanoaodMergeableCounterTable_*Table_*_*
p226
aVkeep nanoaodUniqueString_nanoMetadata_*_*
p227
aVkeep nanoaodFlatTable_*_*_*
p228
aVdrop edmTriggerResults_*_*_*
p229
atp230
Rp231
(dp232
g42
I00
sg48
I00
sg49
I00
sg103
I1
sbsg216
g0
(cFWCore.ParameterSet.Types
PSet
p233
g2
Ntp234
Rp235
(dp236
g42
I00
sg48
I00
sg49
I00
sg19
(lp237
g216
asg43
Nsg216
g0
(g92
g93
(lp238
g199
atp239
Rp240
(dp241
g42
I00
sg48
I01
sg49
I00
sg103
I1
sbsbsg139
V/afs/cern.ch/user/j/joshin/public/RPCEffTnP/CMSSW_14_1_0/src/RPCDPGAnalysis/NanoAODTnP/test/muRPCTnPFlatTableProducer_cfg.py
p242
sg141
I52
sg142
Vout
p243
sbasbsg49
I00
sg190
g0
(g191
g2
Ntp244
Rp245
(dp246
g195
(lp247
Nag247
ag247
asg197
(dp248
sbsg142
g195
sbatp249
Rp250
(dp251
g42
I00
sg48
I01
sg49
I00
sg190
g0
(g191
g2
Ntp252
Rp253
(dp254
g195
(lp255
Nag255
ag255
asg197
(dp256
sbsbsV_Process__analyzers
p257
(dp258
sV_Process__outputmodules
p259
(dp260
g243
g210
ssV_Process__paths
p261
g0
(cFWCore.ParameterSet.DictTypes
SortedKeysDict
p262
c__builtin__
dict
p263
(dp264
g199
g181
stp265
Rp266
(dp267
Vlist
p268
(lp269
g199
asbsV_Process__endpaths
p270
g0
(g262
g263
(dp271
g195
g202
stp272
Rp273
(dp274
g268
(lp275
g195
asbsV_Process__finalpaths
p276
g0
(g262
g263
(dp277
tp278
Rp279
(dp280
g268
(lp281
sbsV_Process__sequences
p282
(dp283
sV_Process__tasks
p284
(dp285
sV_Process__conditionaltasks
p286
(dp287
sV_Process__services
p288
(dp289
VMessageLogger
p290
g0
(cFWCore.ParameterSet.Modules
Service
p291
g2
Ntp292
Rp293
(dp294
g17
g290
sg19
(lp295
VsuppressWarning
p296
aVsuppressFwkInfo
p297
aVsuppressInfo
p298
aVsuppressDebug
p299
aVdebugModules
p300
aVcout
p301
aVdefault
p302
aVcerr
p303
aVfiles
p304
asg42
I00
sg43
g0
(g133
g2
Ntp305
Rp306
(dp307
g42
I00
sg48
I00
sg49
I00
sg137
g0
(cFWCore.ParameterSet.Types
_PSetTemplate
p308
g2
Ntp309
Rp310
(dp311
V_pset
p312
g0
(g233
g2
Ntp313
Rp314
(dp315
g42
I00
sg48
I01
sg49
I00
sg19
(lp316
VreportEvery
p317
aVlimit
p318
aVtimespan
p319
asg43
Nsg317
g0
(cFWCore.ParameterSet.Types
int32
p320
g2
Ntp321
Rp322
(dp323
g42
I00
sg48
I00
sg49
I00
sg50
I1
sbsg318
g0
(g133
g2
Ntp324
Rp325
(dp326
g42
I00
sg48
I00
sg49
I00
sg137
g320
sg138
Nsbsg319
g0
(g133
g2
Ntp327
Rp328
(dp329
g42
I00
sg48
I00
sg49
I00
sg137
g320
sg138
Nsbsbsbsg138
Nsbsg296
g0
(g92
g93
(lp330
tp331
Rp332
(dp333
g42
I00
sg48
I00
sg49
I00
sg103
I1
sbsg49
I00
sg297
g0
(g92
g93
(lp334
tp335
Rp336
(dp337
g42
I00
sg48
I00
sg49
I00
sg103
I1
sbsg298
g0
(g92
g93
(lp338
tp339
Rp340
(dp341
g42
I00
sg48
I00
sg49
I00
sg103
I1
sbsg299
g0
(g92
g93
(lp342
tp343
Rp344
(dp345
g42
I00
sg48
I00
sg49
I00
sg103
I1
sbsg300
g0
(g92
g93
(lp346
tp347
Rp348
(dp349
g42
I00
sg48
I00
sg49
I00
sg103
I1
sbsg301
g0
(g233
g2
Ntp350
Rp351
(dp352
g42
I00
sg48
I00
sg49
I00
sg19
(lp353
VnoLineBreaks
p354
aVnoTimeStamps
p355
aVlineLength
p356
aVthreshold
p357
aVstatisticsThreshold
p358
aVenableStatistics
p359
aVresetStatistics
p360
aVenable
p361
asg43
g306
sg354
g0
(g133
g2
Ntp362
Rp363
(dp364
g42
I00
sg48
I00
sg49
I00
sg137
g120
sg138
Nsbsg355
g0
(g133
g2
Ntp365
Rp366
(dp367
g42
I00
sg48
I00
sg49
I00
sg137
g120
sg138
Nsbsg356
g0
(g133
g2
Ntp368
Rp369
(dp370
g42
I00
sg48
I00
sg49
I00
sg137
g320
sg138
Nsbsg357
g0
(g133
g2
Ntp371
Rp372
(dp373
g42
I00
sg48
I00
sg49
I00
sg137
g44
sg138
Nsbsg358
g0
(g133
g2
Ntp374
Rp375
(dp376
g42
I00
sg48
I00
sg49
I00
sg137
g44
sg138
Nsbsg359
g0
(g120
g2
Ntp377
Rp378
(dp379
g42
I00
sg48
I00
sg49
I00
sg50
I00
sbsg360
g0
(g120
g2
Ntp380
Rp381
(dp382
g42
I00
sg48
I00
sg49
I00
sg50
I00
sbsg361
g0
(g120
g2
Ntp383
Rp384
(dp385
g42
I00
sg48
I00
sg49
I00
sg50
I00
sbsbsg302
g0
(g233
g2
Ntp386
Rp387
(dp388
g42
I00
sg48
I00
sg49
I00
sg19
(lp389
g317
ag318
ag319
ag354
ag355
ag356
ag357
ag358
asg43
g306
sg317
g0
(g320
g2
Ntp390
Rp391
(dp392
g42
I00
sg48
I00
sg49
I00
sg50
I1
sbsg318
g0
(g133
g2
Ntp393
Rp394
(dp395
g42
I00
sg48
I00
sg49
I00
sg137
g320
sg138
Nsbsg319
g0
(g133
g2
Ntp396
Rp397
(dp398
g42
I00
sg48
I00
sg49
I00
sg137
g320
sg138
Nsbsg354
g0
(g120
g2
Ntp399
Rp400
(dp401
g42
I00
sg48
I00
sg49
I00
sg50
I00
sbsg355
g0
(g120
g2
Ntp402
Rp403
(dp404
g42
I00
sg48
I00
sg49
I00
sg50
I00
sbsg356
g0
(g320
g2
Ntp405
Rp406
(dp407
g42
I00
sg48
I00
sg49
I00
sg50
I80
sbsg357
g0
(g44
g2
Ntp408
Rp409
(dp410
g42
I00
sg48
I00
sg49
I00
sg50
VINFO
p411
sbsg358
g0
(g44
g2
Ntp412
Rp413
(dp414
g42
I00
sg48
I00
sg49
I00
sg50
g411
sbsbsg303
g0
(g233
g2
Ntp415
Rp416
(dp417
g42
I00
sg48
I00
sg49
I00
sg19
(lp418
g354
ag355
ag356
ag357
ag358
ag361
ag359
ag360
ag411
aVFwkReport
p419
ag302
aVRoot_NoDictionary
p420
aVFwkSummary
p421
asg43
g306
sg354
g0
(g133
g2
Ntp422
Rp423
(dp424
g42
I00
sg48
I00
sg49
I00
sg137
g120
sg138
Nsbsg355
g0
(g120
g2
Ntp425
Rp426
(dp427
g42
I00
sg48
I00
sg49
I00
sg50
I00
sbsg356
g0
(g133
g2
Ntp428
Rp429
(dp430
g42
I00
sg48
I00
sg49
I00
sg137
g320
sg138
Nsbsg357
g0
(g44
g2
Ntp431
Rp432
(dp433
g42
I00
sg48
I00
sg49
I00
sg50
g411
sbsg358
g0
(g44
g2
Ntp434
Rp435
(dp436
g42
I00
sg48
I00
sg49
I00
sg50
VWARNING
p437
sbsg361
g0
(g120
g2
Ntp438
Rp439
(dp440
g42
I00
sg48
I00
sg49
I00
sg50
I01
sbsg359
g0
(g120
g2
Ntp441
Rp442
(dp443
g42
I00
sg48
I00
sg49
I00
sg50
I00
sbsg360
g0
(g120
g2
Ntp444
Rp445
(dp446
g42
I00
sg48
I00
sg49
I00
sg50
I00
sbsg411
g0
(g233
g2
Ntp447
Rp448
(dp449
g42
I00
sg48
I00
sg49
I00
sg19
(lp450
g318
asg43
Nsg318
g0
(g320
g2
Ntp451
Rp452
(dp453
g42
I00
sg48
I00
sg49
I00
sg50
I0
sbsbsg419
g0
(g233
g2
Ntp454
Rp455
(dp456
g42
I00
sg48
I00
sg49
I00
sg19
(lp457
g317
ag318
asg43
Nsg317
g0
(g320
g2
Ntp458
Rp459
(dp460
g42
I00
sg48
I00
sg49
I00
sg50
I1
sbsg318
g0
(g320
g2
Ntp461
Rp462
(dp463
g42
I00
sg48
I00
sg49
I00
sg50
I10000000
sbsbsg302
g0
(g233
g2
Ntp464
Rp465
(dp466
g42
I00
sg48
I00
sg49
I00
sg19
(lp467
g318
asg43
Nsg318
g0
(g320
g2
Ntp468
Rp469
(dp470
g42
I00
sg48
I00
sg49
I00
sg50
I10000000
sbsbsg420
g0
(g233
g2
Ntp471
Rp472
(dp473
g42
I00
sg48
I00
sg49
I00
sg19
(lp474
g318
asg43
Nsg318
g0
(g320
g2
Ntp475
Rp476
(dp477
g42
I00
sg48
I00
sg49
I00
sg50
I0
sbsbsg421
g0
(g233
g2
Ntp478
Rp479
(dp480
g42
I00
sg48
I00
sg49
I00
sg19
(lp481
g317
ag318
asg43
Nsg317
g0
(g320
g2
Ntp482
Rp483
(dp484
g42
I00
sg48
I00
sg49
I00
sg50
I1
sbsg318
g0
(g320
g2
Ntp485
Rp486
(dp487
g42
I00
sg48
I00
sg49
I00
sg50
I10000000
sbsbsbsg304
g0
(g233
g2
Ntp488
Rp489
(dp490
g42
I00
sg48
I00
sg49
I00
sg19
(lp491
sg43
g0
(g133
g2
Ntp492
Rp493
(dp494
g42
I00
sg48
I00
sg49
I00
sg137
g0
(g308
g2
Ntp495
Rp496
(dp497
g312
g0
(g233
g2
Ntp498
Rp499
(dp500
g42
I00
sg48
I01
sg49
I00
sg19
(lp501
g354
ag355
ag356
ag357
ag358
ag359
ag360
aVfilename
p502
aVextension
p503
aVoutput
p504
asg43
g306
sg354
g0
(g133
g2
Ntp505
Rp506
(dp507
g42
I00
sg48
I00
sg49
I00
sg137
g120
sg138
Nsbsg355
g0
(g133
g2
Ntp508
Rp509
(dp510
g42
I00
sg48
I00
sg49
I00
sg137
g120
sg138
Nsbsg356
g0
(g133
g2
Ntp511
Rp512
(dp513
g42
I00
sg48
I00
sg49
I00
sg137
g320
sg138
Nsbsg357
g0
(g133
g2
Ntp514
Rp515
(dp516
g42
I00
sg48
I00
sg49
I00
sg137
g44
sg138
Nsbsg358
g0
(g133
g2
Ntp517
Rp518
(dp519
g42
I00
sg48
I00
sg49
I00
sg137
g44
sg138
Nsbsg359
g0
(g120
g2
Ntp520
Rp521
(dp522
g42
I00
sg48
I00
sg49
I00
sg50
I00
sbsg360
g0
(g120
g2
Ntp523
Rp524
(dp525
g42
I00
sg48
I00
sg49
I00
sg50
I00
sbsg502
g0
(g133
g2
Ntp526
Rp527
(dp528
g42
I00
sg48
I00
sg49
I00
sg137
g44
sg138
Nsbsg503
g0
(g133
g2
Ntp529
Rp530
(dp531
g42
I00
sg48
I00
sg49
I00
sg137
g44
sg138
Nsbsg504
g0
(g133
g2
Ntp532
Rp533
(dp534
g42
I00
sg48
I00
sg49
I00
sg137
g44
sg138
Nsbsbsbsg138
Nsbsbsg139
g172
sg141
I13
sV_inProcess
p535
I00
sbssV_Process__essources
p536
(dp537
Veegeom
p538
g0
(cFWCore.ParameterSet.Modules
ESSource
p539
g2
Ntp540
Rp541
(dp542
g17
VEmptyESSource
p543
sg19
(lp544
VrecordName
p545
aViovIsRunNotTime
p546
aVfirstValid
p547
asg42
I00
sg43
Nsg545
g0
(g44
g2
Ntp548
Rp549
(dp550
g42
I00
sg48
I01
sg49
I00
sg50
VEcalMappingRcd
p551
sbsg49
I00
sg546
g0
(g120
g2
Ntp552
Rp553
(dp554
g42
I00
sg48
I01
sg49
I00
sg50
I01
sbsg547
g0
(cFWCore.ParameterSet.Types
vuint32
p555
g93
(lp556
I1
atp557
Rp558
(dp559
g42
I00
sg48
I01
sg49
I00
sbsg139
V/cvmfs/cms.cern.ch/el9_amd64_gcc12/cms/cmssw/CMSSW_14_1_0/src/Geometry/EcalMapping/python/EcalMappingRecord_cfi.py
p560
sg141
I3
sg142
g538
sbsVGlobalTag
p561
g0
(g539
g2
Ntp562
Rp563
(dp564
g17
VPoolDBESSource
p565
sg19
(lp566
VDBParameters
p567
aVconnect
p568
aVglobaltag
p569
aVsnapshotTime
p570
aVtoGet
p571
aVDumpStat
p572
aVReconnectEachRun
p573
aVRefreshAlways
p574
aVRefreshEachRun
p575
aVRefreshOpenIOVs
p576
aVpfnPostfix
p577
aVpfnPrefix
p578
asg42
I00
sg43
Nsg567
g0
(g233
g2
Ntp579
Rp580
(dp581
g42
I00
sg48
I01
sg49
I00
sg19
(lp582
VauthenticationPath
p583
aVauthenticationSystem
p584
aVsecurity
p585
aVmessageLevel
p586
aVconnectionTimeout
p587
asg43
Nsg583
g0
(g44
g2
Ntp588
Rp589
(dp590
g42
I00
sg48
I00
sg49
I00
sg50
g59
sbsg584
g0
(g320
g2
Ntp591
Rp592
(dp593
g42
I00
sg48
I00
sg49
I00
sg50
I0
sbsg585
g0
(g44
g2
Ntp594
Rp595
(dp596
g42
I00
sg48
I00
sg49
I00
sg50
g59
sbsg586
g0
(g320
g2
Ntp597
Rp598
(dp599
g42
I00
sg48
I00
sg49
I00
sg50
I0
sbsg587
g0
(g320
g2
Ntp600
Rp601
(dp602
g42
I00
sg48
I00
sg49
I00
sg50
I0
sbsbsg49
I01
sg568
g0
(g44
g2
Ntp603
Rp604
(dp605
g42
I00
sg48
I01
sg49
I00
sg50
Vfrontier://FrontierProd/CMS_CONDITIONS
p606
sbsg569
g0
(g44
g2
Ntp607
Rp608
(dp609
g42
I00
sg48
I01
sg49
I01
sg50
V140X_dataRun3_v9
p610
sbsg570
g0
(g44
g2
Ntp611
Rp612
(dp613
g42
I00
sg48
I01
sg49
I00
sg50
g59
sbsg571
g0
(cFWCore.ParameterSet.Types
VPSet
p614
g93
(lp615
tp616
Rp617
(dp618
g42
I00
sg48
I01
sg49
I00
sg103
I1
sbsg572
g0
(g120
g2
Ntp619
Rp620
(dp621
g42
I00
sg48
I00
sg49
I00
sg50
I00
sbsg573
g0
(g120
g2
Ntp622
Rp623
(dp624
g42
I00
sg48
I00
sg49
I00
sg50
I00
sbsg574
g0
(g120
g2
Ntp625
Rp626
(dp627
g42
I00
sg48
I00
sg49
I00
sg50
I00
sbsg575
g0
(g120
g2
Ntp628
Rp629
(dp630
g42
I00
sg48
I00
sg49
I00
sg50
I00
sbsg576
g0
(g120
g2
Ntp631
Rp632
(dp633
g42
I00
sg48
I00
sg49
I00
sg50
I00
sbsg577
g0
(g44
g2
Ntp634
Rp635
(dp636
g42
I00
sg48
I00
sg49
I00
sg50
g59
sbsg578
g0
(g44
g2
Ntp637
Rp638
(dp639
g42
I00
sg48
I00
sg49
I00
sg50
g59
sbsg139
V/cvmfs/cms.cern.ch/el9_amd64_gcc12/cms/cmssw/CMSSW_14_1_0/src/CondCore/ESSources/python/CondDBESSource_cfi.py
p640
sg141
I8
sg142
g561
sbsVHcalTimeSlewEP
p641
g0
(g539
g2
Ntp642
Rp643
(dp644
g17
g641
sg19
(lp645
VappendToDataLabel
p646
aVtimeSlewParametersM2
p647
aVtimeSlewParametersM3
p648
asg42
I00
sg43
Nsg646
g0
(g44
g2
Ntp649
Rp650
(dp651
g42
I00
sg48
I01
sg49
I00
sg50
VHBHE
p652
sbsg49
I00
sg647
g0
(g614
g93
(lp653
g0
(g233
g2
Ntp654
Rp655
(dp656
g42
I00
sg48
I01
sg49
I00
sg19
(lp657
Vtzero
p658
aVslope
p659
aVtmax
p660
asg43
Nsg658
g0
(g78
g2
Ntp661
Rp662
(dp663
g42
I00
sg48
I01
sg49
I00
sg50
F23.960177
sbsg659
g0
(g78
g2
Ntp664
Rp665
(dp666
g42
I00
sg48
I01
sg49
I00
sg50
F-3.178648
sbsg660
g0
(g78
g2
Ntp667
Rp668
(dp669
g42
I00
sg48
I01
sg49
I00
sg50
F16.0
sbsbag0
(g233
g2
Ntp670
Rp671
(dp672
g42
I00
sg48
I01
sg49
I00
sg19
(lp673
g658
ag659
ag660
asg43
Nsg658
g0
(g78
g2
Ntp674
Rp675
(dp676
g42
I00
sg48
I01
sg49
I00
sg50
F11.977461
sbsg659
g0
(g78
g2
Ntp677
Rp678
(dp679
g42
I00
sg48
I01
sg49
I00
sg50
F-1.5610227
sbsg660
g0
(g78
g2
Ntp680
Rp681
(dp682
g42
I00
sg48
I01
sg49
I00
sg50
F10.0
sbsbag0
(g233
g2
Ntp683
Rp684
(dp685
g42
I00
sg48
I01
sg49
I00
sg19
(lp686
g658
ag659
ag660
asg43
Nsg658
g0
(g78
g2
Ntp687
Rp688
(dp689
g42
I00
sg48
I01
sg49
I00
sg50
F9.109694
sbsg659
g0
(g78
g2
Ntp690
Rp691
(dp692
g42
I00
sg48
I01
sg49
I00
sg50
F-1.075824
sbsg660
g0
(g78
g2
Ntp693
Rp694
(dp695
g42
I00
sg48
I01
sg49
I00
sg50
F6.25
sbsbatp696
Rp697
(dp698
g42
I00
sg48
I01
sg49
I00
sg103
I1
sbsg648
g0
(g614
g93
(lp699
g0
(g233
g2
Ntp700
Rp701
(dp702
g42
I00
sg48
I01
sg49
I00
sg19
(lp703
Vcap
p704
aVtspar0
p705
aVtspar1
p706
aVtspar2
p707
aVtspar0_siPM
p708
aVtspar1_siPM
p709
aVtspar2_siPM
p710
asg43
Nsg704
g0
(g78
g2
Ntp711
Rp712
(dp713
g42
I00
sg48
I01
sg49
I00
sg50
F6.0
sbsg705
g0
(g78
g2
Ntp714
Rp715
(dp716
g42
I00
sg48
I01
sg49
I00
sg50
F12.2999
sbsg706
g0
(g78
g2
Ntp717
Rp718
(dp719
g42
I00
sg48
I01
sg49
I00
sg50
F-2.19142
sbsg707
g0
(g78
g2
Ntp720
Rp721
(dp722
g42
I00
sg48
I01
sg49
I00
sg50
F0.0
sbsg708
g0
(g78
g2
Ntp723
Rp724
(dp725
g42
I00
sg48
I01
sg49
I00
sg50
F0.0
sbsg709
g0
(g78
g2
Ntp726
Rp727
(dp728
g42
I00
sg48
I01
sg49
I00
sg50
F0.0
sbsg710
g0
(g78
g2
Ntp729
Rp730
(dp731
g42
I00
sg48
I01
sg49
I00
sg50
F0.0
sbsbag0
(g233
g2
Ntp732
Rp733
(dp734
g42
I00
sg48
I01
sg49
I00
sg19
(lp735
g704
ag705
ag706
ag707
ag708
ag709
ag710
asg43
Nsg704
g0
(g78
g2
Ntp736
Rp737
(dp738
g42
I00
sg48
I01
sg49
I00
sg50
F6.0
sbsg705
g0
(g78
g2
Ntp739
Rp740
(dp741
g42
I00
sg48
I01
sg49
I00
sg50
F15.5
sbsg706
g0
(g78
g2
Ntp742
Rp743
(dp744
g42
I00
sg48
I01
sg49
I00
sg50
F-3.2
sbsg707
g0
(g78
g2
Ntp745
Rp746
(dp747
g42
I00
sg48
I01
sg49
I00
sg50
F32.0
sbsg708
g0
(g78
g2
Ntp748
Rp749
(dp750
g42
I00
sg48
I01
sg49
I00
sg50
F0.0
sbsg709
g0
(g78
g2
Ntp751
Rp752
(dp753
g42
I00
sg48
I01
sg49
I00
sg50
F0.0
sbsg710
g0
(g78
g2
Ntp754
Rp755
(dp756
g42
I00
sg48
I01
sg49
I00
sg50
F0.0
sbsbag0
(g233
g2
Ntp757
Rp758
(dp759
g42
I00
sg48
I01
sg49
I00
sg19
(lp760
g704
ag705
ag706
ag707
ag708
ag709
ag710
asg43
Nsg704
g0
(g78
g2
Ntp761
Rp762
(dp763
g42
I00
sg48
I01
sg49
I00
sg50
F6.0
sbsg705
g0
(g78
g2
Ntp764
Rp765
(dp766
g42
I00
sg48
I01
sg49
I00
sg50
F12.2999
sbsg706
g0
(g78
g2
Ntp767
Rp768
(dp769
g42
I00
sg48
I01
sg49
I00
sg50
F-2.19142
sbsg707
g0
(g78
g2
Ntp770
Rp771
(dp772
g42
I00
sg48
I01
sg49
I00
sg50
F0.0
sbsg708
g0
(g78
g2
Ntp773
Rp774
(dp775
g42
I00
sg48
I01
sg49
I00
sg50
F0.0
sbsg709
g0
(g78
g2
Ntp776
Rp777
(dp778
g42
I00
sg48
I01
sg49
I00
sg50
F0.0
sbsg710
g0
(g78
g2
Ntp779
Rp780
(dp781
g42
I00
sg48
I01
sg49
I00
sg50
F0.0
sbsbag0
(g233
g2
Ntp782
Rp783
(dp784
g42
I00
sg48
I01
sg49
I00
sg19
(lp785
g704
ag705
ag706
ag707
ag708
ag709
ag710
asg43
Nsg704
g0
(g78
g2
Ntp786
Rp787
(dp788
g42
I00
sg48
I01
sg49
I00
sg50
F6.0
sbsg705
g0
(g78
g2
Ntp789
Rp790
(dp791
g42
I00
sg48
I01
sg49
I00
sg50
F12.2999
sbsg706
g0
(g78
g2
Ntp792
Rp793
(dp794
g42
I00
sg48
I01
sg49
I00
sg50
F-2.19142
sbsg707
g0
(g78
g2
Ntp795
Rp796
(dp797
g42
I00
sg48
I01
sg49
I00
sg50
F0.0
sbsg708
g0
(g78
g2
Ntp798
Rp799
(dp800
g42
I00
sg48
I01
sg49
I00
sg50
F0.0
sbsg709
g0
(g78
g2
Ntp801
Rp802
(dp803
g42
I00
sg48
I01
sg49
I00
sg50
F0.0
sbsg710
g0
(g78
g2
Ntp804
Rp805
(dp806
g42
I00
sg48
I01
sg49
I00
sg50
F0.0
sbsbatp807
Rp808
(dp809
g42
I00
sg48
I01
sg49
I00
sg103
I1
sbsg139
V/cvmfs/cms.cern.ch/el9_amd64_gcc12/cms/cmssw/CMSSW_14_1_0/src/CalibCalorimetry/HcalPlugins/python/HcalTimeSlew_cff.py
p810
sg141
I3
sg142
g641
sbsVes_hardcode
p811
g0
(g539
g2
Ntp812
Rp813
(dp814
g17
VHcalHardcodeCalibrations
p815
sg19
(lp816
g571
aViLumi
p817
aVHBRecalibration
p818
aVHBreCalibCutoff
p819
aVHBmeanenergies
p820
aVHERecalibration
p821
aVHEreCalibCutoff
p822
aVHEmeanenergies
p823
aVHFRecalibration
p824
aVHFRecalParameterBlock
p825
aVGainWidthsForTrigPrims
p826
aVuseHBUpgrade
p827
aVuseHEUpgrade
p828
aVuseHFUpgrade
p829
aVuseHOUpgrade
p830
aVtestHFQIE10
p831
aVtestHEPlan1
p832
aVkillHE
p833
aVuseLayer0Weight
p834
aVuseIeta18depth1
p835
aVhb
p836
aVhe
p837
aVhf
p838
aVho
p839
aVhbUpgrade
p840
aVheUpgrade
p841
aVhfUpgrade
p842
aVSiPMCharacteristics
p843
asg42
I00
sg43
Nsg571
g0
(g92
g93
(lp844
VGainWidths
p845
atp846
Rp847
(dp848
g42
I00
sg48
I00
sg49
I00
sg103
I1
sbsg49
I01
sg817
g0
(g78
g2
Ntp849
Rp850
(dp851
g42
I00
sg48
I01
sg49
I00
sg50
F-1.0
sbsg818
g0
(g120
g2
Ntp852
Rp853
(dp854
g42
I00
sg48
I01
sg49
I00
sg50
I00
sbsg819
g0
(g78
g2
Ntp855
Rp856
(dp857
g42
I00
sg48
I01
sg49
I00
sg50
F100.0
sbsg820
g0
(cFWCore.ParameterSet.Types
FileInPath
p858
g2
Ntp859
Rp860
(dp861
g42
I00
sg48
I01
sg49
I00
sg50
VCalibCalorimetry/HcalPlugins/data/meanenergiesHB.txt
p862
sbsg821
g0
(g120
g2
Ntp863
Rp864
(dp865
g42
I00
sg48
I01
sg49
I00
sg50
I00
sbsg822
g0
(g78
g2
Ntp866
Rp867
(dp868
g42
I00
sg48
I01
sg49
I00
sg50
F100.0
sbsg823
g0
(g858
g2
Ntp869
Rp870
(dp871
g42
I00
sg48
I01
sg49
I00
sg50
VCalibCalorimetry/HcalPlugins/data/meanenergiesHE.txt
p872
sbsg824
g0
(g120
g2
Ntp873
Rp874
(dp875
g42
I00
sg48
I01
sg49
I00
sg50
I00
sbsg825
g0
(g233
g2
Ntp876
Rp877
(dp878
g42
I00
sg48
I01
sg49
I00
sg19
(lp879
VHFdepthOneParameterA
p880
aVHFdepthOneParameterB
p881
aVHFdepthTwoParameterA
p882
aVHFdepthTwoParameterB
p883
asg43
Nsg880
g0
(cFWCore.ParameterSet.Types
vdouble
p884
g93
(lp885
F0.004123
aF0.00602
aF0.008201
aF0.010489
aF0.013379
aF0.016997
aF0.021464
aF0.027371
aF0.034195
aF0.044807
aF0.058939
aF0.125497
atp886
Rp887
(dp888
g42
I00
sg48
I01
sg49
I00
sbsg881
g0
(g884
g93
(lp889
F-4e-06
aF-2e-06
aF0.0
aF4e-06
aF1.5e-05
aF2.6e-05
aF6.3e-05
aF8.4e-05
aF0.00016
aF0.000107
aF0.000425
aF0.000209
atp890
Rp891
(dp892
g42
I00
sg48
I01
sg49
I00
sbsg882
g0
(g884
g93
(lp893
F0.002861
aF0.004168
aF0.0064
aF0.008388
aF0.011601
aF0.014425
aF0.018633
aF0.023232
aF0.028274
aF0.035447
aF0.051579
aF0.086593
atp894
Rp895
(dp896
g42
I00
sg48
I01
sg49
I00
sbsg883
g0
(g884
g93
(lp897
F-2e-06
aF-0.0
aF-7e-06
aF-6e-06
aF-2e-06
aF1e-06
aF1.9e-05
aF3.1e-05
aF6.7e-05
aF1.2e-05
aF0.000157
aF-3e-06
atp898
Rp899
(dp900
g42
I00
sg48
I01
sg49
I00
sbsg142
g825
sbsg826
g0
(g120
g2
Ntp901
Rp902
(dp903
g42
I00
sg48
I01
sg49
I00
sg50
I00
sbsg827
g0
(g120
g2
Ntp904
Rp905
(dp906
g42
I00
sg48
I01
sg49
I00
sg50
I01
sbsg828
g0
(g120
g2
Ntp907
Rp908
(dp909
g42
I00
sg48
I01
sg49
I00
sg50
I01
sbsg829
g0
(g120
g2
Ntp910
Rp911
(dp912
g42
I00
sg48
I01
sg49
I00
sg50
I01
sbsg830
g0
(g120
g2
Ntp913
Rp914
(dp915
g42
I00
sg48
I01
sg49
I00
sg50
I01
sbsg831
g0
(g120
g2
Ntp916
Rp917
(dp918
g42
I00
sg48
I01
sg49
I00
sg50
I00
sbsg832
g0
(g120
g2
Ntp919
Rp920
(dp921
g42
I00
sg48
I01
sg49
I00
sg50
I00
sbsg833
g0
(g120
g2
Ntp922
Rp923
(dp924
g42
I00
sg48
I01
sg49
I00
sg50
I00
sbsg834
g0
(g120
g2
Ntp925
Rp926
(dp927
g42
I00
sg48
I01
sg49
I00
sg50
I01
sbsg835
g0
(g120
g2
Ntp928
Rp929
(dp930
g42
I00
sg48
I01
sg49
I00
sg50
I00
sbsg836
g0
(g233
g2
Ntp931
Rp932
(dp933
g42
I00
sg48
I01
sg49
I00
sg19
(lp934
Vpedestal
p935
aVpedestalWidth
p936
aVgain
p937
aVgainWidth
p938
aVzsThreshold
p939
aVqieType
p940
aVqieOffset
p941
aVqieSlope
p942
aVmcShape
p943
aVrecoShape
p944
aVphotoelectronsToAnalog
p945
aVdarkCurrent
p946
aVnoiseCorrelation
p947
aVnoiseThreshold
p948
aVseedThreshold
p949
aVdoRadiationDamage
p950
asg43
Nsg935
g0
(g78
g2
Ntp951
Rp952
(dp953
g42
I00
sg48
I01
sg49
I00
sg50
F3.285
sbsg936
g0
(g78
g2
Ntp954
Rp955
(dp956
g42
I00
sg48
I01
sg49
I00
sg50
F0.809
sbsg937
g0
(g884
g93
(lp957
F0.19
atp958
Rp959
(dp960
g42
I00
sg48
I01
sg49
I00
sbsg938
g0
(g884
g93
(lp961
F0.0
atp962
Rp963
(dp964
g42
I00
sg48
I01
sg49
I00
sbsg939
g0
(g320
g2
Ntp965
Rp966
(dp967
g42
I00
sg48
I01
sg49
I00
sg50
I8
sbsg940
g0
(g320
g2
Ntp968
Rp969
(dp970
g42
I00
sg48
I01
sg49
I00
sg50
I0
sbsg941
g0
(g884
g93
(lp971
F-0.49
aF1.8
aF7.2
aF37.9
atp972
Rp973
(dp974
g42
I00
sg48
I01
sg49
I00
sbsg942
g0
(g884
g93
(lp975
F0.912
aF0.917
aF0.922
aF0.923
atp976
Rp977
(dp978
g42
I00
sg48
I01
sg49
I00
sbsg943
g0
(g320
g2
Ntp979
Rp980
(dp981
g42
I00
sg48
I01
sg49
I00
sg50
I125
sbsg944
g0
(g320
g2
Ntp982
Rp983
(dp984
g42
I00
sg48
I01
sg49
I00
sg50
I105
sbsg945
g0
(g78
g2
Ntp985
Rp986
(dp987
g42
I00
sg48
I01
sg49
I00
sg50
F0.3305
sbsg946
g0
(g884
g93
(lp988
F0.0
atp989
Rp990
(dp991
g42
I00
sg48
I01
sg49
I00
sbsg947
g0
(g884
g93
(lp992
F0.0
atp993
Rp994
(dp995
g42
I00
sg48
I01
sg49
I00
sbsg948
g0
(g78
g2
Ntp996
Rp997
(dp998
g42
I00
sg48
I01
sg49
I00
sg50
F0.0
sbsg949
g0
(g78
g2
Ntp999
Rp1000
(dp1001
g42
I00
sg48
I01
sg49
I00
sg50
F0.1
sbsg950
g0
(g120
g2
Ntp1002
Rp1003
(dp1004
g42
I00
sg48
I01
sg49
I00
sg50
I00
sbsbsg837
g0
(g233
g2
Ntp1005
Rp1006
(dp1007
g42
I00
sg48
I01
sg49
I00
sg19
(lp1008
g935
ag936
ag937
ag938
ag939
ag940
ag941
ag942
ag943
ag944
ag945
ag946
ag947
ag948
ag949
ag950
asg43
Nsg935
g0
(g78
g2
Ntp1009
Rp1010
(dp1011
g42
I00
sg48
I01
sg49
I00
sg50
F3.163
sbsg936
g0
(g78
g2
Ntp1012
Rp1013
(dp1014
g42
I00
sg48
I01
sg49
I00
sg50
F0.9698
sbsg937
g0
(g884
g93
(lp1015
F0.23
atp1016
Rp1017
(dp1018
g42
I00
sg48
I01
sg49
I00
sbsg938
g0
(g884
g93
(lp1019
I0
atp1020
Rp1021
(dp1022
g42
I00
sg48
I01
sg49
I00
sbsg939
g0
(g320
g2
Ntp1023
Rp1024
(dp1025
g42
I00
sg48
I01
sg49
I00
sg50
I9
sbsg940
g0
(g320
g2
Ntp1026
Rp1027
(dp1028
g42
I00
sg48
I01
sg49
I00
sg50
I0
sbsg941
g0
(g884
g93
(lp1029
F-0.38
aF2.0
aF7.6
aF39.6
atp1030
Rp1031
(dp1032
g42
I00
sg48
I01
sg49
I00
sbsg942
g0
(g884
g93
(lp1033
F0.912
aF0.916
aF0.92
aF0.922
atp1034
Rp1035
(dp1036
g42
I00
sg48
I01
sg49
I00
sbsg943
g0
(g320
g2
Ntp1037
Rp1038
(dp1039
g42
I00
sg48
I01
sg49
I00
sg50
I125
sbsg944
g0
(g320
g2
Ntp1040
Rp1041
(dp1042
g42
I00
sg48
I01
sg49
I00
sg50
I105
sbsg945
g0
(g78
g2
Ntp1043
Rp1044
(dp1045
g42
I00
sg48
I01
sg49
I00
sg50
F0.3305
sbsg946
g0
(g884
g93
(lp1046
F0.0
atp1047
Rp1048
(dp1049
g42
I00
sg48
I01
sg49
I00
sbsg947
g0
(g884
g93
(lp1050
F0.0
atp1051
Rp1052
(dp1053
g42
I00
sg48
I01
sg49
I00
sbsg948
g0
(g78
g2
Ntp1054
Rp1055
(dp1056
g42
I00
sg48
I01
sg49
I00
sg50
F0.0
sbsg949
g0
(g78
g2
Ntp1057
Rp1058
(dp1059
g42
I00
sg48
I01
sg49
I00
sg50
F0.1
sbsg950
g0
(g120
g2
Ntp1060
Rp1061
(dp1062
g42
I00
sg48
I01
sg49
I00
sg50
I00
sbsbsg838
g0
(g233
g2
Ntp1063
Rp1064
(dp1065
g42
I00
sg48
I01
sg49
I00
sg19
(lp1066
g935
ag936
ag937
ag938
ag939
ag940
ag941
ag942
ag943
ag944
ag945
ag946
ag947
ag948
ag949
ag950
asg43
Nsg935
g0
(g78
g2
Ntp1067
Rp1068
(dp1069
g42
I00
sg48
I01
sg49
I00
sg50
F9.354
sbsg936
g0
(g78
g2
Ntp1070
Rp1071
(dp1072
g42
I00
sg48
I01
sg49
I00
sg50
F2.516
sbsg937
g0
(g884
g93
(lp1073
F0.14
aF0.135
atp1074
Rp1075
(dp1076
g42
I00
sg48
I01
sg49
I00
sbsg938
g0
(g884
g93
(lp1077
F0.0
aF0.0
atp1078
Rp1079
(dp1080
g42
I00
sg48
I01
sg49
I00
sbsg939
g0
(g320
g2
Ntp1081
Rp1082
(dp1083
g42
I00
sg48
I01
sg49
I00
sg50
I-9999
sbsg940
g0
(g320
g2
Ntp1084
Rp1085
(dp1086
g42
I00
sg48
I01
sg49
I00
sg50
I0
sbsg941
g0
(g884
g93
(lp1087
F-0.87
aF1.4
aF7.8
aF-29.6
atp1088
Rp1089
(dp1090
g42
I00
sg48
I01
sg49
I00
sbsg942
g0
(g884
g93
(lp1091
F0.359
aF0.358
aF0.36
aF0.367
atp1092
Rp1093
(dp1094
g42
I00
sg48
I01
sg49
I00
sbsg943
g0
(g320
g2
Ntp1095
Rp1096
(dp1097
g42
I00
sg48
I01
sg49
I00
sg50
I301
sbsg944
g0
(g320
g2
Ntp1098
Rp1099
(dp1100
g42
I00
sg48
I01
sg49
I00
sg50
I301
sbsg945
g0
(g78
g2
Ntp1101
Rp1102
(dp1103
g42
I00
sg48
I01
sg49
I00
sg50
F0.0
sbsg946
g0
(g884
g93
(lp1104
F0.0
atp1105
Rp1106
(dp1107
g42
I00
sg48
I01
sg49
I00
sbsg947
g0
(g884
g93
(lp1108
F0.0
atp1109
Rp1110
(dp1111
g42
I00
sg48
I01
sg49
I00
sbsg948
g0
(g78
g2
Ntp1112
Rp1113
(dp1114
g42
I00
sg48
I01
sg49
I00
sg50
F0.0
sbsg949
g0
(g78
g2
Ntp1115
Rp1116
(dp1117
g42
I00
sg48
I01
sg49
I00
sg50
F0.1
sbsg950
g0
(g120
g2
Ntp1118
Rp1119
(dp1120
g42
I00
sg48
I01
sg49
I00
sg50
I00
sbsbsg839
g0
(g233
g2
Ntp1121
Rp1122
(dp1123
g42
I00
sg48
I01
sg49
I00
sg19
(lp1124
g935
ag936
ag937
ag938
ag939
ag940
ag941
ag942
ag943
ag944
ag945
ag946
ag947
ag948
ag949
ag950
asg43
Nsg935
g0
(g78
g2
Ntp1125
Rp1126
(dp1127
g42
I00
sg48
I01
sg49
I00
sg50
F12.06
sbsg936
g0
(g78
g2
Ntp1128
Rp1129
(dp1130
g42
I00
sg48
I01
sg49
I00
sg50
F0.6285
sbsg937
g0
(g884
g93
(lp1131
F0.006
aF0.0087
atp1132
Rp1133
(dp1134
g42
I00
sg48
I01
sg49
I00
sbsg938
g0
(g884
g93
(lp1135
F0.0
aF0.0
atp1136
Rp1137
(dp1138
g42
I00
sg48
I01
sg49
I00
sbsg939
g0
(g320
g2
Ntp1139
Rp1140
(dp1141
g42
I00
sg48
I01
sg49
I00
sg50
I24
sbsg940
g0
(g320
g2
Ntp1142
Rp1143
(dp1144
g42
I00
sg48
I01
sg49
I00
sg50
I0
sbsg941
g0
(g884
g93
(lp1145
F-0.44
aF1.4
aF7.1
aF38.5
atp1146
Rp1147
(dp1148
g42
I00
sg48
I01
sg49
I00
sbsg942
g0
(g884
g93
(lp1149
F0.907
aF0.915
aF0.92
aF0.921
atp1150
Rp1151
(dp1152
g42
I00
sg48
I01
sg49
I00
sbsg943
g0
(g320
g2
Ntp1153
Rp1154
(dp1155
g42
I00
sg48
I01
sg49
I00
sg50
I201
sbsg944
g0
(g320
g2
Ntp1156
Rp1157
(dp1158
g42
I00
sg48
I01
sg49
I00
sg50
I201
sbsg945
g0
(g78
g2
Ntp1159
Rp1160
(dp1161
g42
I00
sg48
I01
sg49
I00
sg50
F4.0
sbsg946
g0
(g884
g93
(lp1162
F0.0
atp1163
Rp1164
(dp1165
g42
I00
sg48
I01
sg49
I00
sbsg947
g0
(g884
g93
(lp1166
F0.0
atp1167
Rp1168
(dp1169
g42
I00
sg48
I01
sg49
I00
sbsg948
g0
(g78
g2
Ntp1170
Rp1171
(dp1172
g42
I00
sg48
I01
sg49
I00
sg50
F0.0
sbsg949
g0
(g78
g2
Ntp1173
Rp1174
(dp1175
g42
I00
sg48
I01
sg49
I00
sg50
F0.1
sbsg950
g0
(g120
g2
Ntp1176
Rp1177
(dp1178
g42
I00
sg48
I01
sg49
I00
sg50
I00
sbsbsg840
g0
(g233
g2
Ntp1179
Rp1180
(dp1181
g42
I00
sg48
I01
sg49
I00
sg19
(lp1182
g935
ag936
ag937
ag938
ag939
ag940
ag941
ag942
ag943
ag944
ag945
ag946
ag947
ag948
ag949
ag950
aVradiationDamage
p1183
asg43
Nsg935
g0
(g78
g2
Ntp1184
Rp1185
(dp1186
g42
I00
sg48
I01
sg49
I00
sg50
F17.3
sbsg936
g0
(g78
g2
Ntp1187
Rp1188
(dp1189
g42
I00
sg48
I01
sg49
I00
sg50
F1.5
sbsg937
g0
(g884
g93
(lp1190
F0.0006252
atp1191
Rp1192
(dp1193
g42
I00
sg48
I01
sg49
I00
sbsg938
g0
(g884
g93
(lp1194
I0
atp1195
Rp1196
(dp1197
g42
I00
sg48
I01
sg49
I00
sbsg939
g0
(g320
g2
Ntp1198
Rp1199
(dp1200
g42
I00
sg48
I01
sg49
I00
sg50
I16
sbsg940
g0
(g320
g2
Ntp1201
Rp1202
(dp1203
g42
I00
sg48
I01
sg49
I00
sg50
I2
sbsg941
g0
(g884
g93
(lp1204
F0.0
aF0.0
aF0.0
aF0.0
atp1205
Rp1206
(dp1207
g42
I00
sg48
I01
sg49
I00
sbsg942
g0
(g884
g93
(lp1208
F0.05376
aF0.05376
aF0.05376
aF0.05376
atp1209
Rp1210
(dp1211
g42
I00
sg48
I01
sg49
I00
sbsg943
g0
(g320
g2
Ntp1212
Rp1213
(dp1214
g42
I00
sg48
I01
sg49
I00
sg50
I206
sbsg944
g0
(g320
g2
Ntp1215
Rp1216
(dp1217
g42
I00
sg48
I01
sg49
I00
sg50
I208
sbsg945
g0
(g78
g2
Ntp1218
Rp1219
(dp1220
g42
I00
sg48
I01
sg49
I00
sg50
F40.0
sbsg946
g0
(g884
g93
(lp1221
F0.01
aF0.015
atp1222
Rp1223
(dp1224
g42
I00
sg48
I01
sg49
I00
sbsg947
g0
(g884
g93
(lp1225
F0.26
aF0.254
atp1226
Rp1227
(dp1228
g42
I00
sg48
I01
sg49
I00
sbsg948
g0
(g78
g2
Ntp1229
Rp1230
(dp1231
g42
I00
sg48
I01
sg49
I00
sg50
F0.0
sbsg949
g0
(g78
g2
Ntp1232
Rp1233
(dp1234
g42
I00
sg48
I01
sg49
I00
sg50
F0.1
sbsg950
g0
(g120
g2
Ntp1235
Rp1236
(dp1237
g42
I00
sg48
I01
sg49
I00
sg50
I01
sbsg1183
g0
(g233
g2
Ntp1238
Rp1239
(dp1240
g42
I00
sg48
I01
sg49
I00
sg19
(lp1241
VtemperatureBase
p1242
aVtemperatureNew
p1243
aVintlumiOffset
p1244
aVdepVsTemp
p1245
aVintlumiToNeutrons
p1246
aVdepVsNeutrons
p1247
asg43
Nsg1242
g0
(g78
g2
Ntp1248
Rp1249
(dp1250
g42
I00
sg48
I01
sg49
I00
sg50
I20
sbsg1243
g0
(g78
g2
Ntp1251
Rp1252
(dp1253
g42
I00
sg48
I01
sg49
I00
sg50
I-5
sbsg1244
g0
(g78
g2
Ntp1254
Rp1255
(dp1256
g42
I00
sg48
I01
sg49
I00
sg50
I150
sbsg1245
g0
(g78
g2
Ntp1257
Rp1258
(dp1259
g42
I00
sg48
I01
sg49
I00
sg50
F0.0631
sbsg1246
g0
(g78
g2
Ntp1260
Rp1261
(dp1262
g42
I00
sg48
I01
sg49
I00
sg50
F367000000.0
sbsg1247
g0
(g884
g93
(lp1263
F5.543e-10
aF8.012e-10
atp1264
Rp1265
(dp1266
g42
I00
sg48
I01
sg49
I00
sbsbsbsg841
g0
(g233
g2
Ntp1267
Rp1268
(dp1269
g42
I00
sg48
I01
sg49
I00
sg19
(lp1270
g935
ag936
ag937
ag938
ag939
ag940
ag941
ag942
ag943
ag944
ag945
ag946
ag947
ag948
ag949
ag950
ag1183
asg43
Nsg935
g0
(g78
g2
Ntp1271
Rp1272
(dp1273
g42
I00
sg48
I01
sg49
I00
sg50
F17.3
sbsg936
g0
(g78
g2
Ntp1274
Rp1275
(dp1276
g42
I00
sg48
I01
sg49
I00
sg50
F1.5
sbsg937
g0
(g884
g93
(lp1277
F0.0006252
atp1278
Rp1279
(dp1280
g42
I00
sg48
I01
sg49
I00
sbsg938
g0
(g884
g93
(lp1281
I0
atp1282
Rp1283
(dp1284
g42
I00
sg48
I01
sg49
I00
sbsg939
g0
(g320
g2
Ntp1285
Rp1286
(dp1287
g42
I00
sg48
I01
sg49
I00
sg50
I16
sbsg940
g0
(g320
g2
Ntp1288
Rp1289
(dp1290
g42
I00
sg48
I01
sg49
I00
sg50
I2
sbsg941
g0
(g884
g93
(lp1291
F0.0
aF0.0
aF0.0
aF0.0
atp1292
Rp1293
(dp1294
g42
I00
sg48
I01
sg49
I00
sbsg942
g0
(g884
g93
(lp1295
F0.05376
aF0.05376
aF0.05376
aF0.05376
atp1296
Rp1297
(dp1298
g42
I00
sg48
I01
sg49
I00
sbsg943
g0
(g320
g2
Ntp1299
Rp1300
(dp1301
g42
I00
sg48
I01
sg49
I00
sg50
I206
sbsg944
g0
(g320
g2
Ntp1302
Rp1303
(dp1304
g42
I00
sg48
I01
sg49
I00
sg50
I208
sbsg945
g0
(g78
g2
Ntp1305
Rp1306
(dp1307
g42
I00
sg48
I01
sg49
I00
sg50
F40.0
sbsg946
g0
(g884
g93
(lp1308
F0.01
aF0.015
atp1309
Rp1310
(dp1311
g42
I00
sg48
I01
sg49
I00
sbsg947
g0
(g884
g93
(lp1312
F0.26
aF0.254
atp1313
Rp1314
(dp1315
g42
I00
sg48
I01
sg49
I00
sbsg948
g0
(g78
g2
Ntp1316
Rp1317
(dp1318
g42
I00
sg48
I01
sg49
I00
sg50
F0.0
sbsg949
g0
(g78
g2
Ntp1319
Rp1320
(dp1321
g42
I00
sg48
I01
sg49
I00
sg50
F0.1
sbsg950
g0
(g120
g2
Ntp1322
Rp1323
(dp1324
g42
I00
sg48
I01
sg49
I00
sg50
I01
sbsg1183
g0
(g233
g2
Ntp1325
Rp1326
(dp1327
g42
I00
sg48
I01
sg49
I00
sg19
(lp1328
g1242
ag1243
ag1244
ag1245
ag1246
ag1247
asg43
Nsg1242
g0
(g78
g2
Ntp1329
Rp1330
(dp1331
g42
I00
sg48
I01
sg49
I00
sg50
I20
sbsg1243
g0
(g78
g2
Ntp1332
Rp1333
(dp1334
g42
I00
sg48
I01
sg49
I00
sg50
I5
sbsg1244
g0
(g78
g2
Ntp1335
Rp1336
(dp1337
g42
I00
sg48
I01
sg49
I00
sg50
I75
sbsg1245
g0
(g78
g2
Ntp1338
Rp1339
(dp1340
g42
I00
sg48
I01
sg49
I00
sg50
F0.0631
sbsg1246
g0
(g78
g2
Ntp1341
Rp1342
(dp1343
g42
I00
sg48
I01
sg49
I00
sg50
F29200000.0
sbsg1247
g0
(g884
g93
(lp1344
F5.543e-10
aF8.012e-10
atp1345
Rp1346
(dp1347
g42
I00
sg48
I01
sg49
I00
sbsbsbsg842
g0
(g233
g2
Ntp1348
Rp1349
(dp1350
g42
I00
sg48
I01
sg49
I00
sg19
(lp1351
g935
ag936
ag937
ag938
ag939
ag940
ag941
ag942
ag943
ag944
ag945
ag946
ag947
ag948
ag949
ag950
asg43
Nsg935
g0
(g78
g2
Ntp1352
Rp1353
(dp1354
g42
I00
sg48
I01
sg49
I00
sg50
F13.33
sbsg936
g0
(g78
g2
Ntp1355
Rp1356
(dp1357
g42
I00
sg48
I01
sg49
I00
sg50
F3.33
sbsg937
g0
(g884
g93
(lp1358
F0.14
aF0.135
atp1359
Rp1360
(dp1361
g42
I00
sg48
I01
sg49
I00
sbsg938
g0
(g884
g93
(lp1362
F0.0
aF0.0
atp1363
Rp1364
(dp1365
g42
I00
sg48
I01
sg49
I00
sbsg939
g0
(g320
g2
Ntp1366
Rp1367
(dp1368
g42
I00
sg48
I01
sg49
I00
sg50
I-9999
sbsg940
g0
(g320
g2
Ntp1369
Rp1370
(dp1371
g42
I00
sg48
I01
sg49
I00
sg50
I1
sbsg941
g0
(g884
g93
(lp1372
F0.0697
aF-0.7405
aF12.38
aF-671.9
atp1373
Rp1374
(dp1375
g42
I00
sg48
I01
sg49
I00
sbsg942
g0
(g884
g93
(lp1376
F0.297
aF0.298
aF0.298
aF0.313
atp1377
Rp1378
(dp1379
g42
I00
sg48
I01
sg49
I00
sbsg943
g0
(g320
g2
Ntp1380
Rp1381
(dp1382
g42
I00
sg48
I01
sg49
I00
sg50
I301
sbsg944
g0
(g320
g2
Ntp1383
Rp1384
(dp1385
g42
I00
sg48
I01
sg49
I00
sg50
I301
sbsg945
g0
(g78
g2
Ntp1386
Rp1387
(dp1388
g42
I00
sg48
I01
sg49
I00
sg50
F0.0
sbsg946
g0
(g884
g93
(lp1389
F0.0
atp1390
Rp1391
(dp1392
g42
I00
sg48
I01
sg49
I00
sbsg947
g0
(g884
g93
(lp1393
F0.0
atp1394
Rp1395
(dp1396
g42
I00
sg48
I01
sg49
I00
sbsg948
g0
(g78
g2
Ntp1397
Rp1398
(dp1399
g42
I00
sg48
I01
sg49
I00
sg50
F0.0
sbsg949
g0
(g78
g2
Ntp1400
Rp1401
(dp1402
g42
I00
sg48
I01
sg49
I00
sg50
F0.1
sbsg950
g0
(g120
g2
Ntp1403
Rp1404
(dp1405
g42
I00
sg48
I01
sg49
I00
sg50
I00
sbsbsg843
g0
(g614
g93
(lp1406
g0
(g233
g2
Ntp1407
Rp1408
(dp1409
g42
I00
sg48
I01
sg49
I00
sg19
(lp1410
Vpixels
p1411
aVcrosstalk
p1412
aVnonlin1
p1413
aVnonlin2
p1414
aVnonlin3
p1415
asg43
Nsg1411
g0
(g320
g2
Ntp1416
Rp1417
(dp1418
g42
I00
sg48
I01
sg49
I00
sg50
I36000
sbsg1412
g0
(g78
g2
Ntp1419
Rp1420
(dp1421
g42
I00
sg48
I01
sg49
I00
sg50
F0.0
sbsg1413
g0
(g78
g2
Ntp1422
Rp1423
(dp1424
g42
I00
sg48
I01
sg49
I00
sg50
F1.0
sbsg1414
g0
(g78
g2
Ntp1425
Rp1426
(dp1427
g42
I00
sg48
I01
sg49
I00
sg50
F0.0
sbsg1415
g0
(g78
g2
Ntp1428
Rp1429
(dp1430
g42
I00
sg48
I01
sg49
I00
sg50
F0.0
sbsbag0
(g233
g2
Ntp1431
Rp1432
(dp1433
g42
I00
sg48
I01
sg49
I00
sg19
(lp1434
g1411
ag1412
ag1413
ag1414
ag1415
asg43
Nsg1411
g0
(g320
g2
Ntp1435
Rp1436
(dp1437
g42
I00
sg48
I01
sg49
I00
sg50
I2500
sbsg1412
g0
(g78
g2
Ntp1438
Rp1439
(dp1440
g42
I00
sg48
I01
sg49
I00
sg50
F0.0
sbsg1413
g0
(g78
g2
Ntp1441
Rp1442
(dp1443
g42
I00
sg48
I01
sg49
I00
sg50
F1.0
sbsg1414
g0
(g78
g2
Ntp1444
Rp1445
(dp1446
g42
I00
sg48
I01
sg49
I00
sg50
F0.0
sbsg1415
g0
(g78
g2
Ntp1447
Rp1448
(dp1449
g42
I00
sg48
I01
sg49
I00
sg50
F0.0
sbsbag0
(g233
g2
Ntp1450
Rp1451
(dp1452
g42
I00
sg48
I01
sg49
I00
sg19
(lp1453
g1411
ag1412
ag1413
ag1414
ag1415
asg43
Nsg1411
g0
(g320
g2
Ntp1454
Rp1455
(dp1456
g42
I00
sg48
I01
sg49
I00
sg50
I27370
sbsg1412
g0
(g78
g2
Ntp1457
Rp1458
(dp1459
g42
I00
sg48
I01
sg49
I00
sg50
F0.17
sbsg1413
g0
(g78
g2
Ntp1460
Rp1461
(dp1462
g42
I00
sg48
I01
sg49
I00
sg50
F1.00985
sbsg1414
g0
(g78
g2
Ntp1463
Rp1464
(dp1465
g42
I00
sg48
I01
sg49
I00
sg50
F7.84089e-06
sbsg1415
g0
(g78
g2
Ntp1466
Rp1467
(dp1468
g42
I00
sg48
I01
sg49
I00
sg50
F2.86282e-10
sbsbag0
(g233
g2
Ntp1469
Rp1470
(dp1471
g42
I00
sg48
I01
sg49
I00
sg19
(lp1472
g1411
ag1412
ag1413
ag1414
ag1415
asg43
Nsg1411
g0
(g320
g2
Ntp1473
Rp1474
(dp1475
g42
I00
sg48
I01
sg49
I00
sg50
I38018
sbsg1412
g0
(g78
g2
Ntp1476
Rp1477
(dp1478
g42
I00
sg48
I01
sg49
I00
sg50
F0.196
sbsg1413
g0
(g78
g2
Ntp1479
Rp1480
(dp1481
g42
I00
sg48
I01
sg49
I00
sg50
F1.00546
sbsg1414
g0
(g78
g2
Ntp1482
Rp1483
(dp1484
g42
I00
sg48
I01
sg49
I00
sg50
F6.40239e-06
sbsg1415
g0
(g78
g2
Ntp1485
Rp1486
(dp1487
g42
I00
sg48
I01
sg49
I00
sg50
F1.27011e-10
sbsbag0
(g233
g2
Ntp1488
Rp1489
(dp1490
g42
I00
sg48
I01
sg49
I00
sg19
(lp1491
g1411
ag1412
ag1413
ag1414
ag1415
asg43
Nsg1411
g0
(g320
g2
Ntp1492
Rp1493
(dp1494
g42
I00
sg48
I01
sg49
I00
sg50
I27370
sbsg1412
g0
(g78
g2
Ntp1495
Rp1496
(dp1497
g42
I00
sg48
I01
sg49
I00
sg50
F0.17
sbsg1413
g0
(g78
g2
Ntp1498
Rp1499
(dp1500
g42
I00
sg48
I01
sg49
I00
sg50
F1.00985
sbsg1414
g0
(g78
g2
Ntp1501
Rp1502
(dp1503
g42
I00
sg48
I01
sg49
I00
sg50
F7.84089e-06
sbsg1415
g0
(g78
g2
Ntp1504
Rp1505
(dp1506
g42
I00
sg48
I01
sg49
I00
sg50
F2.86282e-10
sbsbag0
(g233
g2
Ntp1507
Rp1508
(dp1509
g42
I00
sg48
I01
sg49
I00
sg19
(lp1510
g1411
ag1412
ag1413
ag1414
ag1415
asg43
Nsg1411
g0
(g320
g2
Ntp1511
Rp1512
(dp1513
g42
I00
sg48
I01
sg49
I00
sg50
I38018
sbsg1412
g0
(g78
g2
Ntp1514
Rp1515
(dp1516
g42
I00
sg48
I01
sg49
I00
sg50
F0.196
sbsg1413
g0
(g78
g2
Ntp1517
Rp1518
(dp1519
g42
I00
sg48
I01
sg49
I00
sg50
F1.00546
sbsg1414
g0
(g78
g2
Ntp1520
Rp1521
(dp1522
g42
I00
sg48
I01
sg49
I00
sg50
F6.40239e-06
sbsg1415
g0
(g78
g2
Ntp1523
Rp1524
(dp1525
g42
I00
sg48
I01
sg49
I00
sg50
F1.27011e-10
sbsbag0
(g233
g2
Ntp1526
Rp1527
(dp1528
g42
I00
sg48
I01
sg49
I00
sg19
(lp1529
g1411
ag1412
ag1413
ag1414
ag1415
asg43
Nsg1411
g0
(g320
g2
Ntp1530
Rp1531
(dp1532
g42
I00
sg48
I01
sg49
I00
sg50
I0
sbsg1412
g0
(g78
g2
Ntp1533
Rp1534
(dp1535
g42
I00
sg48
I01
sg49
I00
sg50
F0.0
sbsg1413
g0
(g78
g2
Ntp1536
Rp1537
(dp1538
g42
I00
sg48
I01
sg49
I00
sg50
F1.0
sbsg1414
g0
(g78
g2
Ntp1539
Rp1540
(dp1541
g42
I00
sg48
I01
sg49
I00
sg50
F0.0
sbsg1415
g0
(g78
g2
Ntp1542
Rp1543
(dp1544
g42
I00
sg48
I01
sg49
I00
sg50
F0.0
sbsbatp1545
Rp1546
(dp1547
g42
I00
sg48
I01
sg49
I00
sg103
I1
sbsg139
V/cvmfs/cms.cern.ch/el9_amd64_gcc12/cms/cmssw/CMSSW_14_1_0/src/CalibCalorimetry/HcalPlugins/python/Hcal_Conditions_forGlobalTag_cff.py
p1548
sg141
I16
sg142
g811
sbssV_Process__esproducers
p1549
(dp1550
VCSCGeometryESModule
p1551
g0
(cFWCore.ParameterSet.Modules
ESProducer
p1552
g2
Ntp1553
Rp1554
(dp1555
g17
g1551
sg19
(lp1556
VfromDDD
p1557
aVfromDD4hep
p1558
aValignmentsLabel
p1559
ag646
aVuseRealWireGeometry
p1560
aVuseOnlyWiresInME1a
p1561
aVuseGangedStripsInME1a
p1562
aVuseCentreTIOffsets
p1563
aVapplyAlignment
p1564
aVdebugV
p1565
asg42
I00
sg43
Nsg1557
g0
(g120
g2
Ntp1566
Rp1567
(dp1568
g42
I00
sg48
I01
sg49
I00
sg50
I00
sbsg49
I01
sg1558
g0
(g120
g2
Ntp1569
Rp1570
(dp1571
g42
I00
sg48
I01
sg49
I00
sg50
I00
sbsg1559
g0
(g44
g2
Ntp1572
Rp1573
(dp1574
g42
I00
sg48
I01
sg49
I00
sg50
g59
sbsg646
g0
(g44
g2
Ntp1575
Rp1576
(dp1577
g42
I00
sg48
I01
sg49
I00
sg50
g59
sbsg1560
g0
(g120
g2
Ntp1578
Rp1579
(dp1580
g42
I00
sg48
I01
sg49
I00
sg50
I01
sbsg1561
g0
(g120
g2
Ntp1581
Rp1582
(dp1583
g42
I00
sg48
I01
sg49
I00
sg50
I00
sbsg1562
g0
(g120
g2
Ntp1584
Rp1585
(dp1586
g42
I00
sg48
I01
sg49
I01
sg50
I00
sbsg1563
g0
(g120
g2
Ntp1587
Rp1588
(dp1589
g42
I00
sg48
I01
sg49
I00
sg50
I00
sbsg1564
g0
(g120
g2
Ntp1590
Rp1591
(dp1592
g42
I00
sg48
I01
sg49
I00
sg50
I01
sbsg1565
g0
(g120
g2
Ntp1593
Rp1594
(dp1595
g42
I00
sg48
I00
sg49
I00
sg50
I00
sbsg139
g172
sg141
I55
sg142
g1551
sbsVCaloGeometryBuilder
p1596
g0
(g1552
g2
Ntp1597
Rp1598
(dp1599
g17
g1596
sg19
(lp1600
VSelectedCalos
p1601
asg42
I00
sg43
Nsg1601
g0
(g92
g93
(lp1602
VHCAL
p1603
aVZDC
p1604
aVEcalBarrel
p1605
aVEcalEndcap
p1606
aVEcalPreshower
p1607
aVTOWER
p1608
atp1609
Rp1610
(dp1611
g42
I00
sg48
I01
sg49
I01
sg103
I1
sbsg49
I01
sg139
g172
sg141
I55
sg142
g1596
sbsVCaloTopologyBuilder
p1612
g0
(g1552
g2
Ntp1613
Rp1614
(dp1615
g17
g1612
sg19
(lp1616
sg42
I00
sg43
Nsg49
I00
sg139
g172
sg141
I55
sg142
g1612
sbsVCaloTowerGeometryFromDBEP
p1617
g0
(g1552
g2
Ntp1618
Rp1619
(dp1620
g17
g1617
sg19
(lp1621
g1564
asg42
I00
sg43
Nsg1564
g0
(g120
g2
Ntp1622
Rp1623
(dp1624
g42
I00
sg48
I01
sg49
I00
sg50
I00
sbsg49
I00
sg139
g172
sg141
I55
sg142
g1617
sbsVCaloTowerTopologyEP
p1625
g0
(g1552
g2
Ntp1626
Rp1627
(dp1628
g17
g1625
sg19
(lp1629
g646
asg42
I00
sg43
Nsg646
g0
(g44
g2
Ntp1630
Rp1631
(dp1632
g42
I00
sg48
I01
sg49
I00
sg50
g59
sbsg49
I00
sg139
g172
sg141
I55
sg142
g1625
sbsVCastorGeometryFromDBEP
p1633
g0
(g1552
g2
Ntp1634
Rp1635
(dp1636
g17
g1633
sg19
(lp1637
g1564
asg42
I00
sg43
Nsg1564
g0
(g120
g2
Ntp1638
Rp1639
(dp1640
g42
I00
sg48
I01
sg49
I00
sg50
I00
sbsg49
I00
sg139
g172
sg141
I55
sg142
g1633
sbsVDTGeometryESModule
p1641
g0
(g1552
g2
Ntp1642
Rp1643
(dp1644
g17
g1641
sg19
(lp1645
g1557
ag1558
aVDDDetector
p1646
ag1559
ag646
aVattribute
p1647
aVvalue
p1648
ag1564
asg42
I00
sg43
Nsg1557
g0
(g120
g2
Ntp1649
Rp1650
(dp1651
g42
I00
sg48
I01
sg49
I01
sg50
I00
sbsg49
I01
sg1558
g0
(g120
g2
Ntp1652
Rp1653
(dp1654
g42
I00
sg48
I01
sg49
I00
sg50
I00
sbsg1646
g0
(cFWCore.ParameterSet.Types
ESInputTag
p1655
g2
Ntp1656
Rp1657
(dp1658
g42
I00
sg48
I01
sg49
I00
sV_ESInputTag__moduleLabel
p1659
g59
sV_ESInputTag__data
p1660
g59
sbsg1559
g0
(g44
g2
Ntp1661
Rp1662
(dp1663
g42
I00
sg48
I01
sg49
I00
sg50
g59
sbsg646
g0
(g44
g2
Ntp1664
Rp1665
(dp1666
g42
I00
sg48
I01
sg49
I00
sg50
g59
sbsg1647
g0
(g44
g2
Ntp1667
Rp1668
(dp1669
g42
I00
sg48
I01
sg49
I00
sg50
VMuStructure
p1670
sbsg1648
g0
(g44
g2
Ntp1671
Rp1672
(dp1673
g42
I00
sg48
I01
sg49
I00
sg50
VMuonBarrelDT
p1674
sbsg1564
g0
(g120
g2
Ntp1675
Rp1676
(dp1677
g42
I00
sg48
I01
sg49
I00
sg50
I01
sbsg139
g172
sg141
I55
sg142
g1641
sbsVEcalBarrelGeometryFromDBEP
p1678
g0
(g1552
g2
Ntp1679
Rp1680
(dp1681
g17
g1678
sg19
(lp1682
g1564
asg42
I00
sg43
Nsg1564
g0
(g120
g2
Ntp1683
Rp1684
(dp1685
g42
I00
sg48
I01
sg49
I01
sg50
I01
sbsg49
I01
sg139
g172
sg141
I55
sg142
g1678
sbsVEcalElectronicsMappingBuilder
p1686
g0
(g1552
g2
Ntp1687
Rp1688
(dp1689
g17
g1686
sg19
(lp1690
sg42
I00
sg43
Nsg49
I00
sg139
g172
sg141
I55
sg142
g1686
sbsVEcalEndcapGeometryFromDBEP
p1691
g0
(g1552
g2
Ntp1692
Rp1693
(dp1694
g17
g1691
sg19
(lp1695
g1564
asg42
I00
sg43
Nsg1564
g0
(g120
g2
Ntp1696
Rp1697
(dp1698
g42
I00
sg48
I01
sg49
I01
sg50
I01
sbsg49
I01
sg139
g172
sg141
I55
sg142
g1691
sbsVEcalPreshowerGeometryFromDBEP
p1699
g0
(g1552
g2
Ntp1700
Rp1701
(dp1702
g17
g1699
sg19
(lp1703
g1564
asg42
I00
sg43
Nsg1564
g0
(g120
g2
Ntp1704
Rp1705
(dp1706
g42
I00
sg48
I01
sg49
I01
sg50
I01
sbsg49
I01
sg139
g172
sg141
I55
sg142
g1699
sbsVEcalTrigTowerConstituentsMapBuilder
p1707
g0
(g1552
g2
Ntp1708
Rp1709
(dp1710
g17
g1707
sg19
(lp1711
VMapFile
p1712
asg42
I00
sg43
Nsg1712
g0
(g44
g2
Ntp1713
Rp1714
(dp1715
g42
I00
sg48
I00
sg49
I00
sg50
VGeometry/EcalMapping/data/EndCap_TTMap.txt
p1716
sbsg49
I00
sg139
g172
sg141
I55
sg142
g1707
sbsVGlobalTrackingGeometryESProducer
p1717
g0
(g1552
g2
Ntp1718
Rp1719
(dp1720
g17
g1717
sg19
(lp1721
sg42
I00
sg43
Nsg49
I00
sg139
g172
sg141
I55
sg142
g1717
sbsVHcalAlignmentEP
p1722
g0
(g1552
g2
Ntp1723
Rp1724
(dp1725
g17
g1722
sg19
(lp1726
sg42
I00
sg43
Nsg49
I00
sg139
g172
sg141
I55
sg142
g1722
sbsVHcalGeometryFromDBEP
p1727
g0
(g1552
g2
Ntp1728
Rp1729
(dp1730
g17
g1727
sg19
(lp1731
g1564
asg42
I00
sg43
Nsg1564
g0
(g120
g2
Ntp1732
Rp1733
(dp1734
g42
I00
sg48
I01
sg49
I01
sg50
I01
sbsg49
I01
sg139
g172
sg141
I55
sg142
g1727
sbsVMuonDetLayerGeometryESProducer
p1735
g0
(g1552
g2
Ntp1736
Rp1737
(dp1738
g17
g1735
sg19
(lp1739
sg42
I00
sg43
Nsg49
I00
sg139
g172
sg141
I55
sg142
g1735
sbsVRPCGeometryESModule
p1740
g0
(g1552
g2
Ntp1741
Rp1742
(dp1743
g17
g1740
sg19
(lp1744
g1557
ag1558
asg42
I00
sg43
Nsg1557
g0
(g120
g2
Ntp1745
Rp1746
(dp1747
g42
I00
sg48
I00
sg49
I00
sg50
I00
sbsg49
I00
sg1558
g0
(g120
g2
Ntp1748
Rp1749
(dp1750
g42
I00
sg48
I00
sg49
I00
sg50
I00
sbsg139
g172
sg141
I55
sg142
g1740
sbsVTrackerAdditionalParametersPerDet
p1751
g0
(g1552
g2
Ntp1752
Rp1753
(dp1754
g17
VTrackerAdditionalParametersPerDetESModule
p1755
sg19
(lp1756
g646
asg42
I00
sg43
Nsg646
g0
(g44
g2
Ntp1757
Rp1758
(dp1759
g42
I00
sg48
I01
sg49
I00
sg50
g59
sbsg49
I00
sg139
g172
sg141
I55
sg142
g1751
sbsVTrackerRecoGeometryESProducer
p1760
g0
(g1552
g2
Ntp1761
Rp1762
(dp1763
g17
g1760
sg19
(lp1764
VusePhase2Stacks
p1765
asg42
I00
sg43
Nsg1765
g0
(g120
g2
Ntp1766
Rp1767
(dp1768
g42
I00
sg48
I01
sg49
I00
sg50
I00
sbsg49
I00
sg139
g172
sg141
I55
sg142
g1760
sbsVZdcGeometryFromDBEP
p1769
g0
(g1552
g2
Ntp1770
Rp1771
(dp1772
g17
g1769
sg19
(lp1773
g1564
asg42
I00
sg43
Nsg1564
g0
(g120
g2
Ntp1774
Rp1775
(dp1776
g42
I00
sg48
I01
sg49
I00
sg50
I00
sbsg49
I00
sg139
g172
sg141
I55
sg142
g1769
sbsVfakeForIdealAlignment
p1777
g0
(g1552
g2
Ntp1778
Rp1779
(dp1780
g17
VFakeAlignmentProducer
p1781
sg19
(lp1782
g646
asg42
I00
sg43
Nsg646
g0
(g44
g2
Ntp1783
Rp1784
(dp1785
g42
I00
sg48
I01
sg49
I01
sg50
VfakeForIdeal
p1786
sbsg49
I01
sg139
V/cvmfs/cms.cern.ch/el9_amd64_gcc12/cms/cmssw/CMSSW_14_1_0/src/Alignment/CommonAlignmentProducer/python/fakeForIdealAlignmentProducer_cfi.py
p1787
sg141
I5
sg142
g1777
sbsVhcalDDDRecConstants
p1788
g0
(g1552
g2
Ntp1789
Rp1790
(dp1791
g17
VHcalDDDRecConstantsESModule
p1792
sg19
(lp1793
g646
asg42
I00
sg43
Nsg646
g0
(g44
g2
Ntp1794
Rp1795
(dp1796
g42
I00
sg48
I01
sg49
I00
sg50
g59
sbsg49
I00
sg139
g172
sg141
I55
sg142
g1788
sbsVhcalDDDSimConstants
p1797
g0
(g1552
g2
Ntp1798
Rp1799
(dp1800
g17
VHcalDDDSimConstantsESModule
p1801
sg19
(lp1802
g646
asg42
I00
sg43
Nsg646
g0
(g44
g2
Ntp1803
Rp1804
(dp1805
g42
I00
sg48
I01
sg49
I00
sg50
g59
sbsg49
I00
sg139
g172
sg141
I55
sg142
g1797
sbsVhcalTopologyIdeal
p1806
g0
(g1552
g2
Ntp1807
Rp1808
(dp1809
g17
VHcalTopologyIdealEP
p1810
sg19
(lp1811
VExclude
p1812
aVMergePosition
p1813
ag646
asg42
I00
sg43
Nsg1812
g0
(g44
g2
Ntp1814
Rp1815
(dp1816
g42
I00
sg48
I00
sg49
I00
sg50
g59
sbsg49
I00
sg1813
g0
(g120
g2
Ntp1817
Rp1818
(dp1819
g42
I00
sg48
I00
sg49
I00
sg50
I00
sbsg646
g0
(g44
g2
Ntp1820
Rp1821
(dp1822
g42
I00
sg48
I01
sg49
I00
sg50
g59
sbsg139
g172
sg141
I55
sg142
g1806
sbsVidealForDigiCSCGeometry
p1823
g0
(g1552
g2
Ntp1824
Rp1825
(dp1826
g17
g1551
sg19
(lp1827
g1557
ag1558
ag1559
ag646
ag1560
ag1561
ag1562
ag1563
ag1564
ag1565
asg42
I00
sg43
Nsg1557
g0
(g120
g2
Ntp1828
Rp1829
(dp1830
g42
I00
sg48
I01
sg49
I00
sg50
I00
sbsg49
I01
sg1558
g0
(g120
g2
Ntp1831
Rp1832
(dp1833
g42
I00
sg48
I01
sg49
I00
sg50
I00
sbsg1559
g0
(g44
g2
Ntp1834
Rp1835
(dp1836
g42
I00
sg48
I01
sg49
I01
sg50
g1786
sbsg646
g0
(g44
g2
Ntp1837
Rp1838
(dp1839
g42
I00
sg48
I01
sg49
I01
sg50
VidealForDigi
p1840
sbsg1560
g0
(g120
g2
Ntp1841
Rp1842
(dp1843
g42
I00
sg48
I01
sg49
I00
sg50
I01
sbsg1561
g0
(g120
g2
Ntp1844
Rp1845
(dp1846
g42
I00
sg48
I01
sg49
I00
sg50
I00
sbsg1562
g0
(g120
g2
Ntp1847
Rp1848
(dp1849
g42
I00
sg48
I01
sg49
I01
sg50
I00
sbsg1563
g0
(g120
g2
Ntp1850
Rp1851
(dp1852
g42
I00
sg48
I01
sg49
I00
sg50
I00
sbsg1564
g0
(g120
g2
Ntp1853
Rp1854
(dp1855
g42
I00
sg48
I01
sg49
I01
sg50
I00
sbsg1565
g0
(g120
g2
Ntp1856
Rp1857
(dp1858
g42
I00
sg48
I00
sg49
I00
sg50
I00
sbsg139
V/cvmfs/cms.cern.ch/el9_amd64_gcc12/cms/cmssw/CMSSW_14_1_0/src/Geometry/CSCGeometryBuilder/python/idealForDigiCscGeometryDB_cff.py
p1859
sg141
I8
sg142
g1823
sbsVidealForDigiDTGeometry
p1860
g0
(g1552
g2
Ntp1861
Rp1862
(dp1863
g17
g1641
sg19
(lp1864
g1557
ag1558
ag1646
ag1559
ag646
ag1647
ag1648
ag1564
asg42
I00
sg43
Nsg1557
g0
(g120
g2
Ntp1865
Rp1866
(dp1867
g42
I00
sg48
I01
sg49
I01
sg50
I00
sbsg49
I01
sg1558
g0
(g120
g2
Ntp1868
Rp1869
(dp1870
g42
I00
sg48
I01
sg49
I00
sg50
I00
sbsg1646
g0
(g1655
g2
Ntp1871
Rp1872
(dp1873
g42
I00
sg48
I01
sg49
I00
sg1659
g59
sg1660
g59
sbsg1559
g0
(g44
g2
Ntp1874
Rp1875
(dp1876
g42
I00
sg48
I01
sg49
I01
sg50
g1786
sbsg646
g0
(g44
g2
Ntp1877
Rp1878
(dp1879
g42
I00
sg48
I01
sg49
I01
sg50
g1840
sbsg1647
g0
(g44
g2
Ntp1880
Rp1881
(dp1882
g42
I00
sg48
I01
sg49
I00
sg50
g1670
sbsg1648
g0
(g44
g2
Ntp1883
Rp1884
(dp1885
g42
I00
sg48
I01
sg49
I00
sg50
g1674
sbsg1564
g0
(g120
g2
Ntp1886
Rp1887
(dp1888
g42
I00
sg48
I01
sg49
I01
sg50
I00
sbsg139
V/cvmfs/cms.cern.ch/el9_amd64_gcc12/cms/cmssw/CMSSW_14_1_0/src/Geometry/DTGeometryBuilder/python/idealForDigiDtGeometryDB_cff.py
p1889
sg141
I8
sg142
g1860
sbsVidealForDigiTrackerGeometry
p1890
g0
(g1552
g2
Ntp1891
Rp1892
(dp1893
g17
VTrackerDigiGeometryESModule
p1894
sg19
(lp1895
g646
ag1557
ag1564
ag1559
asg42
I00
sg43
Nsg646
g0
(g44
g2
Ntp1896
Rp1897
(dp1898
g42
I00
sg48
I01
sg49
I01
sg50
g1840
sbsg49
I01
sg1557
g0
(g120
g2
Ntp1899
Rp1900
(dp1901
g42
I00
sg48
I01
sg49
I00
sg50
I00
sbsg1564
g0
(g120
g2
Ntp1902
Rp1903
(dp1904
g42
I00
sg48
I01
sg49
I01
sg50
I00
sbsg1559
g0
(g44
g2
Ntp1905
Rp1906
(dp1907
g42
I00
sg48
I01
sg49
I01
sg50
g1786
sbsg139
V/cvmfs/cms.cern.ch/el9_amd64_gcc12/cms/cmssw/CMSSW_14_1_0/src/Geometry/TrackerGeometryBuilder/python/idealForDigiTrackerGeometryDB_cff.py
p1908
sg141
I8
sg142
g1890
sbsVmuonGeometryConstants
p1909
g0
(g1552
g2
Ntp1910
Rp1911
(dp1912
g17
VMuonGeometryConstantsESModule
p1913
sg19
(lp1914
g1558
ag646
asg42
I00
sg43
Nsg1558
g0
(g120
g2
Ntp1915
Rp1916
(dp1917
g42
I00
sg48
I01
sg49
I00
sg50
I01
sbsg49
I01
sg646
g0
(g44
g2
Ntp1918
Rp1919
(dp1920
g42
I00
sg48
I01
sg49
I00
sg50
g59
sbsg139
g172
sg141
I55
sg142
g1909
sbsVtrackerGeometryDB
p1921
g0
(g1552
g2
Ntp1922
Rp1923
(dp1924
g17
g1894
sg19
(lp1925
g646
ag1557
ag1564
ag1559
asg42
I00
sg43
Nsg646
g0
(g44
g2
Ntp1926
Rp1927
(dp1928
g42
I00
sg48
I01
sg49
I00
sg50
g59
sbsg49
I00
sg1557
g0
(g120
g2
Ntp1929
Rp1930
(dp1931
g42
I00
sg48
I01
sg49
I00
sg50
I00
sbsg1564
g0
(g120
g2
Ntp1932
Rp1933
(dp1934
g42
I00
sg48
I01
sg49
I00
sg50
I01
sbsg1559
g0
(g44
g2
Ntp1935
Rp1936
(dp1937
g42
I00
sg48
I01
sg49
I00
sg50
g59
sbsg139
g172
sg141
I55
sg142
g1921
sbsVtrackerNumberingGeometryDB
p1938
g0
(g1552
g2
Ntp1939
Rp1940
(dp1941
g17
VTrackerGeometricDetESModule
p1942
sg19
(lp1943
g1557
ag1558
ag646
asg42
I00
sg43
Nsg1557
g0
(g120
g2
Ntp1944
Rp1945
(dp1946
g42
I00
sg48
I01
sg49
I00
sg50
I00
sbsg49
I00
sg1558
g0
(g120
g2
Ntp1947
Rp1948
(dp1949
g42
I00
sg48
I01
sg49
I00
sg50
I00
sbsg646
g0
(g44
g2
Ntp1950
Rp1951
(dp1952
g42
I00
sg48
I01
sg49
I00
sg50
g59
sbsg139
g172
sg141
I55
sg142
g1938
sbsVtrackerTopology
p1953
g0
(g1552
g2
Ntp1954
Rp1955
(dp1956
g17
VTrackerTopologyEP
p1957
sg19
(lp1958
g646
asg42
I00
sg43
Nsg646
g0
(g44
g2
Ntp1959
Rp1960
(dp1961
g42
I00
sg48
I01
sg49
I00
sg50
g59
sbsg49
I00
sg139
g172
sg141
I55
sg142
g1953
sbsVzdcTopologyEP
p1962
g0
(g1552
g2
Ntp1963
Rp1964
(dp1965
g17
VZdcTopologyEP
p1966
sg19
(lp1967
g646
asg42
I00
sg43
Nsg646
g0
(g44
g2
Ntp1968
Rp1969
(dp1970
g42
I00
sg48
I01
sg49
I00
sg50
g59
sbsg49
I00
sg139
g172
sg141
I55
sg142
g1962
sbsVGEMGeometryESModule
p1971
g0
(g1552
g2
Ntp1972
Rp1973
(dp1974
g17
g1971
sg19
(lp1975
g1557
ag1558
ag646
ag1559
ag1564
asg42
I00
sg43
Nsg1557
g0
(g120
g2
Ntp1976
Rp1977
(dp1978
g42
I00
sg48
I01
sg49
I00
sg50
I00
sbsg49
I01
sg1558
g0
(g120
g2
Ntp1979
Rp1980
(dp1981
g42
I00
sg48
I01
sg49
I00
sg50
I00
sbsg646
g0
(g44
g2
Ntp1982
Rp1983
(dp1984
g42
I00
sg48
I01
sg49
I00
sg50
g59
sbsg1559
g0
(g44
g2
Ntp1985
Rp1986
(dp1987
g42
I00
sg48
I01
sg49
I00
sg50
g59
sbsg1564
g0
(g120
g2
Ntp1988
Rp1989
(dp1990
g42
I00
sg48
I01
sg49
I01
sg50
I01
sbsg139
g172
sg141
I55
sg142
g1971
sbsVParabolicParametrizedMagneticFieldProducer
p1991
g0
(g1552
g2
Ntp1992
Rp1993
(dp1994
g17
VAutoParametrizedMagneticFieldProducer
p1995
sg19
(lp1996
Vversion
p1997
aVlabel
p1998
aVvalueOverride
p1999
asg42
I00
sg43
Nsg1997
g0
(g44
g2
Ntp2000
Rp2001
(dp2002
g42
I00
sg48
I01
sg49
I00
sg50
VParabolic
p2003
sbsg49
I01
sg1998
g0
(g44
g2
Ntp2004
Rp2005
(dp2006
g42
I00
sg48
I00
sg49
I01
sg50
VParabolicMf
p2007
sbsg1999
g0
(g320
g2
Ntp2008
Rp2009
(dp2010
g42
I00
sg48
I01
sg49
I00
sg50
I-1
sbsg139
g172
sg141
I55
sg142
g1991
sbsVVolumeBasedMagneticFieldESProducer
p2011
g0
(g1552
g2
Ntp2012
Rp2013
(dp2014
g17
VDD4hep_VolumeBasedMagneticFieldESProducerFromDB
p2015
sg19
(lp2016
g1998
aVdebugBuilder
p2017
ag1999
asg42
I00
sg43
Nsg49
I01
sg139
g172
sg141
I55
sg1998
g0
(g44
g2
Ntp2018
Rp2019
(dp2020
g42
I00
sg48
I00
sg49
I00
sg50
g59
sbsg2017
g0
(g120
g2
Ntp2021
Rp2022
(dp2023
g42
I00
sg48
I00
sg49
I00
sg50
I00
sbsg1999
g0
(g320
g2
Ntp2024
Rp2025
(dp2026
g42
I00
sg48
I01
sg49
I00
sg50
I-1
sbsg142
g2011
sbsVCastorDbProducer
p2027
g0
(g1552
g2
Ntp2028
Rp2029
(dp2030
g17
g2027
sg19
(lp2031
g646
asg42
I00
sg43
Nsg646
g0
(g44
g2
Ntp2032
Rp2033
(dp2034
g42
I00
sg48
I01
sg49
I00
sg50
g59
sbsg49
I00
sg139
g172
sg141
I55
sg142
g2027
sbsVEcalLaserCorrectionService
p2035
g0
(g1552
g2
Ntp2036
Rp2037
(dp2038
g17
g2035
sg19
(lp2039
VmaxExtrapolationTimeInSec
p2040
asg42
I00
sg43
Nsg2040
g0
(cFWCore.ParameterSet.Types
uint32
p2041
g2
Ntp2042
Rp2043
(dp2044
g42
I00
sg48
I01
sg49
I00
sg50
I0
sbsg49
I00
sg139
g172
sg141
I55
sg142
g2035
sbsVEcalLaserCorrectionServiceMC
p2045
g0
(g1552
g2
Ntp2046
Rp2047
(dp2048
g17
g2045
sg19
(lp2049
g646
asg42
I00
sg43
Nsg646
g0
(g44
g2
Ntp2050
Rp2051
(dp2052
g42
I00
sg48
I01
sg49
I00
sg50
g59
sbsg49
I00
sg139
g172
sg141
I55
sg142
g2045
sbsVSiStripRecHitMatcherESProducer
p2053
g0
(g1552
g2
Ntp2054
Rp2055
(dp2056
g17
g2053
sg19
(lp2057
VComponentName
p2058
aVNSigmaInside
p2059
aVPreFilter
p2060
asg42
I00
sg43
Nsg2058
g0
(g44
g2
Ntp2061
Rp2062
(dp2063
g42
I00
sg48
I01
sg49
I00
sg50
VStandardMatcher
p2064
sbsg49
I00
sg2059
g0
(g78
g2
Ntp2065
Rp2066
(dp2067
g42
I00
sg48
I01
sg49
I00
sg50
F3.0
sbsg2060
g0
(g120
g2
Ntp2068
Rp2069
(dp2070
g42
I00
sg48
I01
sg49
I00
sg50
I00
sbsg139
g172
sg141
I55
sg142
g2053
sbsVStripCPEfromTrackAngleESProducer
p2071
g0
(g1552
g2
Ntp2072
Rp2073
(dp2074
g17
VStripCPEESProducer
p2075
sg19
(lp2076
g2058
aVComponentType
p2077
aVparameters
p2078
asg42
I00
sg43
Nsg2058
g0
(g44
g2
Ntp2079
Rp2080
(dp2081
g42
I00
sg48
I01
sg49
I01
sg50
VStripCPEfromTrackAngle
p2082
sbsg49
I00
sg2077
g0
(g44
g2
Ntp2083
Rp2084
(dp2085
g42
I00
sg48
I01
sg49
I01
sg50
g2082
sbsg2078
g0
(g233
g2
Ntp2086
Rp2087
(dp2088
g42
I00
sg48
I01
sg49
I00
sg19
(lp2089
VmLC_P0
p2090
aVmLC_P1
p2091
aVmLC_P2
p2092
aVmTIB_P0
p2093
aVmTIB_P1
p2094
aVmTOB_P0
p2095
aVmTOB_P1
p2096
aVmTID_P0
p2097
aVmTID_P1
p2098
aVmTEC_P0
p2099
aVmTEC_P1
p2100
aVuseLegacyError
p2101
aVmaxChgOneMIP
p2102
asg43
Nsg2090
g0
(g78
g2
Ntp2103
Rp2104
(dp2105
g42
I00
sg48
I01
sg49
I00
sg50
F-0.326
sbsg2091
g0
(g78
g2
Ntp2106
Rp2107
(dp2108
g42
I00
sg48
I01
sg49
I00
sg50
F0.618
sbsg2092
g0
(g78
g2
Ntp2109
Rp2110
(dp2111
g42
I00
sg48
I01
sg49
I00
sg50
F0.3
sbsg2093
g0
(g78
g2
Ntp2112
Rp2113
(dp2114
g42
I00
sg48
I01
sg49
I00
sg50
F-0.742
sbsg2094
g0
(g78
g2
Ntp2115
Rp2116
(dp2117
g42
I00
sg48
I01
sg49
I00
sg50
F0.202
sbsg2095
g0
(g78
g2
Ntp2118
Rp2119
(dp2120
g42
I00
sg48
I01
sg49
I00
sg50
F-1.026
sbsg2096
g0
(g78
g2
Ntp2121
Rp2122
(dp2123
g42
I00
sg48
I01
sg49
I00
sg50
F0.253
sbsg2097
g0
(g78
g2
Ntp2124
Rp2125
(dp2126
g42
I00
sg48
I01
sg49
I00
sg50
F-1.427
sbsg2098
g0
(g78
g2
Ntp2127
Rp2128
(dp2129
g42
I00
sg48
I01
sg49
I00
sg50
F0.433
sbsg2099
g0
(g78
g2
Ntp2130
Rp2131
(dp2132
g42
I00
sg48
I01
sg49
I00
sg50
F-1.885
sbsg2100
g0
(g78
g2
Ntp2133
Rp2134
(dp2135
g42
I00
sg48
I01
sg49
I00
sg50
F0.471
sbsg2101
g0
(g120
g2
Ntp2136
Rp2137
(dp2138
g42
I00
sg48
I01
sg49
I00
sg50
I00
sbsg2102
g0
(g78
g2
Ntp2139
Rp2140
(dp2141
g42
I00
sg48
I01
sg49
I00
sg50
F6000.0
sbsbsg139
V/cvmfs/cms.cern.ch/el9_amd64_gcc12/cms/cmssw/CMSSW_14_1_0/src/RecoLocalTracker/SiStripRecHitConverter/python/StripCPEfromTrackAngle_cfi.py
p2142
sg141
I4
sg142
g2071
sbsVctppsBeamParametersFromLHCInfoESSource
p2143
g0
(g1552
g2
Ntp2144
Rp2145
(dp2146
g17
VCTPPSBeamParametersFromLHCInfoESSource
p2147
sg19
(lp2148
VlhcInfoLabel
p2149
aVlhcInfoPerLSLabel
p2150
aVlhcInfoPerFillLabel
p2151
aVuseNewLHCInfo
p2152
aVbeamDivX45
p2153
aVbeamDivY45
p2154
aVbeamDivX56
p2155
aVbeamDivY56
p2156
aVvtxOffsetX45
p2157
aVvtxOffsetY45
p2158
aVvtxOffsetZ45
p2159
aVvtxOffsetX56
p2160
aVvtxOffsetY56
p2161
aVvtxOffsetZ56
p2162
aVvtxStddevX
p2163
aVvtxStddevY
p2164
aVvtxStddevZ
p2165
ag646
asg42
I00
sg43
Nsg2149
g0
(g44
g2
Ntp2166
Rp2167
(dp2168
g42
I00
sg48
I01
sg49
I00
sg50
g59
sbsg49
I01
sg2150
g0
(g44
g2
Ntp2169
Rp2170
(dp2171
g42
I00
sg48
I01
sg49
I00
sg50
g59
sbsg2151
g0
(g44
g2
Ntp2172
Rp2173
(dp2174
g42
I00
sg48
I01
sg49
I00
sg50
g59
sbsg2152
g0
(g120
g2
Ntp2175
Rp2176
(dp2177
g42
I00
sg48
I01
sg49
I01
sg50
I01
sbsg2153
g0
(g78
g2
Ntp2178
Rp2179
(dp2180
g42
I00
sg48
I01
sg49
I00
sg50
F0.1
sbsg2154
g0
(g78
g2
Ntp2181
Rp2182
(dp2183
g42
I00
sg48
I01
sg49
I00
sg50
F0.1
sbsg2155
g0
(g78
g2
Ntp2184
Rp2185
(dp2186
g42
I00
sg48
I01
sg49
I00
sg50
F0.1
sbsg2156
g0
(g78
g2
Ntp2187
Rp2188
(dp2189
g42
I00
sg48
I01
sg49
I00
sg50
F0.1
sbsg2157
g0
(g78
g2
Ntp2190
Rp2191
(dp2192
g42
I00
sg48
I01
sg49
I00
sg50
F0.01
sbsg2158
g0
(g78
g2
Ntp2193
Rp2194
(dp2195
g42
I00
sg48
I01
sg49
I00
sg50
F0.01
sbsg2159
g0
(g78
g2
Ntp2196
Rp2197
(dp2198
g42
I00
sg48
I01
sg49
I00
sg50
F0.01
sbsg2160
g0
(g78
g2
Ntp2199
Rp2200
(dp2201
g42
I00
sg48
I01
sg49
I00
sg50
F0.01
sbsg2161
g0
(g78
g2
Ntp2202
Rp2203
(dp2204
g42
I00
sg48
I01
sg49
I00
sg50
F0.01
sbsg2162
g0
(g78
g2
Ntp2205
Rp2206
(dp2207
g42
I00
sg48
I01
sg49
I00
sg50
F0.01
sbsg2163
g0
(g78
g2
Ntp2208
Rp2209
(dp2210
g42
I00
sg48
I01
sg49
I00
sg50
F0.02
sbsg2164
g0
(g78
g2
Ntp2211
Rp2212
(dp2213
g42
I00
sg48
I01
sg49
I00
sg50
F0.02
sbsg2165
g0
(g78
g2
Ntp2214
Rp2215
(dp2216
g42
I00
sg48
I01
sg49
I00
sg50
F0.02
sbsg646
g0
(g44
g2
Ntp2217
Rp2218
(dp2219
g42
I00
sg48
I01
sg49
I00
sg50
g59
sbsg139
V/cvmfs/cms.cern.ch/el9_amd64_gcc12/cms/cmssw/CMSSW_14_1_0/src/CalibPPS/ESProducers/python/ctppsBeamParametersFromLHCInfoESSource_cfi.py
p2220
sg141
I2
sg142
g2143
sbsVctppsInterpolatedOpticalFunctionsESSource
p2221
g0
(g1552
g2
Ntp2222
Rp2223
(dp2224
g17
VCTPPSInterpolatedOpticalFunctionsESSource
p2225
sg19
(lp2226
g2149
ag2151
ag2150
aVopticsLabel
p2227
ag2152
ag646
asg42
I00
sg43
Nsg2149
g0
(g44
g2
Ntp2228
Rp2229
(dp2230
g42
I00
sg48
I01
sg49
I00
sg50
g59
sbsg49
I01
sg2151
g0
(g44
g2
Ntp2231
Rp2232
(dp2233
g42
I00
sg48
I01
sg49
I00
sg50
g59
sbsg2150
g0
(g44
g2
Ntp2234
Rp2235
(dp2236
g42
I00
sg48
I01
sg49
I00
sg50
g59
sbsg2227
g0
(g44
g2
Ntp2237
Rp2238
(dp2239
g42
I00
sg48
I01
sg49
I00
sg50
g59
sbsg2152
g0
(g120
g2
Ntp2240
Rp2241
(dp2242
g42
I00
sg48
I01
sg49
I01
sg50
I01
sbsg646
g0
(g44
g2
Ntp2243
Rp2244
(dp2245
g42
I00
sg48
I01
sg49
I00
sg50
g59
sbsg139
V/cvmfs/cms.cern.ch/el9_amd64_gcc12/cms/cmssw/CMSSW_14_1_0/src/CalibPPS/ESProducers/python/ctppsInterpolatedOpticalFunctionsESSource_cfi.py
p2246
sg141
I2
sg142
g2221
sbsVhcal_db_producer
p2247
g0
(g1552
g2
Ntp2248
Rp2249
(dp2250
g17
VHcalDbProducer
p2251
sg19
(lp2252
Vdump
p2253
aVfile
p2254
asg42
I00
sg43
Nsg2253
g0
(g92
g93
(lp2255
g59
atp2256
Rp2257
(dp2258
g42
I00
sg48
I00
sg49
I00
sg103
I1
sbsg49
I00
sg2254
g0
(g44
g2
Ntp2259
Rp2260
(dp2261
g42
I00
sg48
I00
sg49
I00
sg50
g59
sbsg139
g172
sg141
I55
sg142
g2247
sbsVmultipleScatteringParametrisationMakerESProducer
p2262
g0
(g1552
g2
Ntp2263
Rp2264
(dp2265
g17
VMultipleScatteringParametrisationMakerESProducer
p2266
sg19
(lp2267
g646
asg42
I00
sg43
Nsg646
g0
(g44
g2
Ntp2268
Rp2269
(dp2270
g42
I00
sg48
I01
sg49
I00
sg50
g59
sbsg49
I00
sg139
g172
sg141
I55
sg142
g2262
sbsVsiPixelQualityESProducer
p2271
g0
(g1552
g2
Ntp2272
Rp2273
(dp2274
g17
VSiPixelQualityESProducer
p2275
sg19
(lp2276
VsiPixelQualityFromDbLabel
p2277
aVListOfRecordToMerge
p2278
ag646
asg42
I00
sg43
Nsg2277
g0
(g44
g2
Ntp2279
Rp2280
(dp2281
g42
I00
sg48
I01
sg49
I00
sg50
g59
sbsg49
I00
sg2278
g0
(g614
g93
(lp2282
g0
(g233
g2
Ntp2283
Rp2284
(dp2285
g42
I00
sg48
I01
sg49
I00
sg19
(lp2286
Vrecord
p2287
aVtag
p2288
asg43
Nsg2287
g0
(g44
g2
Ntp2289
Rp2290
(dp2291
g42
I00
sg48
I01
sg49
I00
sg50
VSiPixelQualityFromDbRcd
p2292
sbsg2288
g0
(g44
g2
Ntp2293
Rp2294
(dp2295
g42
I00
sg48
I01
sg49
I00
sg50
g59
sbsbag0
(g233
g2
Ntp2296
Rp2297
(dp2298
g42
I00
sg48
I01
sg49
I00
sg19
(lp2299
g2287
ag2288
asg43
Nsg2287
g0
(g44
g2
Ntp2300
Rp2301
(dp2302
g42
I00
sg48
I01
sg49
I00
sg50
VSiPixelDetVOffRcd
p2303
sbsg2288
g0
(g44
g2
Ntp2304
Rp2305
(dp2306
g42
I00
sg48
I01
sg49
I00
sg50
g59
sbsbatp2307
Rp2308
(dp2309
g42
I00
sg48
I01
sg49
I00
sg103
I1
sbsg646
g0
(g44
g2
Ntp2310
Rp2311
(dp2312
g42
I00
sg48
I01
sg49
I00
sg50
g59
sbsg139
g172
sg141
I55
sg142
g2271
sbsVsiStripBackPlaneCorrectionDepESProducer
p2313
g0
(g1552
g2
Ntp2314
Rp2315
(dp2316
g17
VSiStripBackPlaneCorrectionDepESProducer
p2317
sg19
(lp2318
VLatencyRecord
p2319
aVBackPlaneCorrectionPeakMode
p2320
aVBackPlaneCorrectionDeconvMode
p2321
asg42
I00
sg43
Nsg2319
g0
(g233
g2
Ntp2322
Rp2323
(dp2324
g42
I00
sg48
I01
sg49
I00
sg19
(lp2325
g2287
ag1998
asg43
Nsg2287
g0
(g44
g2
Ntp2326
Rp2327
(dp2328
g42
I00
sg48
I01
sg49
I00
sg50
VSiStripLatencyRcd
p2329
sbsg1998
g0
(g44
g2
Ntp2330
Rp2331
(dp2332
g42
I00
sg48
I00
sg49
I00
sg50
g59
sbsbsg49
I00
sg2320
g0
(g233
g2
Ntp2333
Rp2334
(dp2335
g42
I00
sg48
I01
sg49
I00
sg19
(lp2336
g2287
ag1998
asg43
Nsg2287
g0
(g44
g2
Ntp2337
Rp2338
(dp2339
g42
I00
sg48
I01
sg49
I00
sg50
VSiStripBackPlaneCorrectionRcd
p2340
sbsg1998
g0
(g44
g2
Ntp2341
Rp2342
(dp2343
g42
I00
sg48
I00
sg49
I00
sg50
Vpeak
p2344
sbsbsg2321
g0
(g233
g2
Ntp2345
Rp2346
(dp2347
g42
I00
sg48
I01
sg49
I00
sg19
(lp2348
g2287
ag1998
asg43
Nsg2287
g0
(g44
g2
Ntp2349
Rp2350
(dp2351
g42
I00
sg48
I01
sg49
I00
sg50
g2340
sbsg1998
g0
(g44
g2
Ntp2352
Rp2353
(dp2354
g42
I00
sg48
I00
sg49
I00
sg50
Vdeconvolution
p2355
sbsbsg139
g172
sg141
I55
sg142
g2313
sbsVsiStripGainESProducer
p2356
g0
(g1552
g2
Ntp2357
Rp2358
(dp2359
g17
VSiStripGainESProducer
p2360
sg19
(lp2361
g646
aVprintDebug
p2362
aVAutomaticNormalization
p2363
aVAPVGain
p2364
asg42
I00
sg43
Nsg646
g0
(g44
g2
Ntp2365
Rp2366
(dp2367
g42
I00
sg48
I01
sg49
I00
sg50
g59
sbsg49
I00
sg2362
g0
(g120
g2
Ntp2368
Rp2369
(dp2370
g42
I00
sg48
I00
sg49
I00
sg50
I00
sbsg2363
g0
(g120
g2
Ntp2371
Rp2372
(dp2373
g42
I00
sg48
I01
sg49
I00
sg50
I00
sbsg2364
g0
(g614
g93
(lp2374
g0
(g233
g2
Ntp2375
Rp2376
(dp2377
g42
I00
sg48
I01
sg49
I00
sg19
(lp2378
VRecord
p2379
aVLabel
p2380
aVNormalizationFactor
p2381
asg43
Nsg2379
g0
(g44
g2
Ntp2382
Rp2383
(dp2384
g42
I00
sg48
I01
sg49
I00
sg50
VSiStripApvGainRcd
p2385
sbsg2380
g0
(g44
g2
Ntp2386
Rp2387
(dp2388
g42
I00
sg48
I00
sg49
I00
sg50
g59
sbsg2381
g0
(g78
g2
Ntp2389
Rp2390
(dp2391
g42
I00
sg48
I00
sg49
I00
sg50
F1.0
sbsbag0
(g233
g2
Ntp2392
Rp2393
(dp2394
g42
I00
sg48
I01
sg49
I00
sg19
(lp2395
g2379
ag2380
ag2381
asg43
Nsg2379
g0
(g44
g2
Ntp2396
Rp2397
(dp2398
g42
I00
sg48
I01
sg49
I00
sg50
VSiStripApvGain2Rcd
p2399
sbsg2380
g0
(g44
g2
Ntp2400
Rp2401
(dp2402
g42
I00
sg48
I00
sg49
I00
sg50
g59
sbsg2381
g0
(g78
g2
Ntp2403
Rp2404
(dp2405
g42
I00
sg48
I00
sg49
I00
sg50
F1.0
sbsbatp2406
Rp2407
(dp2408
g42
I00
sg48
I01
sg49
I00
sg103
I1
sbsg139
g172
sg141
I55
sg142
g2356
sbsVsiStripLorentzAngleDepESProducer
p2409
g0
(g1552
g2
Ntp2410
Rp2411
(dp2412
g17
VSiStripLorentzAngleDepESProducer
p2413
sg19
(lp2414
g2319
aVLorentzAnglePeakMode
p2415
aVLorentzAngleDeconvMode
p2416
asg42
I00
sg43
Nsg2319
g0
(g233
g2
Ntp2417
Rp2418
(dp2419
g42
I00
sg48
I01
sg49
I00
sg19
(lp2420
g2287
ag1998
asg43
Nsg2287
g0
(g44
g2
Ntp2421
Rp2422
(dp2423
g42
I00
sg48
I01
sg49
I00
sg50
g2329
sbsg1998
g0
(g44
g2
Ntp2424
Rp2425
(dp2426
g42
I00
sg48
I00
sg49
I00
sg50
g59
sbsbsg49
I00
sg2415
g0
(g233
g2
Ntp2427
Rp2428
(dp2429
g42
I00
sg48
I01
sg49
I00
sg19
(lp2430
g2287
ag1998
asg43
Nsg2287
g0
(g44
g2
Ntp2431
Rp2432
(dp2433
g42
I00
sg48
I01
sg49
I00
sg50
VSiStripLorentzAngleRcd
p2434
sbsg1998
g0
(g44
g2
Ntp2435
Rp2436
(dp2437
g42
I00
sg48
I00
sg49
I00
sg50
g2344
sbsbsg2416
g0
(g233
g2
Ntp2438
Rp2439
(dp2440
g42
I00
sg48
I01
sg49
I00
sg19
(lp2441
g2287
ag1998
asg43
Nsg2287
g0
(g44
g2
Ntp2442
Rp2443
(dp2444
g42
I00
sg48
I01
sg49
I00
sg50
g2434
sbsg1998
g0
(g44
g2
Ntp2445
Rp2446
(dp2447
g42
I00
sg48
I00
sg49
I00
sg50
g2355
sbsbsg139
g172
sg141
I55
sg142
g2409
sbsVsiStripQualityESProducer
p2448
g0
(g1552
g2
Ntp2449
Rp2450
(dp2451
g17
VSiStripQualityESProducer
p2452
sg19
(lp2453
g646
ag2278
aVReduceGranularity
p2454
aVThresholdForReducedGranularity
p2455
aVPrintDebugOutput
p2456
aVUseEmptyRunInfo
p2457
asg42
I00
sg43
Nsg646
g0
(g44
g2
Ntp2458
Rp2459
(dp2460
g42
I00
sg48
I01
sg49
I00
sg50
g59
sbsg49
I01
sg2278
g0
(g614
g93
(lp2461
g0
(g233
g2
Ntp2462
Rp2463
(dp2464
g42
I00
sg48
I01
sg49
I00
sg19
(lp2465
g2287
ag2288
asg43
Nsg2287
g0
(g44
g2
Ntp2466
Rp2467
(dp2468
g42
I00
sg48
I01
sg49
I00
sg50
VSiStripDetVOffRcd
p2469
sbsg2288
g0
(g44
g2
Ntp2470
Rp2471
(dp2472
g42
I00
sg48
I01
sg49
I00
sg50
g59
sbsbag0
(g233
g2
Ntp2473
Rp2474
(dp2475
g42
I00
sg48
I01
sg49
I00
sg19
(lp2476
g2287
ag2288
asg43
Nsg2287
g0
(g44
g2
Ntp2477
Rp2478
(dp2479
g42
I00
sg48
I01
sg49
I00
sg50
VSiStripDetCablingRcd
p2480
sbsg2288
g0
(g44
g2
Ntp2481
Rp2482
(dp2483
g42
I00
sg48
I01
sg49
I00
sg50
g59
sbsbag0
(g233
g2
Ntp2484
Rp2485
(dp2486
g42
I00
sg48
I01
sg49
I00
sg19
(lp2487
g2287
ag2288
asg43
Nsg2287
g0
(g44
g2
Ntp2488
Rp2489
(dp2490
g42
I00
sg48
I01
sg49
I00
sg50
VRunInfoRcd
p2491
sbsg2288
g0
(g44
g2
Ntp2492
Rp2493
(dp2494
g42
I00
sg48
I01
sg49
I00
sg50
g59
sbsbag0
(g233
g2
Ntp2495
Rp2496
(dp2497
g42
I00
sg48
I01
sg49
I00
sg19
(lp2498
g2287
ag2288
asg43
Nsg2287
g0
(g44
g2
Ntp2499
Rp2500
(dp2501
g42
I00
sg48
I01
sg49
I00
sg50
VSiStripBadChannelRcd
p2502
sbsg2288
g0
(g44
g2
Ntp2503
Rp2504
(dp2505
g42
I00
sg48
I01
sg49
I00
sg50
g59
sbsbag0
(g233
g2
Ntp2506
Rp2507
(dp2508
g42
I00
sg48
I01
sg49
I00
sg19
(lp2509
g2287
ag2288
asg43
Nsg2287
g0
(g44
g2
Ntp2510
Rp2511
(dp2512
g42
I00
sg48
I01
sg49
I00
sg50
VSiStripBadFiberRcd
p2513
sbsg2288
g0
(g44
g2
Ntp2514
Rp2515
(dp2516
g42
I00
sg48
I01
sg49
I00
sg50
g59
sbsbag0
(g233
g2
Ntp2517
Rp2518
(dp2519
g42
I00
sg48
I01
sg49
I00
sg19
(lp2520
g2287
ag2288
asg43
Nsg2287
g0
(g44
g2
Ntp2521
Rp2522
(dp2523
g42
I00
sg48
I01
sg49
I00
sg50
VSiStripBadModuleRcd
p2524
sbsg2288
g0
(g44
g2
Ntp2525
Rp2526
(dp2527
g42
I00
sg48
I01
sg49
I00
sg50
g59
sbsbag0
(g233
g2
Ntp2528
Rp2529
(dp2530
g42
I00
sg48
I01
sg49
I00
sg19
(lp2531
g2287
ag2288
asg43
Nsg2287
g0
(g44
g2
Ntp2532
Rp2533
(dp2534
g42
I00
sg48
I01
sg49
I00
sg50
VSiStripBadStripRcd
p2535
sbsg2288
g0
(g44
g2
Ntp2536
Rp2537
(dp2538
g42
I00
sg48
I01
sg49
I00
sg50
g59
sbsbatp2539
Rp2540
(dp2541
g42
I00
sg48
I01
sg49
I00
sg103
I1
sbsg2454
g0
(g120
g2
Ntp2542
Rp2543
(dp2544
g42
I00
sg48
I01
sg49
I00
sg50
I00
sbsg2455
g0
(g78
g2
Ntp2545
Rp2546
(dp2547
g42
I00
sg48
I01
sg49
I00
sg50
F0.3
sbsg2456
g0
(g120
g2
Ntp2548
Rp2549
(dp2550
g42
I00
sg48
I01
sg49
I00
sg50
I00
sbsg2457
g0
(g120
g2
Ntp2551
Rp2552
(dp2553
g42
I00
sg48
I01
sg49
I00
sg50
I00
sbsg139
g172
sg141
I55
sg142
g2448
sbsVsistripconn
p2554
g0
(g1552
g2
Ntp2555
Rp2556
(dp2557
g17
VSiStripConnectivity
p2558
sg19
(lp2559
sg42
I00
sg43
Nsg49
I00
sg139
g172
sg141
I55
sg142
g2554
sbsVstripCPEESProducer
p2560
g0
(g1552
g2
Ntp2561
Rp2562
(dp2563
g17
g2075
sg19
(lp2564
g2058
ag2077
ag2078
asg42
I00
sg43
Nsg2058
g0
(g44
g2
Ntp2565
Rp2566
(dp2567
g42
I00
sg48
I01
sg49
I00
sg50
VstripCPE
p2568
sbsg49
I00
sg2077
g0
(g44
g2
Ntp2569
Rp2570
(dp2571
g42
I00
sg48
I01
sg49
I00
sg50
VSimpleStripCPE
p2572
sbsg2078
g0
(g233
g2
Ntp2573
Rp2574
(dp2575
g42
I00
sg48
I01
sg49
I00
sg19
(lp2576
sg43
Nsbsg139
g172
sg141
I55
sg142
g2560
sbssV_Process__esprefers
p2577
(dp2578
Ves_prefer_hcalHardcode
p2579
g0
(cFWCore.ParameterSet.Modules
ESPrefer
p2580
g2
Ntp2581
Rp2582
(dp2583
g17
g815
sg19
(lp2584
sg42
I00
sg43
Nsg49
I00
sg139
g172
sg141
I91
sV_targetLabel
p2585
g811
sg142
g2579
sbssV_Process__aliases
p2586
(dp2587
sV_Process__psets
p2588
(dp2589
Voptions
p2590
g0
(g233
g2
Ntp2591
Rp2592
(dp2593
g42
I00
sg48
I00
sg49
I00
sg19
(lp2594
VnumberOfThreads
p2595
aVnumberOfStreams
p2596
aVnumberOfConcurrentRuns
p2597
aVnumberOfConcurrentLuminosityBlocks
p2598
aVeventSetup
p2599
aVaccelerators
p2600
aVwantSummary
p2601
aVfileMode
p2602
aVforceEventSetupCacheClearOnNewRun
p2603
aVthrowIfIllegalParameter
p2604
aVprintDependencies
p2605
aVdeleteNonConsumedUnscheduledModules
p2606
aVsizeOfStackForThreadsInKB
p2607
aVRethrow
p2608
aVTryToContinue
p2609
aVIgnoreCompletely
p2610
aVmodulesToCallForTryToContinue
p2611
aVcanDeleteEarly
p2612
aVholdsReferencesToDeleteEarly
p2613
aVmodulesToIgnoreForDeleteEarly
p2614
aVdumpOptions
p2615
aVallowUnscheduled
p2616
aVemptyRunLumiMode
p2617
aVmakeTriggerResults
p2618
asg43
Nsg2595
g0
(g2041
g2
Ntp2619
Rp2620
(dp2621
g42
I00
sg48
I00
sg49
I00
sg50
I1
sbsg2596
g0
(g2041
g2
Ntp2622
Rp2623
(dp2624
g42
I00
sg48
I00
sg49
I00
sg50
I0
sbsg2597
g0
(g2041
g2
Ntp2625
Rp2626
(dp2627
g42
I00
sg48
I00
sg49
I00
sg50
I1
sbsg2598
g0
(g2041
g2
Ntp2628
Rp2629
(dp2630
g42
I00
sg48
I00
sg49
I00
sg50
I0
sbsg2599
g0
(g233
g2
Ntp2631
Rp2632
(dp2633
g42
I00
sg48
I00
sg49
I00
sg19
(lp2634
VnumberOfConcurrentIOVs
p2635
aVforceNumberOfConcurrentIOVs
p2636
asg43
Nsg2635
g0
(g2041
g2
Ntp2637
Rp2638
(dp2639
g42
I00
sg48
I00
sg49
I00
sg50
I0
sbsg2636
g0
(g233
g2
Ntp2640
Rp2641
(dp2642
g42
I00
sg48
I00
sg49
I00
sg19
(lp2643
sg43
g0
(cFWCore.ParameterSet.Types
_RequiredParameter
p2644
g2
Ntp2645
Rp2646
(dp2647
g42
I00
sg48
I00
sg49
I00
sg137
g2041
sg138
Nsbsbsbsg2600
g0
(g92
g93
(lp2648
V*
p2649
atp2650
Rp2651
(dp2652
g42
I00
sg48
I00
sg49
I00
sg103
I1
sbsg2601
g0
(g120
g2
Ntp2653
Rp2654
(dp2655
g42
I00
sg48
I00
sg49
I00
sg50
I00
sbsg2602
g0
(g44
g2
Ntp2656
Rp2657
(dp2658
g42
I00
sg48
I00
sg49
I00
sg50
VFULLMERGE
p2659
sbsg2603
g0
(g120
g2
Ntp2660
Rp2661
(dp2662
g42
I00
sg48
I00
sg49
I00
sg50
I00
sbsg2604
g0
(g120
g2
Ntp2663
Rp2664
(dp2665
g42
I00
sg48
I00
sg49
I00
sg50
I01
sbsg2605
g0
(g120
g2
Ntp2666
Rp2667
(dp2668
g42
I00
sg48
I00
sg49
I00
sg50
I00
sbsg2606
g0
(g120
g2
Ntp2669
Rp2670
(dp2671
g42
I00
sg48
I00
sg49
I00
sg50
I01
sbsg2607
g0
(g133
g2
Ntp2672
Rp2673
(dp2674
g42
I00
sg48
I00
sg49
I00
sg137
g2041
sg138
Nsbsg2608
g0
(g92
g93
(lp2675
tp2676
Rp2677
(dp2678
g42
I00
sg48
I00
sg49
I00
sg103
I1
sbsg2609
g0
(g92
g93
(lp2679
tp2680
Rp2681
(dp2682
g42
I00
sg48
I00
sg49
I00
sg103
I1
sbsg2610
g0
(g92
g93
(lp2683
tp2684
Rp2685
(dp2686
g42
I00
sg48
I00
sg49
I00
sg103
I1
sbsg2611
g0
(g92
g93
(lp2687
tp2688
Rp2689
(dp2690
g42
I00
sg48
I00
sg49
I00
sg103
I1
sbsg2612
g0
(g92
g93
(lp2691
tp2692
Rp2693
(dp2694
g42
I00
sg48
I00
sg49
I00
sg103
I1
sbsg2613
g0
(g614
g93
(lp2695
tp2696
Rp2697
(dp2698
g42
I00
sg48
I00
sg49
I00
sg103
I1
sbsg2614
g0
(g92
g93
(lp2699
tp2700
Rp2701
(dp2702
g42
I00
sg48
I00
sg49
I00
sg103
I1
sbsg2615
g0
(g120
g2
Ntp2703
Rp2704
(dp2705
g42
I00
sg48
I00
sg49
I00
sg50
I00
sbsg2616
g0
(cFWCore.ParameterSet.Types
_ObsoleteParameter
p2706
g2
Ntp2707
Rp2708
(dp2709
g42
I00
sg48
I00
sg49
I00
sg137
g120
sg138
Nsbsg2617
g0
(g2706
g2
Ntp2710
Rp2711
(dp2712
g42
I00
sg48
I00
sg49
I00
sg137
g44
sg138
Nsbsg2618
g0
(g2706
g2
Ntp2713
Rp2714
(dp2715
g42
I00
sg48
I00
sg49
I00
sg137
g120
sg138
Nsbsg142
g2590
sbsVmaxLuminosityBlocks
p2716
g0
(g233
g2
Ntp2717
Rp2718
(dp2719
g42
I00
sg48
I00
sg49
I00
sg19
(lp2720
Vinput
p2721
asg43
Nsg2721
g0
(g320
g2
Ntp2722
Rp2723
(dp2724
g42
I00
sg48
I00
sg49
I00
sg50
I-1
sbsg142
g2716
sbsVCondDB
p2725
g0
(g233
g2
Ntp2726
Rp2727
(dp2728
g42
I00
sg48
I01
sg49
I00
sg19
(lp2729
g567
ag568
asg43
Nsg567
g0
(g233
g2
Ntp2730
Rp2731
(dp2732
g42
I00
sg48
I01
sg49
I00
sg19
(lp2733
g583
ag584
ag585
ag586
ag587
asg43
Nsg583
g0
(g44
g2
Ntp2734
Rp2735
(dp2736
g42
I00
sg48
I00
sg49
I00
sg50
g59
sbsg584
g0
(g320
g2
Ntp2737
Rp2738
(dp2739
g42
I00
sg48
I00
sg49
I00
sg50
I0
sbsg585
g0
(g44
g2
Ntp2740
Rp2741
(dp2742
g42
I00
sg48
I00
sg49
I00
sg50
g59
sbsg586
g0
(g320
g2
Ntp2743
Rp2744
(dp2745
g42
I00
sg48
I00
sg49
I00
sg50
I0
sbsg587
g0
(g320
g2
Ntp2746
Rp2747
(dp2748
g42
I00
sg48
I00
sg49
I00
sg50
I0
sbsbsg568
g0
(g44
g2
Ntp2749
Rp2750
(dp2751
g42
I00
sg48
I01
sg49
I00
sg50
g59
sbsg142
g2725
sbsg825
g877
sVmaxEvents
p2752
g0
(g233
g2
Ntp2753
Rp2754
(dp2755
g42
I00
sg48
I00
sg49
I01
sg19
(lp2756
g2721
ag504
asg43
Nsg2721
g0
(g133
g2
Ntp2757
Rp2758
(dp2759
g42
I00
sg48
I00
sg49
I00
sg137
g320
sg138
g0
(g320
g2
Ntp2760
Rp2761
(dp2762
g42
I00
sg48
I00
sg49
I00
sg50
I-1
sbsbsg504
g0
(g133
g2
Ntp2763
Rp2764
(dp2765
g42
I00
sg48
I00
sg49
I00
sg137
g0
(cFWCore.ParameterSet.Types
_AllowedParameterTypes
p2766
g2
Ntp2767
Rp2768
(dp2769
V_AllowedParameterTypes__types
p2770
(g320
g233
tp2771
sV_default
p2772
NsV__name__
p2773
Vallowed(cms.int32,cms.PSet)
p2774
sbsg138
Nsbsg142
g2752
sbsVNANOAODEventContent
p2775
g0
(g233
g2
Ntp2776
Rp2777
(dp2778
g42
I00
sg48
I01
sg49
I00
sg19
(lp2779
g215
aVcompressionLevel
p2780
aVcompressionAlgorithm
p2781
asg43
Nsg215
g231
sg2780
g0
(g320
g2
Ntp2782
Rp2783
(dp2784
g42
I00
sg48
I00
sg49
I00
sg50
I9
sbsg2781
g0
(g44
g2
Ntp2785
Rp2786
(dp2787
g42
I00
sg48
I00
sg49
I00
sg50
VLZMA
p2788
sbsg142
g2775
sbsVNANOAODSIMEventContent
p2789
g0
(g233
g2
Ntp2790
Rp2791
(dp2792
g42
I00
sg48
I01
sg49
I00
sg19
(lp2793
g215
ag2780
ag2781
asg43
Nsg215
g0
(g92
g93
(lp2794
g222
ag223
ag224
ag225
ag226
ag227
atp2795
Rp2796
(dp2797
g42
I00
sg48
I00
sg49
I00
sg103
I1
sbsg2780
g0
(g320
g2
Ntp2798
Rp2799
(dp2800
g42
I00
sg48
I00
sg49
I00
sg50
I9
sbsg2781
g0
(g44
g2
Ntp2801
Rp2802
(dp2803
g42
I00
sg48
I00
sg49
I00
sg50
g2788
sbsg142
g2789
sbsVNanoAODEDMEventContent
p2804
g0
(g233
g2
Ntp2805
Rp2806
(dp2807
g42
I00
sg48
I01
sg49
I00
sg19
(lp2808
g215
asg43
Nsg215
g0
(g92
g93
(lp2809
g222
ag223
ag224
ag225
ag226
ag227
atp2810
Rp2811
(dp2812
g42
I00
sg48
I00
sg49
I00
sg103
I1
sbsg142
g2804
sbssV_Process__vpsets
p2813
(dp2814
sV_cloneToObjectDict
p2815
(dp2816
L139959167251312L
g2592
sL139959178919360L
g0
(g233
g2
Ntp2817
Rp2818
(dp2819
g42
I00
sg48
I00
sg49
I00
sg19
(lp2820
g2721
ag504
asg43
Nsg2721
g0
(g133
g2
Ntp2821
Rp2822
(dp2823
g42
I00
sg48
I00
sg49
I00
sg137
g320
sg138
Nsbsg504
g0
(g133
g2
Ntp2824
Rp2825
(dp2826
g42
I00
sg48
I00
sg49
I00
sg137
g0
(g2766
g2
Ntp2827
Rp2828
(dp2829
g2770
(g320
g233
tp2830
sg2772
Nsg2773
Vallowed(cms.int32,cms.PSet)
p2831
sbsg138
Nsbsg142
NsbsL139959178916384L
g2718
sL139959169759840L
g1554
sL139959164248800L
g1598
sL139959178182720L
g1614
sL139959164249472L
g1619
sL139959164289472L
g1627
sL139959164290720L
g1635
sL139959178826944L
g1643
sL139959164250192L
g1680
sL139959164248512L
g1688
sL139959164249616L
g1693
sL139959164249904L
g1701
sL139959176999888L
g1709
sL139959177253984L
g1719
sL139959164250960L
g1724
sL139959164249184L
g1729
sL139959168185440L
g1737
sL139959169759600L
g1742
sL139959184052032L
g1753
sL139959169760848L
g1762
sL139959164290432L
g1771
sL139959164291296L
g541
sL139959163823488L
g1779
sL139959164292160L
g1790
sL139959164291968L
g1799
sL139959164252064L
g1808
sL139959164293024L
g1825
sL139959163826128L
g1862
sL139959164292448L
g1892
sL139959176999024L
g1911
sL139959178826848L
g1923
sL139959178827280L
g1940
sL139959168184960L
g1955
sL139959164291536L
g1964
sL139959163876976L
g1973
sL139959163899968L
g1993
sL139959163878368L
g2013
sL139959163944768L
g2029
sL139959168076240L
g2727
sL139959163900688L
g2037
sL139959163900928L
g2047
sL139959168074512L
g563
sL139959163944720L
g877
sL139959163943808L
g643
sL139959163575600L
g2055
sL139959163574736L
g2073
sL139959163603360L
g2145
sL139959163602400L
g2223
sL139959164005728L
g813
sL139959164005968L
g2582
sL139959163901840L
g2249
sL139959163601680L
g2264
sL139959163581536L
g2273
sL139959163583696L
g0
(g1552
g2
Ntp2832
Rp2833
(dp2834
g17
g2275
sg19
(lp2835
g2277
ag2278
ag646
asg42
I00
sg43
Nsg2277
g0
(g44
g2
Ntp2836
Rp2837
(dp2838
g42
I00
sg48
I01
sg49
I01
sg50
VforRawToDigi
p2839
sbsg49
I00
sg2278
g0
(g614
g93
(lp2840
g0
(g233
g2
Ntp2841
Rp2842
(dp2843
g42
I00
sg48
I01
sg49
I00
sg19
(lp2844
g2287
ag2288
asg43
Nsg2287
g0
(g44
g2
Ntp2845
Rp2846
(dp2847
g42
I00
sg48
I01
sg49
I00
sg50
g2292
sbsg2288
g0
(g44
g2
Ntp2848
Rp2849
(dp2850
g42
I00
sg48
I01
sg49
I00
sg50
g59
sbsbag0
(g233
g2
Ntp2851
Rp2852
(dp2853
g42
I00
sg48
I01
sg49
I00
sg19
(lp2854
g2287
ag2288
asg43
Nsg2287
g0
(g44
g2
Ntp2855
Rp2856
(dp2857
g42
I00
sg48
I01
sg49
I00
sg50
g2303
sbsg2288
g0
(g44
g2
Ntp2858
Rp2859
(dp2860
g42
I00
sg48
I01
sg49
I00
sg50
g59
sbsbatp2861
Rp2862
(dp2863
g42
I00
sg48
I01
sg49
I00
sg103
I1
sbsg646
g0
(g44
g2
Ntp2864
Rp2865
(dp2866
g42
I00
sg48
I01
sg49
I01
sg50
g2839
sbsg139
V/cvmfs/cms.cern.ch/el9_amd64_gcc12/cms/cmssw/CMSSW_14_1_0/src/CalibTracker/SiPixelESProducers/python/siPixelQualityForRawToDigiESProducer_cfi.py
p2867
sg141
I5
sg142
NsbsL139959164047264L
g2315
sL139959164045584L
g2358
sL139959164046352L
g2411
sL139959163582160L
g2450
sL139959164005920L
g2556
sL139959163573680L
g2562
sL139959163678240L
g15
sL139959163678288L
g2754
sL139959166506080L
g181
sL139959163716368L
g2777
sL139959163716272L
g2791
sL139959163716512L
g2806
sL139959163715744L
g210
sL139959163716080L
g202
ssV_Process__InExtendCall
p2868
I00
sV_Process__partialschedules
p2869
(dp2870
sV_Process__isStrict
p2871
I00
sV_Process__modifiers
p2872
(g0
(cFWCore.ParameterSet.Config
ModifierChain
p2873
g2
Ntp2874
Rp2875
(dp2876
V_ModifierChain__chosen
p2877
I01
sV_ModifierChain__chain
p2878
(g0
(g2873
g2
Ntp2879
Rp2880
(dp2881
g2877
I01
sg2878
(g0
(g2873
g2
Ntp2882
Rp2883
(dp2884
g2877
I01
sg2878
(g0
(g2873
g2
Ntp2885
Rp2886
(dp2887
g2877
I01
sg2878
(g0
(cFWCore.ParameterSet.Config
Modifier
p2888
g2
Ntp2889
Rp2890
(dp2891
V_Modifier__processModifiers
p2892
(lp2893
sV_Modifier__chosen
p2894
I01
sbg0
(g2888
g2
Ntp2895
Rp2896
(dp2897
g2892
(lp2898
sg2894
I01
sbg0
(g2888
g2
Ntp2899
Rp2900
(dp2901
g2892
(lp2902
sg2894
I01
sbg0
(g2888
g2
Ntp2903
Rp2904
(dp2905
g2892
(lp2906
sg2894
I01
sbg0
(g2888
g2
Ntp2907
Rp2908
(dp2909
g2892
(lp2910
sg2894
I01
sbtp2911
sbg0
(g2888
g2
Ntp2912
Rp2913
(dp2914
g2892
(lp2915
sg2894
I01
sbg0
(g2888
g2
Ntp2916
Rp2917
(dp2918
g2892
(lp2919
sg2894
I01
sbg0
(g2888
g2
Ntp2920
Rp2921
(dp2922
g2892
(lp2923
sg2894
I01
sbg0
(g2888
g2
Ntp2924
Rp2925
(dp2926
g2892
(lp2927
sg2894
I01
sbg0
(g2888
g2
Ntp2928
Rp2929
(dp2930
g2892
(lp2931
sg2894
I01
sbg0
(g2888
g2
Ntp2932
Rp2933
(dp2934
g2892
(lp2935
sg2894
I01
sbg0
(g2888
g2
Ntp2936
Rp2937
(dp2938
g2892
(lp2939
sg2894
I01
sbg0
(g2873
g2
Ntp2940
Rp2941
(dp2942
g2877
I01
sg2878
(g0
(g2888
g2
Ntp2943
Rp2944
(dp2945
g2892
(lp2946
sg2894
I01
sbg0
(g2888
g2
Ntp2947
Rp2948
(dp2949
g2892
(lp2950
sg2894
I01
sbg0
(g2888
g2
Ntp2951
Rp2952
(dp2953
g2892
(lp2954
sg2894
I01
sbg0
(g2888
g2
Ntp2955
Rp2956
(dp2957
g2892
(lp2958
sg2894
I01
sbg0
(g2888
g2
Ntp2959
Rp2960
(dp2961
g2892
(lp2962
sg2894
I01
sbg0
(g2888
g2
Ntp2963
Rp2964
(dp2965
g2892
(lp2966
sg2894
I01
sbg0
(g2888
g2
Ntp2967
Rp2968
(dp2969
g2892
(lp2970
sg2894
I01
sbtp2971
sbg0
(g2888
g2
Ntp2972
Rp2973
(dp2974
g2892
(lp2975
sg2894
I01
sbg0
(g2888
g2
Ntp2976
Rp2977
(dp2978
g2892
(lp2979
sg2894
I01
sbg0
(g2888
g2
Ntp2980
Rp2981
(dp2982
g2892
(lp2983
sg2894
I01
sbg0
(g2888
g2
Ntp2984
Rp2985
(dp2986
g2892
(lp2987
sg2894
I01
sbtp2988
sbg0
(g2888
g2
Ntp2989
Rp2990
(dp2991
g2892
(lp2992
sg2894
I01
sbg0
(g2888
g2
Ntp2993
Rp2994
(dp2995
g2892
(lp2996
sg2894
I01
sbg0
(g2888
g2
Ntp2997
Rp2998
(dp2999
g2892
(lp3000
sg2894
I01
sbg0
(g2888
g2
Ntp3001
Rp3002
(dp3003
g2892
(lp3004
sg2894
I01
sbg0
(g2888
g2
Ntp3005
Rp3006
(dp3007
g2892
(lp3008
sg2894
I01
sbg0
(g2888
g2
Ntp3009
Rp3010
(dp3011
g2892
(lp3012
sg2894
I01
sbg0
(g2888
g2
Ntp3013
Rp3014
(dp3015
g2892
(lp3016
sg2894
I01
sbg0
(g2888
g2
Ntp3017
Rp3018
(dp3019
g2892
(lp3020
sg2894
I01
sbtp3021
sbg0
(g2888
g2
Ntp3022
Rp3023
(dp3024
g2892
(lp3025
sg2894
I01
sbg0
(g2888
g2
Ntp3026
Rp3027
(dp3028
g2892
(lp3029
sg2894
I01
sbg0
(g2888
g2
Ntp3030
Rp3031
(dp3032
g2892
(lp3033
sg2894
I01
sbg0
(g2888
g2
Ntp3034
Rp3035
(dp3036
g2892
(lp3037
sg2894
I01
sbg0
(g2888
g2
Ntp3038
Rp3039
(dp3040
g2892
(lp3041
sg2894
I01
sbg0
(g2888
g2
Ntp3042
Rp3043
(dp3044
g2892
(lp3045
sg2894
I01
sbg0
(g2888
g2
Ntp3046
Rp3047
(dp3048
g2892
(lp3049
sg2894
I01
sbg0
(g2888
g2
Ntp3050
Rp3051
(dp3052
g2892
(lp3053
sg2894
I01
sbg0
(g2888
g2
Ntp3054
Rp3055
(dp3056
g2892
(lp3057
sg2894
I01
sbg0
(g2888
g2
Ntp3058
Rp3059
(dp3060
g2892
(lp3061
sg2894
I01
sbg0
(g2888
g2
Ntp3062
Rp3063
(dp3064
g2892
(lp3065
sg2894
I01
sbg0
(g2888
g2
Ntp3066
Rp3067
(dp3068
g2892
(lp3069
sg2894
I01
sbtp3070
sbtp3071
sV_Process__accelerators
p3072
(dp3073
sg2590
g2592
sg2716
g2718
sg290
g293
sg1551
g1554
sg1596
g1598
sg1612
g1614
sg1617
g1619
sg1625
g1627
sg1633
g1635
sg1641
g1643
sg1678
g1680
sg1686
g1688
sg1691
g1693
sg1699
g1701
sg1707
g1709
sg1717
g1719
sg1722
g1724
sg1727
g1729
sg1735
g1737
sg1740
g1742
sg1751
g1753
sg1760
g1762
sg1769
g1771
sg538
g541
sg1777
g1779
sg1788
g1790
sg1797
g1799
sg1806
g1808
sg1823
g1825
sg1860
g1862
sg1890
g1892
sg1909
g1911
sg1921
g1923
sg1938
g1940
sg1953
g1955
sg1962
g1964
sg1971
g1973
sg1991
g1993
sg2011
g2013
sg2027
g2029
sg2725
g2727
sg2035
g2037
sg2045
g2047
sg561
g563
sg825
g877
sg641
g643
sg2053
g2055
sg2071
g2073
sg2143
g2145
sg2221
g2223
sg811
g813
sg2579
g2582
sg2247
g2249
sg2262
g2264
sg2271
g2273
sg2313
g2315
sg2356
g2358
sg2409
g2411
sg2448
g2450
sg2554
g2556
sg2560
g2562
sg12
g15
sg2752
g2754
sVsource
p3074
g148
sg150
g148
sg199
g181
sg2775
g2777
sg2789
g2791
sg2804
g2806
sg243
g210
sg195
g202
sVschedule
p3075
g250
sb.