ccopy_reg
_reconstructor
p0
(cFWCore.ParameterSet.Config
Process
p1
c__builtin__
object
p2
Ntp3
Rp4
(dp5
V_Process__name
p6
VRPCTnP
p7
sV_Process__filters
p8
(dp9
sV_Process__producers
p10
(dp11
VmuRPCTnPFlatTableProducer
p12
g0
(cFWCore.ParameterSet.Modules
EDProducer
p13
g2
Ntp14
Rp15
(dp16
V_TypedParameterizable__type
p17
VMuRPCTnPFlatTableProducer
p18
sV_Parameterizable__parameterNames
p19
(lp20
Vname
p21
aVprimaryVertexCollectionTag
p22
aVtriggerResultsTag
p23
aVtriggerEventTag
p24
aVmuonCollectionTag
p25
aVrpcRecHitCollectionTag
p26
aVtagMuonMinPt
p27
aVtagMuonMaxAbsEta
p28
aVtagMuonIdType
p29
aVtagMuonMaxRelIso
p30
aVtagMuonTriggerMatchingPaths
p31
aVtagMuonTriggerMatchingMaxDeltaR
p32
aVtagMuonTriggerMatchingMaxDeltaPtRel
p33
aVprobeMuonMinPt
p34
aVprobeMuonMaxAbsEta
p35
aVprobeMuonIdType
p36
aVdimuonCheckOppositeSign
p37
aVdimuonMinDeltaR
p38
aVdimuonMinMass
p39
aVdimuonMaxMass
p40
aVmightGet
p41
asV_isFrozen
p42
I00
sV_Parameterizable__validator
p43
Nsg21
g0
(cFWCore.ParameterSet.Types
string
p44
g2
Ntp45
Rp46
(dp47
g42
I00
sV_ParameterTypeBase__isTracked
p48
I01
sV_isModified
p49
I00
sV_value
p50
VrpcTnP
p51
sbsg49
I01
sg22
g0
(cFWCore.ParameterSet.Types
InputTag
p52
g2
Ntp53
Rp54
(dp55
g42
I00
sg48
I01
sg49
I00
sV_InputTag__moduleLabel
p56
VofflinePrimaryVertices
p57
sV_InputTag__productInstance
p58
V
p59
sV_InputTag__processName
p60
g59
sbsg23
g0
(g52
g2
Ntp61
Rp62
(dp63
g42
I00
sg48
I01
sg49
I00
sg56
VTriggerResults
p64
sg58
g59
sg60
VHLT
p65
sbsg24
g0
(g52
g2
Ntp66
Rp67
(dp68
g42
I00
sg48
I01
sg49
I00
sg56
VhltTriggerSummaryAOD
p69
sg58
g59
sg60
g65
sbsg25
g0
(g52
g2
Ntp70
Rp71
(dp72
g42
I00
sg48
I01
sg49
I00
sg56
Vmuons
p73
sg58
g59
sg60
g59
sbsg26
g0
(g52
g2
Ntp74
Rp75
(dp76
g42
I00
sg48
I01
sg49
I00
sg56
VrpcRecHits
p77
sg58
g59
sg60
g59
sbsg27
g0
(cFWCore.ParameterSet.Types
double
p78
g2
Ntp79
Rp80
(dp81
g42
I00
sg48
I01
sg49
I00
sg50
I30
sbsg28
g0
(g78
g2
Ntp82
Rp83
(dp84
g42
I00
sg48
I01
sg49
I00
sg50
F2.4
sbsg29
g0
(g44
g2
Ntp85
Rp86
(dp87
g42
I00
sg48
I01
sg49
I00
sg50
Vtight
p88
sbsg30
g0
(g78
g2
Ntp89
Rp90
(dp91
g42
I00
sg48
I01
sg49
I00
sg50
F0.25
sbsg31
g0
(cFWCore.ParameterSet.Types
vstring
p92
c__builtin__
list
p93
(lp94
VHLT_IsoMu24
p95
aVHLT_IsoMu27
p96
aVHLT_IsoMu30
p97
aVHLT_Mu50
p98
aVHLT_Mu55
p99
atp100
Rp101
(dp102
g42
I00
sg48
I01
sg49
I01
sV_nPerLine
p103
I1
sbsg32
g0
(g78
g2
Ntp104
Rp105
(dp106
g42
I00
sg48
I01
sg49
I00
sg50
F0.1
sbsg33
g0
(g78
g2
Ntp107
Rp108
(dp109
g42
I00
sg48
I01
sg49
I00
sg50
F0.5
sbsg34
g0
(g78
g2
Ntp110
Rp111
(dp112
g42
I00
sg48
I01
sg49
I00
sg50
I10
sbsg35
g0
(g78
g2
Ntp113
Rp114
(dp115
g42
I00
sg48
I01
sg49
I00
sg50
F2.1
sbsg36
g0
(g44
g2
Ntp116
Rp117
(dp118
g42
I00
sg48
I01
sg49
I00
sg50
Vtracker
p119
sbsg37
g0
(cFWCore.ParameterSet.Types
bool
p120
g2
Ntp121
Rp122
(dp123
g42
I00
sg48
I01
sg49
I00
sg50
I01
sbsg38
g0
(g78
g2
Ntp124
Rp125
(dp126
g42
I00
sg48
I01
sg49
I00
sg50
F0.1
sbsg39
g0
(g78
g2
Ntp127
Rp128
(dp129
g42
I00
sg48
I01
sg49
I00
sg50
I70
sbsg40
g0
(g78
g2
Ntp130
Rp131
(dp132
g42
I00
sg48
I01
sg49
I00
sg50
I110
sbsg41
g0
(cFWCore.ParameterSet.Types
_OptionalParameter
p133
g2
Ntp134
Rp135
(dp136
g42
I00
sg48
I00
sg49
I00
sV_ProxyParameter__type
p137
g92
sV_ProxyParameter__value
p138
NsbsV_filename
p139
V/afs/cern.ch/user/j/joshin/public/Efficiency/CMSSW_14_1_0_pre7/cfipython/el9_amd64_gcc12/DPGAnalysis/MuonTools/MuRPCTnPFlatTableProducer.py
p140
sV_lineNumber
p141
I4
sV_Labelable__label
p142
g12
sbssV_Process__switchproducers
p143
(dp144
sV_Process__source
p145
g0
(cFWCore.ParameterSet.Modules
Source
p146
g2
Ntp147
Rp148
(dp149
g17
VPoolSource
p150
sg19
(lp151
VfileNames
p152
aVsecondaryFileNames
p153
aVinputCommands
p154
asg42
I00
sg43
Nsg152
g0
(g92
g93
(lp155
tp156
Rp157
(dp158
g42
I00
sg48
I00
sg49
I00
sg103
I1
sbsg49
I00
sg153
g0
(g92
g93
(lp159
tp160
Rp161
(dp162
g42
I00
sg48
I00
sg49
I00
sg103
I1
sbsg154
g0
(g92
g93
(lp163
Vkeep *
p164
aVdrop TotemFEDInfos_totemT2Digis_TotemT2_RECO
p165
aVdrop TotemT2DigiedmNewDetSetVector_totemT2Digis_TotemT2_RECO
p166
aVdrop TotemVFATStatusedmDetSetVector_totemT2Digis_TotemT2_RECO
p167
aVdrop floatBXVector_gtStage2Digis_CICADAScore_RECO
p168
atp169
Rp170
(dp171
g42
I00
sg48
I00
sg49
I00
sg103
I1
sbsg139
V/cvmfs/cms.cern.ch/el9_amd64_gcc12/cms/cmssw/CMSSW_14_1_0_pre7/src/FWCore/ParameterSet/python/Modules.py
p172
sg141
I195
sbsV_Process__looper
p173
NsV_Process__subProcesses
p174
(lp175
sV_Process__schedule
p176
g0
(cFWCore.ParameterSet.SequenceTypes
Schedule
p177
g93
(lp178
g0
(cFWCore.ParameterSet.SequenceTypes
Path
p179
g2
Ntp180
Rp181
(dp182
g42
I00
sV_seq
p183
g0
(cFWCore.ParameterSet.SequenceTypes
_SequenceCollection
p184
g2
Ntp185
Rp186
(dp187
V_collection
p188
(lp189
g15
asbsg49
I00
sV_tasks
p190
g0
(cFWCore.ParameterSet.OrderedSet
OrderedSet
p191
g2
Ntp192
Rp193
(dp194
Vend
p195
(lp196
Nag196
ag196
asVmap
p197
(dp198
sbsg142
VrpcTnPPath
p199
sbag0
(cFWCore.ParameterSet.SequenceTypes
EndPath
p200
g2
Ntp201
Rp202
(dp203
g42
I00
sg183
g0
(g184
g2
Ntp204
Rp205
(dp206
g188
(lp207
g0
(cFWCore.ParameterSet.Modules
OutputModule
p208
g2
Ntp209
Rp210
(dp211
g17
VNanoAODOutputModule
p212
sg19
(lp213
VfileName
p214
aVoutputCommands
p215
aVSelectEvents
p216
asg42
I00
sg43
Nsg214
g0
(g44
g2
Ntp217
Rp218
(dp219
g42
I00
sg48
I00
sg49
I00
sg50
Voutput.root
p220
sbsg49
I00
sg215
g0
(g92
g93
(lp221
Vdrop *
p222
aVkeep nanoaodFlatTable_*Table_*_*
p223
aVkeep edmTriggerResults_*_*_*
p224
aVkeep String_*_genModel_*
p225
aVkeep nanoaodMergeableCounterTable_*Table_*_*
p226
aVkeep nanoaodUniqueString_nanoMetadata_*_*
p227
aVkeep nanoaodFlatTable_*_*_*
p228
atp229
Rp230
(dp231
g42
I00
sg48
I00
sg49
I00
sg103
I1
sbsg216
g0
(cFWCore.ParameterSet.Types
PSet
p232
g2
Ntp233
Rp234
(dp235
g42
I00
sg48
I00
sg49
I00
sg19
(lp236
g216
asg43
Nsg216
g0
(g92
g93
(lp237
g199
atp238
Rp239
(dp240
g42
I00
sg48
I01
sg49
I00
sg103
I1
sbsbsg139
V/afs/cern.ch/user/j/joshin/public/Efficiency/CMSSW_14_1_0_pre7/src/RPCDPGAnalysis/NanoAODTnP/test/muRPCTnPFlatTableProducer_cfg.py
p241
sg141
I52
sg142
Vout
p242
sbasbsg49
I00
sg190
g0
(g191
g2
Ntp243
Rp244
(dp245
g195
(lp246
Nag246
ag246
asg197
(dp247
sbsg142
g195
sbatp248
Rp249
(dp250
g42
I00
sg48
I01
sg49
I00
sg190
g0
(g191
g2
Ntp251
Rp252
(dp253
g195
(lp254
Nag254
ag254
asg197
(dp255
sbsbsV_Process__analyzers
p256
(dp257
sV_Process__outputmodules
p258
(dp259
g242
g210
ssV_Process__paths
p260
g0
(cFWCore.ParameterSet.DictTypes
SortedKeysDict
p261
c__builtin__
dict
p262
(dp263
g199
g181
stp264
Rp265
(dp266
Vlist
p267
(lp268
g199
asbsV_Process__endpaths
p269
g0
(g261
g262
(dp270
g195
g202
stp271
Rp272
(dp273
g267
(lp274
g195
asbsV_Process__finalpaths
p275
g0
(g261
g262
(dp276
tp277
Rp278
(dp279
g267
(lp280
sbsV_Process__sequences
p281
(dp282
sV_Process__tasks
p283
(dp284
sV_Process__conditionaltasks
p285
(dp286
sV_Process__services
p287
(dp288
VMessageLogger
p289
g0
(cFWCore.ParameterSet.Modules
Service
p290
g2
Ntp291
Rp292
(dp293
g17
g289
sg19
(lp294
VsuppressWarning
p295
aVsuppressFwkInfo
p296
aVsuppressInfo
p297
aVsuppressDebug
p298
aVdebugModules
p299
aVcout
p300
aVdefault
p301
aVcerr
p302
aVfiles
p303
asg42
I00
sg43
g0
(g133
g2
Ntp304
Rp305
(dp306
g42
I00
sg48
I00
sg49
I00
sg137
g0
(cFWCore.ParameterSet.Types
_PSetTemplate
p307
g2
Ntp308
Rp309
(dp310
V_pset
p311
g0
(g232
g2
Ntp312
Rp313
(dp314
g42
I00
sg48
I01
sg49
I00
sg19
(lp315
VreportEvery
p316
aVlimit
p317
aVtimespan
p318
asg43
Nsg316
g0
(cFWCore.ParameterSet.Types
int32
p319
g2
Ntp320
Rp321
(dp322
g42
I00
sg48
I00
sg49
I00
sg50
I1
sbsg317
g0
(g133
g2
Ntp323
Rp324
(dp325
g42
I00
sg48
I00
sg49
I00
sg137
g319
sg138
Nsbsg318
g0
(g133
g2
Ntp326
Rp327
(dp328
g42
I00
sg48
I00
sg49
I00
sg137
g319
sg138
Nsbsbsbsg138
Nsbsg295
g0
(g92
g93
(lp329
tp330
Rp331
(dp332
g42
I00
sg48
I00
sg49
I00
sg103
I1
sbsg49
I00
sg296
g0
(g92
g93
(lp333
tp334
Rp335
(dp336
g42
I00
sg48
I00
sg49
I00
sg103
I1
sbsg297
g0
(g92
g93
(lp337
tp338
Rp339
(dp340
g42
I00
sg48
I00
sg49
I00
sg103
I1
sbsg298
g0
(g92
g93
(lp341
tp342
Rp343
(dp344
g42
I00
sg48
I00
sg49
I00
sg103
I1
sbsg299
g0
(g92
g93
(lp345
tp346
Rp347
(dp348
g42
I00
sg48
I00
sg49
I00
sg103
I1
sbsg300
g0
(g232
g2
Ntp349
Rp350
(dp351
g42
I00
sg48
I00
sg49
I00
sg19
(lp352
VnoLineBreaks
p353
aVnoTimeStamps
p354
aVlineLength
p355
aVthreshold
p356
aVstatisticsThreshold
p357
aVenableStatistics
p358
aVresetStatistics
p359
aVenable
p360
asg43
g305
sg353
g0
(g133
g2
Ntp361
Rp362
(dp363
g42
I00
sg48
I00
sg49
I00
sg137
g120
sg138
Nsbsg354
g0
(g133
g2
Ntp364
Rp365
(dp366
g42
I00
sg48
I00
sg49
I00
sg137
g120
sg138
Nsbsg355
g0
(g133
g2
Ntp367
Rp368
(dp369
g42
I00
sg48
I00
sg49
I00
sg137
g319
sg138
Nsbsg356
g0
(g133
g2
Ntp370
Rp371
(dp372
g42
I00
sg48
I00
sg49
I00
sg137
g44
sg138
Nsbsg357
g0
(g133
g2
Ntp373
Rp374
(dp375
g42
I00
sg48
I00
sg49
I00
sg137
g44
sg138
Nsbsg358
g0
(g120
g2
Ntp376
Rp377
(dp378
g42
I00
sg48
I00
sg49
I00
sg50
I00
sbsg359
g0
(g120
g2
Ntp379
Rp380
(dp381
g42
I00
sg48
I00
sg49
I00
sg50
I00
sbsg360
g0
(g120
g2
Ntp382
Rp383
(dp384
g42
I00
sg48
I00
sg49
I00
sg50
I00
sbsbsg301
g0
(g232
g2
Ntp385
Rp386
(dp387
g42
I00
sg48
I00
sg49
I00
sg19
(lp388
g316
ag317
ag318
ag353
ag354
ag355
ag356
ag357
asg43
g305
sg316
g0
(g319
g2
Ntp389
Rp390
(dp391
g42
I00
sg48
I00
sg49
I00
sg50
I1
sbsg317
g0
(g133
g2
Ntp392
Rp393
(dp394
g42
I00
sg48
I00
sg49
I00
sg137
g319
sg138
Nsbsg318
g0
(g133
g2
Ntp395
Rp396
(dp397
g42
I00
sg48
I00
sg49
I00
sg137
g319
sg138
Nsbsg353
g0
(g120
g2
Ntp398
Rp399
(dp400
g42
I00
sg48
I00
sg49
I00
sg50
I00
sbsg354
g0
(g120
g2
Ntp401
Rp402
(dp403
g42
I00
sg48
I00
sg49
I00
sg50
I00
sbsg355
g0
(g319
g2
Ntp404
Rp405
(dp406
g42
I00
sg48
I00
sg49
I00
sg50
I80
sbsg356
g0
(g44
g2
Ntp407
Rp408
(dp409
g42
I00
sg48
I00
sg49
I00
sg50
VINFO
p410
sbsg357
g0
(g44
g2
Ntp411
Rp412
(dp413
g42
I00
sg48
I00
sg49
I00
sg50
g410
sbsbsg302
g0
(g232
g2
Ntp414
Rp415
(dp416
g42
I00
sg48
I00
sg49
I00
sg19
(lp417
g353
ag354
ag355
ag356
ag357
ag360
ag358
ag359
ag410
aVFwkReport
p418
ag301
aVRoot_NoDictionary
p419
aVFwkSummary
p420
asg43
g305
sg353
g0
(g133
g2
Ntp421
Rp422
(dp423
g42
I00
sg48
I00
sg49
I00
sg137
g120
sg138
Nsbsg354
g0
(g120
g2
Ntp424
Rp425
(dp426
g42
I00
sg48
I00
sg49
I00
sg50
I00
sbsg355
g0
(g133
g2
Ntp427
Rp428
(dp429
g42
I00
sg48
I00
sg49
I00
sg137
g319
sg138
Nsbsg356
g0
(g44
g2
Ntp430
Rp431
(dp432
g42
I00
sg48
I00
sg49
I00
sg50
g410
sbsg357
g0
(g44
g2
Ntp433
Rp434
(dp435
g42
I00
sg48
I00
sg49
I00
sg50
VWARNING
p436
sbsg360
g0
(g120
g2
Ntp437
Rp438
(dp439
g42
I00
sg48
I00
sg49
I00
sg50
I01
sbsg358
g0
(g120
g2
Ntp440
Rp441
(dp442
g42
I00
sg48
I00
sg49
I00
sg50
I00
sbsg359
g0
(g120
g2
Ntp443
Rp444
(dp445
g42
I00
sg48
I00
sg49
I00
sg50
I00
sbsg410
g0
(g232
g2
Ntp446
Rp447
(dp448
g42
I00
sg48
I00
sg49
I00
sg19
(lp449
g317
asg43
Nsg317
g0
(g319
g2
Ntp450
Rp451
(dp452
g42
I00
sg48
I00
sg49
I00
sg50
I0
sbsbsg418
g0
(g232
g2
Ntp453
Rp454
(dp455
g42
I00
sg48
I00
sg49
I00
sg19
(lp456
g316
ag317
asg43
Nsg316
g0
(g319
g2
Ntp457
Rp458
(dp459
g42
I00
sg48
I00
sg49
I00
sg50
I1
sbsg317
g0
(g319
g2
Ntp460
Rp461
(dp462
g42
I00
sg48
I00
sg49
I00
sg50
I10000000
sbsbsg301
g0
(g232
g2
Ntp463
Rp464
(dp465
g42
I00
sg48
I00
sg49
I00
sg19
(lp466
g317
asg43
Nsg317
g0
(g319
g2
Ntp467
Rp468
(dp469
g42
I00
sg48
I00
sg49
I00
sg50
I10000000
sbsbsg419
g0
(g232
g2
Ntp470
Rp471
(dp472
g42
I00
sg48
I00
sg49
I00
sg19
(lp473
g317
asg43
Nsg317
g0
(g319
g2
Ntp474
Rp475
(dp476
g42
I00
sg48
I00
sg49
I00
sg50
I0
sbsbsg420
g0
(g232
g2
Ntp477
Rp478
(dp479
g42
I00
sg48
I00
sg49
I00
sg19
(lp480
g316
ag317
asg43
Nsg316
g0
(g319
g2
Ntp481
Rp482
(dp483
g42
I00
sg48
I00
sg49
I00
sg50
I1
sbsg317
g0
(g319
g2
Ntp484
Rp485
(dp486
g42
I00
sg48
I00
sg49
I00
sg50
I10000000
sbsbsbsg303
g0
(g232
g2
Ntp487
Rp488
(dp489
g42
I00
sg48
I00
sg49
I00
sg19
(lp490
sg43
g0
(g133
g2
Ntp491
Rp492
(dp493
g42
I00
sg48
I00
sg49
I00
sg137
g0
(g307
g2
Ntp494
Rp495
(dp496
g311
g0
(g232
g2
Ntp497
Rp498
(dp499
g42
I00
sg48
I01
sg49
I00
sg19
(lp500
g353
ag354
ag355
ag356
ag357
ag358
ag359
aVfilename
p501
aVextension
p502
aVoutput
p503
asg43
g305
sg353
g0
(g133
g2
Ntp504
Rp505
(dp506
g42
I00
sg48
I00
sg49
I00
sg137
g120
sg138
Nsbsg354
g0
(g133
g2
Ntp507
Rp508
(dp509
g42
I00
sg48
I00
sg49
I00
sg137
g120
sg138
Nsbsg355
g0
(g133
g2
Ntp510
Rp511
(dp512
g42
I00
sg48
I00
sg49
I00
sg137
g319
sg138
Nsbsg356
g0
(g133
g2
Ntp513
Rp514
(dp515
g42
I00
sg48
I00
sg49
I00
sg137
g44
sg138
Nsbsg357
g0
(g133
g2
Ntp516
Rp517
(dp518
g42
I00
sg48
I00
sg49
I00
sg137
g44
sg138
Nsbsg358
g0
(g120
g2
Ntp519
Rp520
(dp521
g42
I00
sg48
I00
sg49
I00
sg50
I00
sbsg359
g0
(g120
g2
Ntp522
Rp523
(dp524
g42
I00
sg48
I00
sg49
I00
sg50
I00
sbsg501
g0
(g133
g2
Ntp525
Rp526
(dp527
g42
I00
sg48
I00
sg49
I00
sg137
g44
sg138
Nsbsg502
g0
(g133
g2
Ntp528
Rp529
(dp530
g42
I00
sg48
I00
sg49
I00
sg137
g44
sg138
Nsbsg503
g0
(g133
g2
Ntp531
Rp532
(dp533
g42
I00
sg48
I00
sg49
I00
sg137
g44
sg138
Nsbsbsbsg138
Nsbsbsg139
g172
sg141
I13
sV_inProcess
p534
I00
sbssV_Process__essources
p535
(dp536
Veegeom
p537
g0
(cFWCore.ParameterSet.Modules
ESSource
p538
g2
Ntp539
Rp540
(dp541
g17
VEmptyESSource
p542
sg19
(lp543
VrecordName
p544
aViovIsRunNotTime
p545
aVfirstValid
p546
asg42
I00
sg43
Nsg544
g0
(g44
g2
Ntp547
Rp548
(dp549
g42
I00
sg48
I01
sg49
I00
sg50
VEcalMappingRcd
p550
sbsg49
I00
sg545
g0
(g120
g2
Ntp551
Rp552
(dp553
g42
I00
sg48
I01
sg49
I00
sg50
I01
sbsg546
g0
(cFWCore.ParameterSet.Types
vuint32
p554
g93
(lp555
I1
atp556
Rp557
(dp558
g42
I00
sg48
I01
sg49
I00
sbsg139
V/cvmfs/cms.cern.ch/el9_amd64_gcc12/cms/cmssw/CMSSW_14_1_0_pre7/src/Geometry/EcalMapping/python/EcalMappingRecord_cfi.py
p559
sg141
I3
sg142
g537
sbsVGlobalTag
p560
g0
(g538
g2
Ntp561
Rp562
(dp563
g17
VPoolDBESSource
p564
sg19
(lp565
VDBParameters
p566
aVconnect
p567
aVglobaltag
p568
aVsnapshotTime
p569
aVtoGet
p570
aVDumpStat
p571
aVReconnectEachRun
p572
aVRefreshAlways
p573
aVRefreshEachRun
p574
aVRefreshOpenIOVs
p575
aVpfnPostfix
p576
aVpfnPrefix
p577
asg42
I00
sg43
Nsg566
g0
(g232
g2
Ntp578
Rp579
(dp580
g42
I00
sg48
I01
sg49
I00
sg19
(lp581
VauthenticationPath
p582
aVauthenticationSystem
p583
aVsecurity
p584
aVmessageLevel
p585
aVconnectionTimeout
p586
asg43
Nsg582
g0
(g44
g2
Ntp587
Rp588
(dp589
g42
I00
sg48
I00
sg49
I00
sg50
g59
sbsg583
g0
(g319
g2
Ntp590
Rp591
(dp592
g42
I00
sg48
I00
sg49
I00
sg50
I0
sbsg584
g0
(g44
g2
Ntp593
Rp594
(dp595
g42
I00
sg48
I00
sg49
I00
sg50
g59
sbsg585
g0
(g319
g2
Ntp596
Rp597
(dp598
g42
I00
sg48
I00
sg49
I00
sg50
I0
sbsg586
g0
(g319
g2
Ntp599
Rp600
(dp601
g42
I00
sg48
I00
sg49
I00
sg50
I0
sbsbsg49
I01
sg567
g0
(g44
g2
Ntp602
Rp603
(dp604
g42
I00
sg48
I01
sg49
I00
sg50
Vfrontier://FrontierProd/CMS_CONDITIONS
p605
sbsg568
g0
(g44
g2
Ntp606
Rp607
(dp608
g42
I00
sg48
I01
sg49
I01
sg50
V140X_dataRun3_v4
p609
sbsg569
g0
(g44
g2
Ntp610
Rp611
(dp612
g42
I00
sg48
I01
sg49
I00
sg50
g59
sbsg570
g0
(cFWCore.ParameterSet.Types
VPSet
p613
g93
(lp614
tp615
Rp616
(dp617
g42
I00
sg48
I01
sg49
I00
sg103
I1
sbsg571
g0
(g120
g2
Ntp618
Rp619
(dp620
g42
I00
sg48
I00
sg49
I00
sg50
I00
sbsg572
g0
(g120
g2
Ntp621
Rp622
(dp623
g42
I00
sg48
I00
sg49
I00
sg50
I00
sbsg573
g0
(g120
g2
Ntp624
Rp625
(dp626
g42
I00
sg48
I00
sg49
I00
sg50
I00
sbsg574
g0
(g120
g2
Ntp627
Rp628
(dp629
g42
I00
sg48
I00
sg49
I00
sg50
I00
sbsg575
g0
(g120
g2
Ntp630
Rp631
(dp632
g42
I00
sg48
I00
sg49
I00
sg50
I00
sbsg576
g0
(g44
g2
Ntp633
Rp634
(dp635
g42
I00
sg48
I00
sg49
I00
sg50
g59
sbsg577
g0
(g44
g2
Ntp636
Rp637
(dp638
g42
I00
sg48
I00
sg49
I00
sg50
g59
sbsg139
V/cvmfs/cms.cern.ch/el9_amd64_gcc12/cms/cmssw/CMSSW_14_1_0_pre7/src/CondCore/ESSources/python/CondDBESSource_cfi.py
p639
sg141
I8
sg142
g560
sbsVHcalTimeSlewEP
p640
g0
(g538
g2
Ntp641
Rp642
(dp643
g17
g640
sg19
(lp644
VappendToDataLabel
p645
aVtimeSlewParametersM2
p646
aVtimeSlewParametersM3
p647
asg42
I00
sg43
Nsg645
g0
(g44
g2
Ntp648
Rp649
(dp650
g42
I00
sg48
I01
sg49
I00
sg50
VHBHE
p651
sbsg49
I00
sg646
g0
(g613
g93
(lp652
g0
(g232
g2
Ntp653
Rp654
(dp655
g42
I00
sg48
I01
sg49
I00
sg19
(lp656
Vtzero
p657
aVslope
p658
aVtmax
p659
asg43
Nsg657
g0
(g78
g2
Ntp660
Rp661
(dp662
g42
I00
sg48
I01
sg49
I00
sg50
F23.960177
sbsg658
g0
(g78
g2
Ntp663
Rp664
(dp665
g42
I00
sg48
I01
sg49
I00
sg50
F-3.178648
sbsg659
g0
(g78
g2
Ntp666
Rp667
(dp668
g42
I00
sg48
I01
sg49
I00
sg50
F16.0
sbsbag0
(g232
g2
Ntp669
Rp670
(dp671
g42
I00
sg48
I01
sg49
I00
sg19
(lp672
g657
ag658
ag659
asg43
Nsg657
g0
(g78
g2
Ntp673
Rp674
(dp675
g42
I00
sg48
I01
sg49
I00
sg50
F11.977461
sbsg658
g0
(g78
g2
Ntp676
Rp677
(dp678
g42
I00
sg48
I01
sg49
I00
sg50
F-1.5610227
sbsg659
g0
(g78
g2
Ntp679
Rp680
(dp681
g42
I00
sg48
I01
sg49
I00
sg50
F10.0
sbsbag0
(g232
g2
Ntp682
Rp683
(dp684
g42
I00
sg48
I01
sg49
I00
sg19
(lp685
g657
ag658
ag659
asg43
Nsg657
g0
(g78
g2
Ntp686
Rp687
(dp688
g42
I00
sg48
I01
sg49
I00
sg50
F9.109694
sbsg658
g0
(g78
g2
Ntp689
Rp690
(dp691
g42
I00
sg48
I01
sg49
I00
sg50
F-1.075824
sbsg659
g0
(g78
g2
Ntp692
Rp693
(dp694
g42
I00
sg48
I01
sg49
I00
sg50
F6.25
sbsbatp695
Rp696
(dp697
g42
I00
sg48
I01
sg49
I00
sg103
I1
sbsg647
g0
(g613
g93
(lp698
g0
(g232
g2
Ntp699
Rp700
(dp701
g42
I00
sg48
I01
sg49
I00
sg19
(lp702
Vcap
p703
aVtspar0
p704
aVtspar1
p705
aVtspar2
p706
aVtspar0_siPM
p707
aVtspar1_siPM
p708
aVtspar2_siPM
p709
asg43
Nsg703
g0
(g78
g2
Ntp710
Rp711
(dp712
g42
I00
sg48
I01
sg49
I00
sg50
F6.0
sbsg704
g0
(g78
g2
Ntp713
Rp714
(dp715
g42
I00
sg48
I01
sg49
I00
sg50
F12.2999
sbsg705
g0
(g78
g2
Ntp716
Rp717
(dp718
g42
I00
sg48
I01
sg49
I00
sg50
F-2.19142
sbsg706
g0
(g78
g2
Ntp719
Rp720
(dp721
g42
I00
sg48
I01
sg49
I00
sg50
F0.0
sbsg707
g0
(g78
g2
Ntp722
Rp723
(dp724
g42
I00
sg48
I01
sg49
I00
sg50
F0.0
sbsg708
g0
(g78
g2
Ntp725
Rp726
(dp727
g42
I00
sg48
I01
sg49
I00
sg50
F0.0
sbsg709
g0
(g78
g2
Ntp728
Rp729
(dp730
g42
I00
sg48
I01
sg49
I00
sg50
F0.0
sbsbag0
(g232
g2
Ntp731
Rp732
(dp733
g42
I00
sg48
I01
sg49
I00
sg19
(lp734
g703
ag704
ag705
ag706
ag707
ag708
ag709
asg43
Nsg703
g0
(g78
g2
Ntp735
Rp736
(dp737
g42
I00
sg48
I01
sg49
I00
sg50
F6.0
sbsg704
g0
(g78
g2
Ntp738
Rp739
(dp740
g42
I00
sg48
I01
sg49
I00
sg50
F15.5
sbsg705
g0
(g78
g2
Ntp741
Rp742
(dp743
g42
I00
sg48
I01
sg49
I00
sg50
F-3.2
sbsg706
g0
(g78
g2
Ntp744
Rp745
(dp746
g42
I00
sg48
I01
sg49
I00
sg50
F32.0
sbsg707
g0
(g78
g2
Ntp747
Rp748
(dp749
g42
I00
sg48
I01
sg49
I00
sg50
F0.0
sbsg708
g0
(g78
g2
Ntp750
Rp751
(dp752
g42
I00
sg48
I01
sg49
I00
sg50
F0.0
sbsg709
g0
(g78
g2
Ntp753
Rp754
(dp755
g42
I00
sg48
I01
sg49
I00
sg50
F0.0
sbsbag0
(g232
g2
Ntp756
Rp757
(dp758
g42
I00
sg48
I01
sg49
I00
sg19
(lp759
g703
ag704
ag705
ag706
ag707
ag708
ag709
asg43
Nsg703
g0
(g78
g2
Ntp760
Rp761
(dp762
g42
I00
sg48
I01
sg49
I00
sg50
F6.0
sbsg704
g0
(g78
g2
Ntp763
Rp764
(dp765
g42
I00
sg48
I01
sg49
I00
sg50
F12.2999
sbsg705
g0
(g78
g2
Ntp766
Rp767
(dp768
g42
I00
sg48
I01
sg49
I00
sg50
F-2.19142
sbsg706
g0
(g78
g2
Ntp769
Rp770
(dp771
g42
I00
sg48
I01
sg49
I00
sg50
F0.0
sbsg707
g0
(g78
g2
Ntp772
Rp773
(dp774
g42
I00
sg48
I01
sg49
I00
sg50
F0.0
sbsg708
g0
(g78
g2
Ntp775
Rp776
(dp777
g42
I00
sg48
I01
sg49
I00
sg50
F0.0
sbsg709
g0
(g78
g2
Ntp778
Rp779
(dp780
g42
I00
sg48
I01
sg49
I00
sg50
F0.0
sbsbag0
(g232
g2
Ntp781
Rp782
(dp783
g42
I00
sg48
I01
sg49
I00
sg19
(lp784
g703
ag704
ag705
ag706
ag707
ag708
ag709
asg43
Nsg703
g0
(g78
g2
Ntp785
Rp786
(dp787
g42
I00
sg48
I01
sg49
I00
sg50
F6.0
sbsg704
g0
(g78
g2
Ntp788
Rp789
(dp790
g42
I00
sg48
I01
sg49
I00
sg50
F12.2999
sbsg705
g0
(g78
g2
Ntp791
Rp792
(dp793
g42
I00
sg48
I01
sg49
I00
sg50
F-2.19142
sbsg706
g0
(g78
g2
Ntp794
Rp795
(dp796
g42
I00
sg48
I01
sg49
I00
sg50
F0.0
sbsg707
g0
(g78
g2
Ntp797
Rp798
(dp799
g42
I00
sg48
I01
sg49
I00
sg50
F0.0
sbsg708
g0
(g78
g2
Ntp800
Rp801
(dp802
g42
I00
sg48
I01
sg49
I00
sg50
F0.0
sbsg709
g0
(g78
g2
Ntp803
Rp804
(dp805
g42
I00
sg48
I01
sg49
I00
sg50
F0.0
sbsbatp806
Rp807
(dp808
g42
I00
sg48
I01
sg49
I00
sg103
I1
sbsg139
V/cvmfs/cms.cern.ch/el9_amd64_gcc12/cms/cmssw/CMSSW_14_1_0_pre7/src/CalibCalorimetry/HcalPlugins/python/HcalTimeSlew_cff.py
p809
sg141
I3
sg142
g640
sbsVes_hardcode
p810
g0
(g538
g2
Ntp811
Rp812
(dp813
g17
VHcalHardcodeCalibrations
p814
sg19
(lp815
g570
aViLumi
p816
aVHBRecalibration
p817
aVHBreCalibCutoff
p818
aVHBmeanenergies
p819
aVHERecalibration
p820
aVHEreCalibCutoff
p821
aVHEmeanenergies
p822
aVHFRecalibration
p823
aVHFRecalParameterBlock
p824
aVGainWidthsForTrigPrims
p825
aVuseHBUpgrade
p826
aVuseHEUpgrade
p827
aVuseHFUpgrade
p828
aVuseHOUpgrade
p829
aVtestHFQIE10
p830
aVtestHEPlan1
p831
aVkillHE
p832
aVuseLayer0Weight
p833
aVuseIeta18depth1
p834
aVhb
p835
aVhe
p836
aVhf
p837
aVho
p838
aVhbUpgrade
p839
aVheUpgrade
p840
aVhfUpgrade
p841
aVSiPMCharacteristics
p842
asg42
I00
sg43
Nsg570
g0
(g92
g93
(lp843
VGainWidths
p844
atp845
Rp846
(dp847
g42
I00
sg48
I00
sg49
I00
sg103
I1
sbsg49
I01
sg816
g0
(g78
g2
Ntp848
Rp849
(dp850
g42
I00
sg48
I01
sg49
I00
sg50
F-1.0
sbsg817
g0
(g120
g2
Ntp851
Rp852
(dp853
g42
I00
sg48
I01
sg49
I00
sg50
I00
sbsg818
g0
(g78
g2
Ntp854
Rp855
(dp856
g42
I00
sg48
I01
sg49
I00
sg50
F100.0
sbsg819
g0
(cFWCore.ParameterSet.Types
FileInPath
p857
g2
Ntp858
Rp859
(dp860
g42
I00
sg48
I01
sg49
I00
sg50
VCalibCalorimetry/HcalPlugins/data/meanenergiesHB.txt
p861
sbsg820
g0
(g120
g2
Ntp862
Rp863
(dp864
g42
I00
sg48
I01
sg49
I00
sg50
I00
sbsg821
g0
(g78
g2
Ntp865
Rp866
(dp867
g42
I00
sg48
I01
sg49
I00
sg50
F100.0
sbsg822
g0
(g857
g2
Ntp868
Rp869
(dp870
g42
I00
sg48
I01
sg49
I00
sg50
VCalibCalorimetry/HcalPlugins/data/meanenergiesHE.txt
p871
sbsg823
g0
(g120
g2
Ntp872
Rp873
(dp874
g42
I00
sg48
I01
sg49
I00
sg50
I00
sbsg824
g0
(g232
g2
Ntp875
Rp876
(dp877
g42
I00
sg48
I01
sg49
I00
sg19
(lp878
VHFdepthOneParameterA
p879
aVHFdepthOneParameterB
p880
aVHFdepthTwoParameterA
p881
aVHFdepthTwoParameterB
p882
asg43
Nsg879
g0
(cFWCore.ParameterSet.Types
vdouble
p883
g93
(lp884
F0.004123
aF0.00602
aF0.008201
aF0.010489
aF0.013379
aF0.016997
aF0.021464
aF0.027371
aF0.034195
aF0.044807
aF0.058939
aF0.125497
atp885
Rp886
(dp887
g42
I00
sg48
I01
sg49
I00
sbsg880
g0
(g883
g93
(lp888
F-4e-06
aF-2e-06
aF0.0
aF4e-06
aF1.5e-05
aF2.6e-05
aF6.3e-05
aF8.4e-05
aF0.00016
aF0.000107
aF0.000425
aF0.000209
atp889
Rp890
(dp891
g42
I00
sg48
I01
sg49
I00
sbsg881
g0
(g883
g93
(lp892
F0.002861
aF0.004168
aF0.0064
aF0.008388
aF0.011601
aF0.014425
aF0.018633
aF0.023232
aF0.028274
aF0.035447
aF0.051579
aF0.086593
atp893
Rp894
(dp895
g42
I00
sg48
I01
sg49
I00
sbsg882
g0
(g883
g93
(lp896
F-2e-06
aF-0.0
aF-7e-06
aF-6e-06
aF-2e-06
aF1e-06
aF1.9e-05
aF3.1e-05
aF6.7e-05
aF1.2e-05
aF0.000157
aF-3e-06
atp897
Rp898
(dp899
g42
I00
sg48
I01
sg49
I00
sbsg142
g824
sbsg825
g0
(g120
g2
Ntp900
Rp901
(dp902
g42
I00
sg48
I01
sg49
I00
sg50
I00
sbsg826
g0
(g120
g2
Ntp903
Rp904
(dp905
g42
I00
sg48
I01
sg49
I00
sg50
I01
sbsg827
g0
(g120
g2
Ntp906
Rp907
(dp908
g42
I00
sg48
I01
sg49
I00
sg50
I01
sbsg828
g0
(g120
g2
Ntp909
Rp910
(dp911
g42
I00
sg48
I01
sg49
I00
sg50
I01
sbsg829
g0
(g120
g2
Ntp912
Rp913
(dp914
g42
I00
sg48
I01
sg49
I00
sg50
I01
sbsg830
g0
(g120
g2
Ntp915
Rp916
(dp917
g42
I00
sg48
I01
sg49
I00
sg50
I00
sbsg831
g0
(g120
g2
Ntp918
Rp919
(dp920
g42
I00
sg48
I01
sg49
I00
sg50
I00
sbsg832
g0
(g120
g2
Ntp921
Rp922
(dp923
g42
I00
sg48
I01
sg49
I00
sg50
I00
sbsg833
g0
(g120
g2
Ntp924
Rp925
(dp926
g42
I00
sg48
I01
sg49
I00
sg50
I01
sbsg834
g0
(g120
g2
Ntp927
Rp928
(dp929
g42
I00
sg48
I01
sg49
I00
sg50
I00
sbsg835
g0
(g232
g2
Ntp930
Rp931
(dp932
g42
I00
sg48
I01
sg49
I00
sg19
(lp933
Vpedestal
p934
aVpedestalWidth
p935
aVgain
p936
aVgainWidth
p937
aVzsThreshold
p938
aVqieType
p939
aVqieOffset
p940
aVqieSlope
p941
aVmcShape
p942
aVrecoShape
p943
aVphotoelectronsToAnalog
p944
aVdarkCurrent
p945
aVnoiseCorrelation
p946
aVnoiseThreshold
p947
aVseedThreshold
p948
aVdoRadiationDamage
p949
asg43
Nsg934
g0
(g78
g2
Ntp950
Rp951
(dp952
g42
I00
sg48
I01
sg49
I00
sg50
F3.285
sbsg935
g0
(g78
g2
Ntp953
Rp954
(dp955
g42
I00
sg48
I01
sg49
I00
sg50
F0.809
sbsg936
g0
(g883
g93
(lp956
F0.19
atp957
Rp958
(dp959
g42
I00
sg48
I01
sg49
I00
sbsg937
g0
(g883
g93
(lp960
F0.0
atp961
Rp962
(dp963
g42
I00
sg48
I01
sg49
I00
sbsg938
g0
(g319
g2
Ntp964
Rp965
(dp966
g42
I00
sg48
I01
sg49
I00
sg50
I8
sbsg939
g0
(g319
g2
Ntp967
Rp968
(dp969
g42
I00
sg48
I01
sg49
I00
sg50
I0
sbsg940
g0
(g883
g93
(lp970
F-0.49
aF1.8
aF7.2
aF37.9
atp971
Rp972
(dp973
g42
I00
sg48
I01
sg49
I00
sbsg941
g0
(g883
g93
(lp974
F0.912
aF0.917
aF0.922
aF0.923
atp975
Rp976
(dp977
g42
I00
sg48
I01
sg49
I00
sbsg942
g0
(g319
g2
Ntp978
Rp979
(dp980
g42
I00
sg48
I01
sg49
I00
sg50
I125
sbsg943
g0
(g319
g2
Ntp981
Rp982
(dp983
g42
I00
sg48
I01
sg49
I00
sg50
I105
sbsg944
g0
(g78
g2
Ntp984
Rp985
(dp986
g42
I00
sg48
I01
sg49
I00
sg50
F0.3305
sbsg945
g0
(g883
g93
(lp987
F0.0
atp988
Rp989
(dp990
g42
I00
sg48
I01
sg49
I00
sbsg946
g0
(g883
g93
(lp991
F0.0
atp992
Rp993
(dp994
g42
I00
sg48
I01
sg49
I00
sbsg947
g0
(g78
g2
Ntp995
Rp996
(dp997
g42
I00
sg48
I01
sg49
I00
sg50
F0.0
sbsg948
g0
(g78
g2
Ntp998
Rp999
(dp1000
g42
I00
sg48
I01
sg49
I00
sg50
F0.1
sbsg949
g0
(g120
g2
Ntp1001
Rp1002
(dp1003
g42
I00
sg48
I01
sg49
I00
sg50
I00
sbsbsg836
g0
(g232
g2
Ntp1004
Rp1005
(dp1006
g42
I00
sg48
I01
sg49
I00
sg19
(lp1007
g934
ag935
ag936
ag937
ag938
ag939
ag940
ag941
ag942
ag943
ag944
ag945
ag946
ag947
ag948
ag949
asg43
Nsg934
g0
(g78
g2
Ntp1008
Rp1009
(dp1010
g42
I00
sg48
I01
sg49
I00
sg50
F3.163
sbsg935
g0
(g78
g2
Ntp1011
Rp1012
(dp1013
g42
I00
sg48
I01
sg49
I00
sg50
F0.9698
sbsg936
g0
(g883
g93
(lp1014
F0.23
atp1015
Rp1016
(dp1017
g42
I00
sg48
I01
sg49
I00
sbsg937
g0
(g883
g93
(lp1018
I0
atp1019
Rp1020
(dp1021
g42
I00
sg48
I01
sg49
I00
sbsg938
g0
(g319
g2
Ntp1022
Rp1023
(dp1024
g42
I00
sg48
I01
sg49
I00
sg50
I9
sbsg939
g0
(g319
g2
Ntp1025
Rp1026
(dp1027
g42
I00
sg48
I01
sg49
I00
sg50
I0
sbsg940
g0
(g883
g93
(lp1028
F-0.38
aF2.0
aF7.6
aF39.6
atp1029
Rp1030
(dp1031
g42
I00
sg48
I01
sg49
I00
sbsg941
g0
(g883
g93
(lp1032
F0.912
aF0.916
aF0.92
aF0.922
atp1033
Rp1034
(dp1035
g42
I00
sg48
I01
sg49
I00
sbsg942
g0
(g319
g2
Ntp1036
Rp1037
(dp1038
g42
I00
sg48
I01
sg49
I00
sg50
I125
sbsg943
g0
(g319
g2
Ntp1039
Rp1040
(dp1041
g42
I00
sg48
I01
sg49
I00
sg50
I105
sbsg944
g0
(g78
g2
Ntp1042
Rp1043
(dp1044
g42
I00
sg48
I01
sg49
I00
sg50
F0.3305
sbsg945
g0
(g883
g93
(lp1045
F0.0
atp1046
Rp1047
(dp1048
g42
I00
sg48
I01
sg49
I00
sbsg946
g0
(g883
g93
(lp1049
F0.0
atp1050
Rp1051
(dp1052
g42
I00
sg48
I01
sg49
I00
sbsg947
g0
(g78
g2
Ntp1053
Rp1054
(dp1055
g42
I00
sg48
I01
sg49
I00
sg50
F0.0
sbsg948
g0
(g78
g2
Ntp1056
Rp1057
(dp1058
g42
I00
sg48
I01
sg49
I00
sg50
F0.1
sbsg949
g0
(g120
g2
Ntp1059
Rp1060
(dp1061
g42
I00
sg48
I01
sg49
I00
sg50
I00
sbsbsg837
g0
(g232
g2
Ntp1062
Rp1063
(dp1064
g42
I00
sg48
I01
sg49
I00
sg19
(lp1065
g934
ag935
ag936
ag937
ag938
ag939
ag940
ag941
ag942
ag943
ag944
ag945
ag946
ag947
ag948
ag949
asg43
Nsg934
g0
(g78
g2
Ntp1066
Rp1067
(dp1068
g42
I00
sg48
I01
sg49
I00
sg50
F9.354
sbsg935
g0
(g78
g2
Ntp1069
Rp1070
(dp1071
g42
I00
sg48
I01
sg49
I00
sg50
F2.516
sbsg936
g0
(g883
g93
(lp1072
F0.14
aF0.135
atp1073
Rp1074
(dp1075
g42
I00
sg48
I01
sg49
I00
sbsg937
g0
(g883
g93
(lp1076
F0.0
aF0.0
atp1077
Rp1078
(dp1079
g42
I00
sg48
I01
sg49
I00
sbsg938
g0
(g319
g2
Ntp1080
Rp1081
(dp1082
g42
I00
sg48
I01
sg49
I00
sg50
I-9999
sbsg939
g0
(g319
g2
Ntp1083
Rp1084
(dp1085
g42
I00
sg48
I01
sg49
I00
sg50
I0
sbsg940
g0
(g883
g93
(lp1086
F-0.87
aF1.4
aF7.8
aF-29.6
atp1087
Rp1088
(dp1089
g42
I00
sg48
I01
sg49
I00
sbsg941
g0
(g883
g93
(lp1090
F0.359
aF0.358
aF0.36
aF0.367
atp1091
Rp1092
(dp1093
g42
I00
sg48
I01
sg49
I00
sbsg942
g0
(g319
g2
Ntp1094
Rp1095
(dp1096
g42
I00
sg48
I01
sg49
I00
sg50
I301
sbsg943
g0
(g319
g2
Ntp1097
Rp1098
(dp1099
g42
I00
sg48
I01
sg49
I00
sg50
I301
sbsg944
g0
(g78
g2
Ntp1100
Rp1101
(dp1102
g42
I00
sg48
I01
sg49
I00
sg50
F0.0
sbsg945
g0
(g883
g93
(lp1103
F0.0
atp1104
Rp1105
(dp1106
g42
I00
sg48
I01
sg49
I00
sbsg946
g0
(g883
g93
(lp1107
F0.0
atp1108
Rp1109
(dp1110
g42
I00
sg48
I01
sg49
I00
sbsg947
g0
(g78
g2
Ntp1111
Rp1112
(dp1113
g42
I00
sg48
I01
sg49
I00
sg50
F0.0
sbsg948
g0
(g78
g2
Ntp1114
Rp1115
(dp1116
g42
I00
sg48
I01
sg49
I00
sg50
F0.1
sbsg949
g0
(g120
g2
Ntp1117
Rp1118
(dp1119
g42
I00
sg48
I01
sg49
I00
sg50
I00
sbsbsg838
g0
(g232
g2
Ntp1120
Rp1121
(dp1122
g42
I00
sg48
I01
sg49
I00
sg19
(lp1123
g934
ag935
ag936
ag937
ag938
ag939
ag940
ag941
ag942
ag943
ag944
ag945
ag946
ag947
ag948
ag949
asg43
Nsg934
g0
(g78
g2
Ntp1124
Rp1125
(dp1126
g42
I00
sg48
I01
sg49
I00
sg50
F12.06
sbsg935
g0
(g78
g2
Ntp1127
Rp1128
(dp1129
g42
I00
sg48
I01
sg49
I00
sg50
F0.6285
sbsg936
g0
(g883
g93
(lp1130
F0.006
aF0.0087
atp1131
Rp1132
(dp1133
g42
I00
sg48
I01
sg49
I00
sbsg937
g0
(g883
g93
(lp1134
F0.0
aF0.0
atp1135
Rp1136
(dp1137
g42
I00
sg48
I01
sg49
I00
sbsg938
g0
(g319
g2
Ntp1138
Rp1139
(dp1140
g42
I00
sg48
I01
sg49
I00
sg50
I24
sbsg939
g0
(g319
g2
Ntp1141
Rp1142
(dp1143
g42
I00
sg48
I01
sg49
I00
sg50
I0
sbsg940
g0
(g883
g93
(lp1144
F-0.44
aF1.4
aF7.1
aF38.5
atp1145
Rp1146
(dp1147
g42
I00
sg48
I01
sg49
I00
sbsg941
g0
(g883
g93
(lp1148
F0.907
aF0.915
aF0.92
aF0.921
atp1149
Rp1150
(dp1151
g42
I00
sg48
I01
sg49
I00
sbsg942
g0
(g319
g2
Ntp1152
Rp1153
(dp1154
g42
I00
sg48
I01
sg49
I00
sg50
I201
sbsg943
g0
(g319
g2
Ntp1155
Rp1156
(dp1157
g42
I00
sg48
I01
sg49
I00
sg50
I201
sbsg944
g0
(g78
g2
Ntp1158
Rp1159
(dp1160
g42
I00
sg48
I01
sg49
I00
sg50
F4.0
sbsg945
g0
(g883
g93
(lp1161
F0.0
atp1162
Rp1163
(dp1164
g42
I00
sg48
I01
sg49
I00
sbsg946
g0
(g883
g93
(lp1165
F0.0
atp1166
Rp1167
(dp1168
g42
I00
sg48
I01
sg49
I00
sbsg947
g0
(g78
g2
Ntp1169
Rp1170
(dp1171
g42
I00
sg48
I01
sg49
I00
sg50
F0.0
sbsg948
g0
(g78
g2
Ntp1172
Rp1173
(dp1174
g42
I00
sg48
I01
sg49
I00
sg50
F0.1
sbsg949
g0
(g120
g2
Ntp1175
Rp1176
(dp1177
g42
I00
sg48
I01
sg49
I00
sg50
I00
sbsbsg839
g0
(g232
g2
Ntp1178
Rp1179
(dp1180
g42
I00
sg48
I01
sg49
I00
sg19
(lp1181
g934
ag935
ag936
ag937
ag938
ag939
ag940
ag941
ag942
ag943
ag944
ag945
ag946
ag947
ag948
ag949
aVradiationDamage
p1182
asg43
Nsg934
g0
(g78
g2
Ntp1183
Rp1184
(dp1185
g42
I00
sg48
I01
sg49
I00
sg50
F17.3
sbsg935
g0
(g78
g2
Ntp1186
Rp1187
(dp1188
g42
I00
sg48
I01
sg49
I00
sg50
F1.5
sbsg936
g0
(g883
g93
(lp1189
F0.0006252
atp1190
Rp1191
(dp1192
g42
I00
sg48
I01
sg49
I00
sbsg937
g0
(g883
g93
(lp1193
I0
atp1194
Rp1195
(dp1196
g42
I00
sg48
I01
sg49
I00
sbsg938
g0
(g319
g2
Ntp1197
Rp1198
(dp1199
g42
I00
sg48
I01
sg49
I00
sg50
I16
sbsg939
g0
(g319
g2
Ntp1200
Rp1201
(dp1202
g42
I00
sg48
I01
sg49
I00
sg50
I2
sbsg940
g0
(g883
g93
(lp1203
F0.0
aF0.0
aF0.0
aF0.0
atp1204
Rp1205
(dp1206
g42
I00
sg48
I01
sg49
I00
sbsg941
g0
(g883
g93
(lp1207
F0.05376
aF0.05376
aF0.05376
aF0.05376
atp1208
Rp1209
(dp1210
g42
I00
sg48
I01
sg49
I00
sbsg942
g0
(g319
g2
Ntp1211
Rp1212
(dp1213
g42
I00
sg48
I01
sg49
I00
sg50
I206
sbsg943
g0
(g319
g2
Ntp1214
Rp1215
(dp1216
g42
I00
sg48
I01
sg49
I00
sg50
I208
sbsg944
g0
(g78
g2
Ntp1217
Rp1218
(dp1219
g42
I00
sg48
I01
sg49
I00
sg50
F40.0
sbsg945
g0
(g883
g93
(lp1220
F0.01
aF0.015
atp1221
Rp1222
(dp1223
g42
I00
sg48
I01
sg49
I00
sbsg946
g0
(g883
g93
(lp1224
F0.26
aF0.254
atp1225
Rp1226
(dp1227
g42
I00
sg48
I01
sg49
I00
sbsg947
g0
(g78
g2
Ntp1228
Rp1229
(dp1230
g42
I00
sg48
I01
sg49
I00
sg50
F0.0
sbsg948
g0
(g78
g2
Ntp1231
Rp1232
(dp1233
g42
I00
sg48
I01
sg49
I00
sg50
F0.1
sbsg949
g0
(g120
g2
Ntp1234
Rp1235
(dp1236
g42
I00
sg48
I01
sg49
I00
sg50
I01
sbsg1182
g0
(g232
g2
Ntp1237
Rp1238
(dp1239
g42
I00
sg48
I01
sg49
I00
sg19
(lp1240
VtemperatureBase
p1241
aVtemperatureNew
p1242
aVintlumiOffset
p1243
aVdepVsTemp
p1244
aVintlumiToNeutrons
p1245
aVdepVsNeutrons
p1246
asg43
Nsg1241
g0
(g78
g2
Ntp1247
Rp1248
(dp1249
g42
I00
sg48
I01
sg49
I00
sg50
I20
sbsg1242
g0
(g78
g2
Ntp1250
Rp1251
(dp1252
g42
I00
sg48
I01
sg49
I00
sg50
I-5
sbsg1243
g0
(g78
g2
Ntp1253
Rp1254
(dp1255
g42
I00
sg48
I01
sg49
I00
sg50
I150
sbsg1244
g0
(g78
g2
Ntp1256
Rp1257
(dp1258
g42
I00
sg48
I01
sg49
I00
sg50
F0.0631
sbsg1245
g0
(g78
g2
Ntp1259
Rp1260
(dp1261
g42
I00
sg48
I01
sg49
I00
sg50
F367000000.0
sbsg1246
g0
(g883
g93
(lp1262
F5.543e-10
aF8.012e-10
atp1263
Rp1264
(dp1265
g42
I00
sg48
I01
sg49
I00
sbsbsbsg840
g0
(g232
g2
Ntp1266
Rp1267
(dp1268
g42
I00
sg48
I01
sg49
I00
sg19
(lp1269
g934
ag935
ag936
ag937
ag938
ag939
ag940
ag941
ag942
ag943
ag944
ag945
ag946
ag947
ag948
ag949
ag1182
asg43
Nsg934
g0
(g78
g2
Ntp1270
Rp1271
(dp1272
g42
I00
sg48
I01
sg49
I00
sg50
F17.3
sbsg935
g0
(g78
g2
Ntp1273
Rp1274
(dp1275
g42
I00
sg48
I01
sg49
I00
sg50
F1.5
sbsg936
g0
(g883
g93
(lp1276
F0.0006252
atp1277
Rp1278
(dp1279
g42
I00
sg48
I01
sg49
I00
sbsg937
g0
(g883
g93
(lp1280
I0
atp1281
Rp1282
(dp1283
g42
I00
sg48
I01
sg49
I00
sbsg938
g0
(g319
g2
Ntp1284
Rp1285
(dp1286
g42
I00
sg48
I01
sg49
I00
sg50
I16
sbsg939
g0
(g319
g2
Ntp1287
Rp1288
(dp1289
g42
I00
sg48
I01
sg49
I00
sg50
I2
sbsg940
g0
(g883
g93
(lp1290
F0.0
aF0.0
aF0.0
aF0.0
atp1291
Rp1292
(dp1293
g42
I00
sg48
I01
sg49
I00
sbsg941
g0
(g883
g93
(lp1294
F0.05376
aF0.05376
aF0.05376
aF0.05376
atp1295
Rp1296
(dp1297
g42
I00
sg48
I01
sg49
I00
sbsg942
g0
(g319
g2
Ntp1298
Rp1299
(dp1300
g42
I00
sg48
I01
sg49
I00
sg50
I206
sbsg943
g0
(g319
g2
Ntp1301
Rp1302
(dp1303
g42
I00
sg48
I01
sg49
I00
sg50
I208
sbsg944
g0
(g78
g2
Ntp1304
Rp1305
(dp1306
g42
I00
sg48
I01
sg49
I00
sg50
F40.0
sbsg945
g0
(g883
g93
(lp1307
F0.01
aF0.015
atp1308
Rp1309
(dp1310
g42
I00
sg48
I01
sg49
I00
sbsg946
g0
(g883
g93
(lp1311
F0.26
aF0.254
atp1312
Rp1313
(dp1314
g42
I00
sg48
I01
sg49
I00
sbsg947
g0
(g78
g2
Ntp1315
Rp1316
(dp1317
g42
I00
sg48
I01
sg49
I00
sg50
F0.0
sbsg948
g0
(g78
g2
Ntp1318
Rp1319
(dp1320
g42
I00
sg48
I01
sg49
I00
sg50
F0.1
sbsg949
g0
(g120
g2
Ntp1321
Rp1322
(dp1323
g42
I00
sg48
I01
sg49
I00
sg50
I01
sbsg1182
g0
(g232
g2
Ntp1324
Rp1325
(dp1326
g42
I00
sg48
I01
sg49
I00
sg19
(lp1327
g1241
ag1242
ag1243
ag1244
ag1245
ag1246
asg43
Nsg1241
g0
(g78
g2
Ntp1328
Rp1329
(dp1330
g42
I00
sg48
I01
sg49
I00
sg50
I20
sbsg1242
g0
(g78
g2
Ntp1331
Rp1332
(dp1333
g42
I00
sg48
I01
sg49
I00
sg50
I5
sbsg1243
g0
(g78
g2
Ntp1334
Rp1335
(dp1336
g42
I00
sg48
I01
sg49
I00
sg50
I75
sbsg1244
g0
(g78
g2
Ntp1337
Rp1338
(dp1339
g42
I00
sg48
I01
sg49
I00
sg50
F0.0631
sbsg1245
g0
(g78
g2
Ntp1340
Rp1341
(dp1342
g42
I00
sg48
I01
sg49
I00
sg50
F29200000.0
sbsg1246
g0
(g883
g93
(lp1343
F5.543e-10
aF8.012e-10
atp1344
Rp1345
(dp1346
g42
I00
sg48
I01
sg49
I00
sbsbsbsg841
g0
(g232
g2
Ntp1347
Rp1348
(dp1349
g42
I00
sg48
I01
sg49
I00
sg19
(lp1350
g934
ag935
ag936
ag937
ag938
ag939
ag940
ag941
ag942
ag943
ag944
ag945
ag946
ag947
ag948
ag949
asg43
Nsg934
g0
(g78
g2
Ntp1351
Rp1352
(dp1353
g42
I00
sg48
I01
sg49
I00
sg50
F13.33
sbsg935
g0
(g78
g2
Ntp1354
Rp1355
(dp1356
g42
I00
sg48
I01
sg49
I00
sg50
F3.33
sbsg936
g0
(g883
g93
(lp1357
F0.14
aF0.135
atp1358
Rp1359
(dp1360
g42
I00
sg48
I01
sg49
I00
sbsg937
g0
(g883
g93
(lp1361
F0.0
aF0.0
atp1362
Rp1363
(dp1364
g42
I00
sg48
I01
sg49
I00
sbsg938
g0
(g319
g2
Ntp1365
Rp1366
(dp1367
g42
I00
sg48
I01
sg49
I00
sg50
I-9999
sbsg939
g0
(g319
g2
Ntp1368
Rp1369
(dp1370
g42
I00
sg48
I01
sg49
I00
sg50
I1
sbsg940
g0
(g883
g93
(lp1371
F0.0697
aF-0.7405
aF12.38
aF-671.9
atp1372
Rp1373
(dp1374
g42
I00
sg48
I01
sg49
I00
sbsg941
g0
(g883
g93
(lp1375
F0.297
aF0.298
aF0.298
aF0.313
atp1376
Rp1377
(dp1378
g42
I00
sg48
I01
sg49
I00
sbsg942
g0
(g319
g2
Ntp1379
Rp1380
(dp1381
g42
I00
sg48
I01
sg49
I00
sg50
I301
sbsg943
g0
(g319
g2
Ntp1382
Rp1383
(dp1384
g42
I00
sg48
I01
sg49
I00
sg50
I301
sbsg944
g0
(g78
g2
Ntp1385
Rp1386
(dp1387
g42
I00
sg48
I01
sg49
I00
sg50
F0.0
sbsg945
g0
(g883
g93
(lp1388
F0.0
atp1389
Rp1390
(dp1391
g42
I00
sg48
I01
sg49
I00
sbsg946
g0
(g883
g93
(lp1392
F0.0
atp1393
Rp1394
(dp1395
g42
I00
sg48
I01
sg49
I00
sbsg947
g0
(g78
g2
Ntp1396
Rp1397
(dp1398
g42
I00
sg48
I01
sg49
I00
sg50
F0.0
sbsg948
g0
(g78
g2
Ntp1399
Rp1400
(dp1401
g42
I00
sg48
I01
sg49
I00
sg50
F0.1
sbsg949
g0
(g120
g2
Ntp1402
Rp1403
(dp1404
g42
I00
sg48
I01
sg49
I00
sg50
I00
sbsbsg842
g0
(g613
g93
(lp1405
g0
(g232
g2
Ntp1406
Rp1407
(dp1408
g42
I00
sg48
I01
sg49
I00
sg19
(lp1409
Vpixels
p1410
aVcrosstalk
p1411
aVnonlin1
p1412
aVnonlin2
p1413
aVnonlin3
p1414
asg43
Nsg1410
g0
(g319
g2
Ntp1415
Rp1416
(dp1417
g42
I00
sg48
I01
sg49
I00
sg50
I36000
sbsg1411
g0
(g78
g2
Ntp1418
Rp1419
(dp1420
g42
I00
sg48
I01
sg49
I00
sg50
F0.0
sbsg1412
g0
(g78
g2
Ntp1421
Rp1422
(dp1423
g42
I00
sg48
I01
sg49
I00
sg50
F1.0
sbsg1413
g0
(g78
g2
Ntp1424
Rp1425
(dp1426
g42
I00
sg48
I01
sg49
I00
sg50
F0.0
sbsg1414
g0
(g78
g2
Ntp1427
Rp1428
(dp1429
g42
I00
sg48
I01
sg49
I00
sg50
F0.0
sbsbag0
(g232
g2
Ntp1430
Rp1431
(dp1432
g42
I00
sg48
I01
sg49
I00
sg19
(lp1433
g1410
ag1411
ag1412
ag1413
ag1414
asg43
Nsg1410
g0
(g319
g2
Ntp1434
Rp1435
(dp1436
g42
I00
sg48
I01
sg49
I00
sg50
I2500
sbsg1411
g0
(g78
g2
Ntp1437
Rp1438
(dp1439
g42
I00
sg48
I01
sg49
I00
sg50
F0.0
sbsg1412
g0
(g78
g2
Ntp1440
Rp1441
(dp1442
g42
I00
sg48
I01
sg49
I00
sg50
F1.0
sbsg1413
g0
(g78
g2
Ntp1443
Rp1444
(dp1445
g42
I00
sg48
I01
sg49
I00
sg50
F0.0
sbsg1414
g0
(g78
g2
Ntp1446
Rp1447
(dp1448
g42
I00
sg48
I01
sg49
I00
sg50
F0.0
sbsbag0
(g232
g2
Ntp1449
Rp1450
(dp1451
g42
I00
sg48
I01
sg49
I00
sg19
(lp1452
g1410
ag1411
ag1412
ag1413
ag1414
asg43
Nsg1410
g0
(g319
g2
Ntp1453
Rp1454
(dp1455
g42
I00
sg48
I01
sg49
I00
sg50
I27370
sbsg1411
g0
(g78
g2
Ntp1456
Rp1457
(dp1458
g42
I00
sg48
I01
sg49
I00
sg50
F0.17
sbsg1412
g0
(g78
g2
Ntp1459
Rp1460
(dp1461
g42
I00
sg48
I01
sg49
I00
sg50
F1.00985
sbsg1413
g0
(g78
g2
Ntp1462
Rp1463
(dp1464
g42
I00
sg48
I01
sg49
I00
sg50
F7.84089e-06
sbsg1414
g0
(g78
g2
Ntp1465
Rp1466
(dp1467
g42
I00
sg48
I01
sg49
I00
sg50
F2.86282e-10
sbsbag0
(g232
g2
Ntp1468
Rp1469
(dp1470
g42
I00
sg48
I01
sg49
I00
sg19
(lp1471
g1410
ag1411
ag1412
ag1413
ag1414
asg43
Nsg1410
g0
(g319
g2
Ntp1472
Rp1473
(dp1474
g42
I00
sg48
I01
sg49
I00
sg50
I38018
sbsg1411
g0
(g78
g2
Ntp1475
Rp1476
(dp1477
g42
I00
sg48
I01
sg49
I00
sg50
F0.196
sbsg1412
g0
(g78
g2
Ntp1478
Rp1479
(dp1480
g42
I00
sg48
I01
sg49
I00
sg50
F1.00546
sbsg1413
g0
(g78
g2
Ntp1481
Rp1482
(dp1483
g42
I00
sg48
I01
sg49
I00
sg50
F6.40239e-06
sbsg1414
g0
(g78
g2
Ntp1484
Rp1485
(dp1486
g42
I00
sg48
I01
sg49
I00
sg50
F1.27011e-10
sbsbag0
(g232
g2
Ntp1487
Rp1488
(dp1489
g42
I00
sg48
I01
sg49
I00
sg19
(lp1490
g1410
ag1411
ag1412
ag1413
ag1414
asg43
Nsg1410
g0
(g319
g2
Ntp1491
Rp1492
(dp1493
g42
I00
sg48
I01
sg49
I00
sg50
I27370
sbsg1411
g0
(g78
g2
Ntp1494
Rp1495
(dp1496
g42
I00
sg48
I01
sg49
I00
sg50
F0.17
sbsg1412
g0
(g78
g2
Ntp1497
Rp1498
(dp1499
g42
I00
sg48
I01
sg49
I00
sg50
F1.00985
sbsg1413
g0
(g78
g2
Ntp1500
Rp1501
(dp1502
g42
I00
sg48
I01
sg49
I00
sg50
F7.84089e-06
sbsg1414
g0
(g78
g2
Ntp1503
Rp1504
(dp1505
g42
I00
sg48
I01
sg49
I00
sg50
F2.86282e-10
sbsbag0
(g232
g2
Ntp1506
Rp1507
(dp1508
g42
I00
sg48
I01
sg49
I00
sg19
(lp1509
g1410
ag1411
ag1412
ag1413
ag1414
asg43
Nsg1410
g0
(g319
g2
Ntp1510
Rp1511
(dp1512
g42
I00
sg48
I01
sg49
I00
sg50
I38018
sbsg1411
g0
(g78
g2
Ntp1513
Rp1514
(dp1515
g42
I00
sg48
I01
sg49
I00
sg50
F0.196
sbsg1412
g0
(g78
g2
Ntp1516
Rp1517
(dp1518
g42
I00
sg48
I01
sg49
I00
sg50
F1.00546
sbsg1413
g0
(g78
g2
Ntp1519
Rp1520
(dp1521
g42
I00
sg48
I01
sg49
I00
sg50
F6.40239e-06
sbsg1414
g0
(g78
g2
Ntp1522
Rp1523
(dp1524
g42
I00
sg48
I01
sg49
I00
sg50
F1.27011e-10
sbsbag0
(g232
g2
Ntp1525
Rp1526
(dp1527
g42
I00
sg48
I01
sg49
I00
sg19
(lp1528
g1410
ag1411
ag1412
ag1413
ag1414
asg43
Nsg1410
g0
(g319
g2
Ntp1529
Rp1530
(dp1531
g42
I00
sg48
I01
sg49
I00
sg50
I0
sbsg1411
g0
(g78
g2
Ntp1532
Rp1533
(dp1534
g42
I00
sg48
I01
sg49
I00
sg50
F0.0
sbsg1412
g0
(g78
g2
Ntp1535
Rp1536
(dp1537
g42
I00
sg48
I01
sg49
I00
sg50
F1.0
sbsg1413
g0
(g78
g2
Ntp1538
Rp1539
(dp1540
g42
I00
sg48
I01
sg49
I00
sg50
F0.0
sbsg1414
g0
(g78
g2
Ntp1541
Rp1542
(dp1543
g42
I00
sg48
I01
sg49
I00
sg50
F0.0
sbsbatp1544
Rp1545
(dp1546
g42
I00
sg48
I01
sg49
I00
sg103
I1
sbsg139
V/cvmfs/cms.cern.ch/el9_amd64_gcc12/cms/cmssw/CMSSW_14_1_0_pre7/src/CalibCalorimetry/HcalPlugins/python/Hcal_Conditions_forGlobalTag_cff.py
p1547
sg141
I16
sg142
g810
sbssV_Process__esproducers
p1548
(dp1549
VCSCGeometryESModule
p1550
g0
(cFWCore.ParameterSet.Modules
ESProducer
p1551
g2
Ntp1552
Rp1553
(dp1554
g17
g1550
sg19
(lp1555
VfromDDD
p1556
aVfromDD4hep
p1557
aValignmentsLabel
p1558
ag645
aVuseRealWireGeometry
p1559
aVuseOnlyWiresInME1a
p1560
aVuseGangedStripsInME1a
p1561
aVuseCentreTIOffsets
p1562
aVapplyAlignment
p1563
aVdebugV
p1564
asg42
I00
sg43
Nsg1556
g0
(g120
g2
Ntp1565
Rp1566
(dp1567
g42
I00
sg48
I01
sg49
I00
sg50
I00
sbsg49
I01
sg1557
g0
(g120
g2
Ntp1568
Rp1569
(dp1570
g42
I00
sg48
I01
sg49
I00
sg50
I00
sbsg1558
g0
(g44
g2
Ntp1571
Rp1572
(dp1573
g42
I00
sg48
I01
sg49
I00
sg50
g59
sbsg645
g0
(g44
g2
Ntp1574
Rp1575
(dp1576
g42
I00
sg48
I01
sg49
I00
sg50
g59
sbsg1559
g0
(g120
g2
Ntp1577
Rp1578
(dp1579
g42
I00
sg48
I01
sg49
I00
sg50
I01
sbsg1560
g0
(g120
g2
Ntp1580
Rp1581
(dp1582
g42
I00
sg48
I01
sg49
I00
sg50
I00
sbsg1561
g0
(g120
g2
Ntp1583
Rp1584
(dp1585
g42
I00
sg48
I01
sg49
I01
sg50
I00
sbsg1562
g0
(g120
g2
Ntp1586
Rp1587
(dp1588
g42
I00
sg48
I01
sg49
I00
sg50
I00
sbsg1563
g0
(g120
g2
Ntp1589
Rp1590
(dp1591
g42
I00
sg48
I01
sg49
I00
sg50
I01
sbsg1564
g0
(g120
g2
Ntp1592
Rp1593
(dp1594
g42
I00
sg48
I00
sg49
I00
sg50
I00
sbsg139
g172
sg141
I55
sg142
g1550
sbsVCaloGeometryBuilder
p1595
g0
(g1551
g2
Ntp1596
Rp1597
(dp1598
g17
g1595
sg19
(lp1599
VSelectedCalos
p1600
asg42
I00
sg43
Nsg1600
g0
(g92
g93
(lp1601
VHCAL
p1602
aVZDC
p1603
aVEcalBarrel
p1604
aVEcalEndcap
p1605
aVEcalPreshower
p1606
aVTOWER
p1607
atp1608
Rp1609
(dp1610
g42
I00
sg48
I01
sg49
I01
sg103
I1
sbsg49
I01
sg139
g172
sg141
I55
sg142
g1595
sbsVCaloTopologyBuilder
p1611
g0
(g1551
g2
Ntp1612
Rp1613
(dp1614
g17
g1611
sg19
(lp1615
sg42
I00
sg43
Nsg49
I00
sg139
g172
sg141
I55
sg142
g1611
sbsVCaloTowerGeometryFromDBEP
p1616
g0
(g1551
g2
Ntp1617
Rp1618
(dp1619
g17
g1616
sg19
(lp1620
g1563
asg42
I00
sg43
Nsg1563
g0
(g120
g2
Ntp1621
Rp1622
(dp1623
g42
I00
sg48
I01
sg49
I00
sg50
I00
sbsg49
I00
sg139
g172
sg141
I55
sg142
g1616
sbsVCaloTowerTopologyEP
p1624
g0
(g1551
g2
Ntp1625
Rp1626
(dp1627
g17
g1624
sg19
(lp1628
g645
asg42
I00
sg43
Nsg645
g0
(g44
g2
Ntp1629
Rp1630
(dp1631
g42
I00
sg48
I01
sg49
I00
sg50
g59
sbsg49
I00
sg139
g172
sg141
I55
sg142
g1624
sbsVCastorGeometryFromDBEP
p1632
g0
(g1551
g2
Ntp1633
Rp1634
(dp1635
g17
g1632
sg19
(lp1636
g1563
asg42
I00
sg43
Nsg1563
g0
(g120
g2
Ntp1637
Rp1638
(dp1639
g42
I00
sg48
I01
sg49
I00
sg50
I00
sbsg49
I00
sg139
g172
sg141
I55
sg142
g1632
sbsVDTGeometryESModule
p1640
g0
(g1551
g2
Ntp1641
Rp1642
(dp1643
g17
g1640
sg19
(lp1644
g1556
ag1557
aVDDDetector
p1645
ag1558
ag645
aVattribute
p1646
aVvalue
p1647
ag1563
asg42
I00
sg43
Nsg1556
g0
(g120
g2
Ntp1648
Rp1649
(dp1650
g42
I00
sg48
I01
sg49
I01
sg50
I00
sbsg49
I01
sg1557
g0
(g120
g2
Ntp1651
Rp1652
(dp1653
g42
I00
sg48
I01
sg49
I00
sg50
I00
sbsg1645
g0
(cFWCore.ParameterSet.Types
ESInputTag
p1654
g2
Ntp1655
Rp1656
(dp1657
g42
I00
sg48
I01
sg49
I00
sV_ESInputTag__moduleLabel
p1658
g59
sV_ESInputTag__data
p1659
g59
sbsg1558
g0
(g44
g2
Ntp1660
Rp1661
(dp1662
g42
I00
sg48
I01
sg49
I00
sg50
g59
sbsg645
g0
(g44
g2
Ntp1663
Rp1664
(dp1665
g42
I00
sg48
I01
sg49
I00
sg50
g59
sbsg1646
g0
(g44
g2
Ntp1666
Rp1667
(dp1668
g42
I00
sg48
I01
sg49
I00
sg50
VMuStructure
p1669
sbsg1647
g0
(g44
g2
Ntp1670
Rp1671
(dp1672
g42
I00
sg48
I01
sg49
I00
sg50
VMuonBarrelDT
p1673
sbsg1563
g0
(g120
g2
Ntp1674
Rp1675
(dp1676
g42
I00
sg48
I01
sg49
I00
sg50
I01
sbsg139
g172
sg141
I55
sg142
g1640
sbsVEcalBarrelGeometryFromDBEP
p1677
g0
(g1551
g2
Ntp1678
Rp1679
(dp1680
g17
g1677
sg19
(lp1681
g1563
asg42
I00
sg43
Nsg1563
g0
(g120
g2
Ntp1682
Rp1683
(dp1684
g42
I00
sg48
I01
sg49
I01
sg50
I01
sbsg49
I01
sg139
g172
sg141
I55
sg142
g1677
sbsVEcalElectronicsMappingBuilder
p1685
g0
(g1551
g2
Ntp1686
Rp1687
(dp1688
g17
g1685
sg19
(lp1689
sg42
I00
sg43
Nsg49
I00
sg139
g172
sg141
I55
sg142
g1685
sbsVEcalEndcapGeometryFromDBEP
p1690
g0
(g1551
g2
Ntp1691
Rp1692
(dp1693
g17
g1690
sg19
(lp1694
g1563
asg42
I00
sg43
Nsg1563
g0
(g120
g2
Ntp1695
Rp1696
(dp1697
g42
I00
sg48
I01
sg49
I01
sg50
I01
sbsg49
I01
sg139
g172
sg141
I55
sg142
g1690
sbsVEcalPreshowerGeometryFromDBEP
p1698
g0
(g1551
g2
Ntp1699
Rp1700
(dp1701
g17
g1698
sg19
(lp1702
g1563
asg42
I00
sg43
Nsg1563
g0
(g120
g2
Ntp1703
Rp1704
(dp1705
g42
I00
sg48
I01
sg49
I01
sg50
I01
sbsg49
I01
sg139
g172
sg141
I55
sg142
g1698
sbsVEcalTrigTowerConstituentsMapBuilder
p1706
g0
(g1551
g2
Ntp1707
Rp1708
(dp1709
g17
g1706
sg19
(lp1710
VMapFile
p1711
asg42
I00
sg43
Nsg1711
g0
(g44
g2
Ntp1712
Rp1713
(dp1714
g42
I00
sg48
I00
sg49
I00
sg50
VGeometry/EcalMapping/data/EndCap_TTMap.txt
p1715
sbsg49
I00
sg139
g172
sg141
I55
sg142
g1706
sbsVGlobalTrackingGeometryESProducer
p1716
g0
(g1551
g2
Ntp1717
Rp1718
(dp1719
g17
g1716
sg19
(lp1720
sg42
I00
sg43
Nsg49
I00
sg139
g172
sg141
I55
sg142
g1716
sbsVHcalAlignmentEP
p1721
g0
(g1551
g2
Ntp1722
Rp1723
(dp1724
g17
g1721
sg19
(lp1725
sg42
I00
sg43
Nsg49
I00
sg139
g172
sg141
I55
sg142
g1721
sbsVHcalGeometryFromDBEP
p1726
g0
(g1551
g2
Ntp1727
Rp1728
(dp1729
g17
g1726
sg19
(lp1730
g1563
asg42
I00
sg43
Nsg1563
g0
(g120
g2
Ntp1731
Rp1732
(dp1733
g42
I00
sg48
I01
sg49
I01
sg50
I01
sbsg49
I01
sg139
g172
sg141
I55
sg142
g1726
sbsVMuonDetLayerGeometryESProducer
p1734
g0
(g1551
g2
Ntp1735
Rp1736
(dp1737
g17
g1734
sg19
(lp1738
sg42
I00
sg43
Nsg49
I00
sg139
g172
sg141
I55
sg142
g1734
sbsVRPCGeometryESModule
p1739
g0
(g1551
g2
Ntp1740
Rp1741
(dp1742
g17
g1739
sg19
(lp1743
g1556
ag1557
asg42
I00
sg43
Nsg1556
g0
(g120
g2
Ntp1744
Rp1745
(dp1746
g42
I00
sg48
I00
sg49
I00
sg50
I00
sbsg49
I00
sg1557
g0
(g120
g2
Ntp1747
Rp1748
(dp1749
g42
I00
sg48
I00
sg49
I00
sg50
I00
sbsg139
g172
sg141
I55
sg142
g1739
sbsVTrackerAdditionalParametersPerDet
p1750
g0
(g1551
g2
Ntp1751
Rp1752
(dp1753
g17
VTrackerAdditionalParametersPerDetESModule
p1754
sg19
(lp1755
g645
asg42
I00
sg43
Nsg645
g0
(g44
g2
Ntp1756
Rp1757
(dp1758
g42
I00
sg48
I01
sg49
I00
sg50
g59
sbsg49
I00
sg139
g172
sg141
I55
sg142
g1750
sbsVTrackerRecoGeometryESProducer
p1759
g0
(g1551
g2
Ntp1760
Rp1761
(dp1762
g17
g1759
sg19
(lp1763
VusePhase2Stacks
p1764
asg42
I00
sg43
Nsg1764
g0
(g120
g2
Ntp1765
Rp1766
(dp1767
g42
I00
sg48
I01
sg49
I00
sg50
I00
sbsg49
I00
sg139
g172
sg141
I55
sg142
g1759
sbsVZdcGeometryFromDBEP
p1768
g0
(g1551
g2
Ntp1769
Rp1770
(dp1771
g17
g1768
sg19
(lp1772
g1563
asg42
I00
sg43
Nsg1563
g0
(g120
g2
Ntp1773
Rp1774
(dp1775
g42
I00
sg48
I01
sg49
I00
sg50
I00
sbsg49
I00
sg139
g172
sg141
I55
sg142
g1768
sbsVfakeForIdealAlignment
p1776
g0
(g1551
g2
Ntp1777
Rp1778
(dp1779
g17
VFakeAlignmentProducer
p1780
sg19
(lp1781
g645
asg42
I00
sg43
Nsg645
g0
(g44
g2
Ntp1782
Rp1783
(dp1784
g42
I00
sg48
I01
sg49
I01
sg50
VfakeForIdeal
p1785
sbsg49
I01
sg139
V/cvmfs/cms.cern.ch/el9_amd64_gcc12/cms/cmssw/CMSSW_14_1_0_pre7/src/Alignment/CommonAlignmentProducer/python/fakeForIdealAlignmentProducer_cfi.py
p1786
sg141
I5
sg142
g1776
sbsVhcalDDDRecConstants
p1787
g0
(g1551
g2
Ntp1788
Rp1789
(dp1790
g17
VHcalDDDRecConstantsESModule
p1791
sg19
(lp1792
g645
asg42
I00
sg43
Nsg645
g0
(g44
g2
Ntp1793
Rp1794
(dp1795
g42
I00
sg48
I01
sg49
I00
sg50
g59
sbsg49
I00
sg139
g172
sg141
I55
sg142
g1787
sbsVhcalDDDSimConstants
p1796
g0
(g1551
g2
Ntp1797
Rp1798
(dp1799
g17
VHcalDDDSimConstantsESModule
p1800
sg19
(lp1801
g645
asg42
I00
sg43
Nsg645
g0
(g44
g2
Ntp1802
Rp1803
(dp1804
g42
I00
sg48
I01
sg49
I00
sg50
g59
sbsg49
I00
sg139
g172
sg141
I55
sg142
g1796
sbsVhcalTopologyIdeal
p1805
g0
(g1551
g2
Ntp1806
Rp1807
(dp1808
g17
VHcalTopologyIdealEP
p1809
sg19
(lp1810
VExclude
p1811
aVMergePosition
p1812
ag645
asg42
I00
sg43
Nsg1811
g0
(g44
g2
Ntp1813
Rp1814
(dp1815
g42
I00
sg48
I00
sg49
I00
sg50
g59
sbsg49
I00
sg1812
g0
(g120
g2
Ntp1816
Rp1817
(dp1818
g42
I00
sg48
I00
sg49
I00
sg50
I00
sbsg645
g0
(g44
g2
Ntp1819
Rp1820
(dp1821
g42
I00
sg48
I01
sg49
I00
sg50
g59
sbsg139
g172
sg141
I55
sg142
g1805
sbsVidealForDigiCSCGeometry
p1822
g0
(g1551
g2
Ntp1823
Rp1824
(dp1825
g17
g1550
sg19
(lp1826
g1556
ag1557
ag1558
ag645
ag1559
ag1560
ag1561
ag1562
ag1563
ag1564
asg42
I00
sg43
Nsg1556
g0
(g120
g2
Ntp1827
Rp1828
(dp1829
g42
I00
sg48
I01
sg49
I00
sg50
I00
sbsg49
I01
sg1557
g0
(g120
g2
Ntp1830
Rp1831
(dp1832
g42
I00
sg48
I01
sg49
I00
sg50
I00
sbsg1558
g0
(g44
g2
Ntp1833
Rp1834
(dp1835
g42
I00
sg48
I01
sg49
I01
sg50
g1785
sbsg645
g0
(g44
g2
Ntp1836
Rp1837
(dp1838
g42
I00
sg48
I01
sg49
I01
sg50
VidealForDigi
p1839
sbsg1559
g0
(g120
g2
Ntp1840
Rp1841
(dp1842
g42
I00
sg48
I01
sg49
I00
sg50
I01
sbsg1560
g0
(g120
g2
Ntp1843
Rp1844
(dp1845
g42
I00
sg48
I01
sg49
I00
sg50
I00
sbsg1561
g0
(g120
g2
Ntp1846
Rp1847
(dp1848
g42
I00
sg48
I01
sg49
I01
sg50
I00
sbsg1562
g0
(g120
g2
Ntp1849
Rp1850
(dp1851
g42
I00
sg48
I01
sg49
I00
sg50
I00
sbsg1563
g0
(g120
g2
Ntp1852
Rp1853
(dp1854
g42
I00
sg48
I01
sg49
I01
sg50
I00
sbsg1564
g0
(g120
g2
Ntp1855
Rp1856
(dp1857
g42
I00
sg48
I00
sg49
I00
sg50
I00
sbsg139
V/cvmfs/cms.cern.ch/el9_amd64_gcc12/cms/cmssw/CMSSW_14_1_0_pre7/src/Geometry/CSCGeometryBuilder/python/idealForDigiCscGeometryDB_cff.py
p1858
sg141
I8
sg142
g1822
sbsVidealForDigiDTGeometry
p1859
g0
(g1551
g2
Ntp1860
Rp1861
(dp1862
g17
g1640
sg19
(lp1863
g1556
ag1557
ag1645
ag1558
ag645
ag1646
ag1647
ag1563
asg42
I00
sg43
Nsg1556
g0
(g120
g2
Ntp1864
Rp1865
(dp1866
g42
I00
sg48
I01
sg49
I01
sg50
I00
sbsg49
I01
sg1557
g0
(g120
g2
Ntp1867
Rp1868
(dp1869
g42
I00
sg48
I01
sg49
I00
sg50
I00
sbsg1645
g0
(g1654
g2
Ntp1870
Rp1871
(dp1872
g42
I00
sg48
I01
sg49
I00
sg1658
g59
sg1659
g59
sbsg1558
g0
(g44
g2
Ntp1873
Rp1874
(dp1875
g42
I00
sg48
I01
sg49
I01
sg50
g1785
sbsg645
g0
(g44
g2
Ntp1876
Rp1877
(dp1878
g42
I00
sg48
I01
sg49
I01
sg50
g1839
sbsg1646
g0
(g44
g2
Ntp1879
Rp1880
(dp1881
g42
I00
sg48
I01
sg49
I00
sg50
g1669
sbsg1647
g0
(g44
g2
Ntp1882
Rp1883
(dp1884
g42
I00
sg48
I01
sg49
I00
sg50
g1673
sbsg1563
g0
(g120
g2
Ntp1885
Rp1886
(dp1887
g42
I00
sg48
I01
sg49
I01
sg50
I00
sbsg139
V/cvmfs/cms.cern.ch/el9_amd64_gcc12/cms/cmssw/CMSSW_14_1_0_pre7/src/Geometry/DTGeometryBuilder/python/idealForDigiDtGeometryDB_cff.py
p1888
sg141
I8
sg142
g1859
sbsVidealForDigiTrackerGeometry
p1889
g0
(g1551
g2
Ntp1890
Rp1891
(dp1892
g17
VTrackerDigiGeometryESModule
p1893
sg19
(lp1894
g645
ag1556
ag1563
ag1558
asg42
I00
sg43
Nsg645
g0
(g44
g2
Ntp1895
Rp1896
(dp1897
g42
I00
sg48
I01
sg49
I01
sg50
g1839
sbsg49
I01
sg1556
g0
(g120
g2
Ntp1898
Rp1899
(dp1900
g42
I00
sg48
I01
sg49
I00
sg50
I00
sbsg1563
g0
(g120
g2
Ntp1901
Rp1902
(dp1903
g42
I00
sg48
I01
sg49
I01
sg50
I00
sbsg1558
g0
(g44
g2
Ntp1904
Rp1905
(dp1906
g42
I00
sg48
I01
sg49
I01
sg50
g1785
sbsg139
V/cvmfs/cms.cern.ch/el9_amd64_gcc12/cms/cmssw/CMSSW_14_1_0_pre7/src/Geometry/TrackerGeometryBuilder/python/idealForDigiTrackerGeometryDB_cff.py
p1907
sg141
I8
sg142
g1889
sbsVmuonGeometryConstants
p1908
g0
(g1551
g2
Ntp1909
Rp1910
(dp1911
g17
VMuonGeometryConstantsESModule
p1912
sg19
(lp1913
g1557
ag645
asg42
I00
sg43
Nsg1557
g0
(g120
g2
Ntp1914
Rp1915
(dp1916
g42
I00
sg48
I01
sg49
I00
sg50
I01
sbsg49
I01
sg645
g0
(g44
g2
Ntp1917
Rp1918
(dp1919
g42
I00
sg48
I01
sg49
I00
sg50
g59
sbsg139
g172
sg141
I55
sg142
g1908
sbsVtrackerGeometryDB
p1920
g0
(g1551
g2
Ntp1921
Rp1922
(dp1923
g17
g1893
sg19
(lp1924
g645
ag1556
ag1563
ag1558
asg42
I00
sg43
Nsg645
g0
(g44
g2
Ntp1925
Rp1926
(dp1927
g42
I00
sg48
I01
sg49
I00
sg50
g59
sbsg49
I00
sg1556
g0
(g120
g2
Ntp1928
Rp1929
(dp1930
g42
I00
sg48
I01
sg49
I00
sg50
I00
sbsg1563
g0
(g120
g2
Ntp1931
Rp1932
(dp1933
g42
I00
sg48
I01
sg49
I00
sg50
I01
sbsg1558
g0
(g44
g2
Ntp1934
Rp1935
(dp1936
g42
I00
sg48
I01
sg49
I00
sg50
g59
sbsg139
g172
sg141
I55
sg142
g1920
sbsVtrackerNumberingGeometryDB
p1937
g0
(g1551
g2
Ntp1938
Rp1939
(dp1940
g17
VTrackerGeometricDetESModule
p1941
sg19
(lp1942
g1556
ag1557
ag645
asg42
I00
sg43
Nsg1556
g0
(g120
g2
Ntp1943
Rp1944
(dp1945
g42
I00
sg48
I01
sg49
I00
sg50
I00
sbsg49
I00
sg1557
g0
(g120
g2
Ntp1946
Rp1947
(dp1948
g42
I00
sg48
I01
sg49
I00
sg50
I00
sbsg645
g0
(g44
g2
Ntp1949
Rp1950
(dp1951
g42
I00
sg48
I01
sg49
I00
sg50
g59
sbsg139
g172
sg141
I55
sg142
g1937
sbsVtrackerTopology
p1952
g0
(g1551
g2
Ntp1953
Rp1954
(dp1955
g17
VTrackerTopologyEP
p1956
sg19
(lp1957
g645
asg42
I00
sg43
Nsg645
g0
(g44
g2
Ntp1958
Rp1959
(dp1960
g42
I00
sg48
I01
sg49
I00
sg50
g59
sbsg49
I00
sg139
g172
sg141
I55
sg142
g1952
sbsVGEMGeometryESModule
p1961
g0
(g1551
g2
Ntp1962
Rp1963
(dp1964
g17
g1961
sg19
(lp1965
g1556
ag1557
ag645
ag1558
ag1563
asg42
I00
sg43
Nsg1556
g0
(g120
g2
Ntp1966
Rp1967
(dp1968
g42
I00
sg48
I01
sg49
I00
sg50
I00
sbsg49
I01
sg1557
g0
(g120
g2
Ntp1969
Rp1970
(dp1971
g42
I00
sg48
I01
sg49
I00
sg50
I00
sbsg645
g0
(g44
g2
Ntp1972
Rp1973
(dp1974
g42
I00
sg48
I01
sg49
I00
sg50
g59
sbsg1558
g0
(g44
g2
Ntp1975
Rp1976
(dp1977
g42
I00
sg48
I01
sg49
I00
sg50
g59
sbsg1563
g0
(g120
g2
Ntp1978
Rp1979
(dp1980
g42
I00
sg48
I01
sg49
I01
sg50
I01
sbsg139
g172
sg141
I55
sg142
g1961
sbsVParabolicParametrizedMagneticFieldProducer
p1981
g0
(g1551
g2
Ntp1982
Rp1983
(dp1984
g17
VAutoParametrizedMagneticFieldProducer
p1985
sg19
(lp1986
Vversion
p1987
aVlabel
p1988
aVvalueOverride
p1989
asg42
I00
sg43
Nsg1987
g0
(g44
g2
Ntp1990
Rp1991
(dp1992
g42
I00
sg48
I01
sg49
I00
sg50
VParabolic
p1993
sbsg49
I01
sg1988
g0
(g44
g2
Ntp1994
Rp1995
(dp1996
g42
I00
sg48
I00
sg49
I01
sg50
VParabolicMf
p1997
sbsg1989
g0
(g319
g2
Ntp1998
Rp1999
(dp2000
g42
I00
sg48
I01
sg49
I00
sg50
I-1
sbsg139
g172
sg141
I55
sg142
g1981
sbsVVolumeBasedMagneticFieldESProducer
p2001
g0
(g1551
g2
Ntp2002
Rp2003
(dp2004
g17
VDD4hep_VolumeBasedMagneticFieldESProducerFromDB
p2005
sg19
(lp2006
g1988
aVdebugBuilder
p2007
ag1989
asg42
I00
sg43
Nsg49
I01
sg139
g172
sg141
I55
sg1988
g0
(g44
g2
Ntp2008
Rp2009
(dp2010
g42
I00
sg48
I00
sg49
I00
sg50
g59
sbsg2007
g0
(g120
g2
Ntp2011
Rp2012
(dp2013
g42
I00
sg48
I00
sg49
I00
sg50
I00
sbsg1989
g0
(g319
g2
Ntp2014
Rp2015
(dp2016
g42
I00
sg48
I01
sg49
I00
sg50
I-1
sbsg142
g2001
sbsVCastorDbProducer
p2017
g0
(g1551
g2
Ntp2018
Rp2019
(dp2020
g17
g2017
sg19
(lp2021
g645
asg42
I00
sg43
Nsg645
g0
(g44
g2
Ntp2022
Rp2023
(dp2024
g42
I00
sg48
I01
sg49
I00
sg50
g59
sbsg49
I00
sg139
g172
sg141
I55
sg142
g2017
sbsVEcalLaserCorrectionService
p2025
g0
(g1551
g2
Ntp2026
Rp2027
(dp2028
g17
g2025
sg19
(lp2029
VmaxExtrapolationTimeInSec
p2030
asg42
I00
sg43
Nsg2030
g0
(cFWCore.ParameterSet.Types
uint32
p2031
g2
Ntp2032
Rp2033
(dp2034
g42
I00
sg48
I01
sg49
I00
sg50
I0
sbsg49
I00
sg139
g172
sg141
I55
sg142
g2025
sbsVEcalLaserCorrectionServiceMC
p2035
g0
(g1551
g2
Ntp2036
Rp2037
(dp2038
g17
g2035
sg19
(lp2039
g645
asg42
I00
sg43
Nsg645
g0
(g44
g2
Ntp2040
Rp2041
(dp2042
g42
I00
sg48
I01
sg49
I00
sg50
g59
sbsg49
I00
sg139
g172
sg141
I55
sg142
g2035
sbsVSiStripRecHitMatcherESProducer
p2043
g0
(g1551
g2
Ntp2044
Rp2045
(dp2046
g17
g2043
sg19
(lp2047
VComponentName
p2048
aVNSigmaInside
p2049
aVPreFilter
p2050
asg42
I00
sg43
Nsg2048
g0
(g44
g2
Ntp2051
Rp2052
(dp2053
g42
I00
sg48
I01
sg49
I00
sg50
VStandardMatcher
p2054
sbsg49
I00
sg2049
g0
(g78
g2
Ntp2055
Rp2056
(dp2057
g42
I00
sg48
I01
sg49
I00
sg50
F3.0
sbsg2050
g0
(g120
g2
Ntp2058
Rp2059
(dp2060
g42
I00
sg48
I01
sg49
I00
sg50
I00
sbsg139
g172
sg141
I55
sg142
g2043
sbsVStripCPEfromTrackAngleESProducer
p2061
g0
(g1551
g2
Ntp2062
Rp2063
(dp2064
g17
VStripCPEESProducer
p2065
sg19
(lp2066
g2048
aVComponentType
p2067
aVparameters
p2068
asg42
I00
sg43
Nsg2048
g0
(g44
g2
Ntp2069
Rp2070
(dp2071
g42
I00
sg48
I01
sg49
I01
sg50
VStripCPEfromTrackAngle
p2072
sbsg49
I00
sg2067
g0
(g44
g2
Ntp2073
Rp2074
(dp2075
g42
I00
sg48
I01
sg49
I01
sg50
g2072
sbsg2068
g0
(g232
g2
Ntp2076
Rp2077
(dp2078
g42
I00
sg48
I01
sg49
I00
sg19
(lp2079
VmLC_P0
p2080
aVmLC_P1
p2081
aVmLC_P2
p2082
aVmTIB_P0
p2083
aVmTIB_P1
p2084
aVmTOB_P0
p2085
aVmTOB_P1
p2086
aVmTID_P0
p2087
aVmTID_P1
p2088
aVmTEC_P0
p2089
aVmTEC_P1
p2090
aVuseLegacyError
p2091
aVmaxChgOneMIP
p2092
asg43
Nsg2080
g0
(g78
g2
Ntp2093
Rp2094
(dp2095
g42
I00
sg48
I01
sg49
I00
sg50
F-0.326
sbsg2081
g0
(g78
g2
Ntp2096
Rp2097
(dp2098
g42
I00
sg48
I01
sg49
I00
sg50
F0.618
sbsg2082
g0
(g78
g2
Ntp2099
Rp2100
(dp2101
g42
I00
sg48
I01
sg49
I00
sg50
F0.3
sbsg2083
g0
(g78
g2
Ntp2102
Rp2103
(dp2104
g42
I00
sg48
I01
sg49
I00
sg50
F-0.742
sbsg2084
g0
(g78
g2
Ntp2105
Rp2106
(dp2107
g42
I00
sg48
I01
sg49
I00
sg50
F0.202
sbsg2085
g0
(g78
g2
Ntp2108
Rp2109
(dp2110
g42
I00
sg48
I01
sg49
I00
sg50
F-1.026
sbsg2086
g0
(g78
g2
Ntp2111
Rp2112
(dp2113
g42
I00
sg48
I01
sg49
I00
sg50
F0.253
sbsg2087
g0
(g78
g2
Ntp2114
Rp2115
(dp2116
g42
I00
sg48
I01
sg49
I00
sg50
F-1.427
sbsg2088
g0
(g78
g2
Ntp2117
Rp2118
(dp2119
g42
I00
sg48
I01
sg49
I00
sg50
F0.433
sbsg2089
g0
(g78
g2
Ntp2120
Rp2121
(dp2122
g42
I00
sg48
I01
sg49
I00
sg50
F-1.885
sbsg2090
g0
(g78
g2
Ntp2123
Rp2124
(dp2125
g42
I00
sg48
I01
sg49
I00
sg50
F0.471
sbsg2091
g0
(g120
g2
Ntp2126
Rp2127
(dp2128
g42
I00
sg48
I01
sg49
I00
sg50
I00
sbsg2092
g0
(g78
g2
Ntp2129
Rp2130
(dp2131
g42
I00
sg48
I01
sg49
I00
sg50
F6000.0
sbsbsg139
V/cvmfs/cms.cern.ch/el9_amd64_gcc12/cms/cmssw/CMSSW_14_1_0_pre7/src/RecoLocalTracker/SiStripRecHitConverter/python/StripCPEfromTrackAngle_cfi.py
p2132
sg141
I4
sg142
g2061
sbsVctppsBeamParametersFromLHCInfoESSource
p2133
g0
(g1551
g2
Ntp2134
Rp2135
(dp2136
g17
VCTPPSBeamParametersFromLHCInfoESSource
p2137
sg19
(lp2138
VlhcInfoLabel
p2139
aVlhcInfoPerLSLabel
p2140
aVlhcInfoPerFillLabel
p2141
aVuseNewLHCInfo
p2142
aVbeamDivX45
p2143
aVbeamDivY45
p2144
aVbeamDivX56
p2145
aVbeamDivY56
p2146
aVvtxOffsetX45
p2147
aVvtxOffsetY45
p2148
aVvtxOffsetZ45
p2149
aVvtxOffsetX56
p2150
aVvtxOffsetY56
p2151
aVvtxOffsetZ56
p2152
aVvtxStddevX
p2153
aVvtxStddevY
p2154
aVvtxStddevZ
p2155
ag645
asg42
I00
sg43
Nsg2139
g0
(g44
g2
Ntp2156
Rp2157
(dp2158
g42
I00
sg48
I01
sg49
I00
sg50
g59
sbsg49
I01
sg2140
g0
(g44
g2
Ntp2159
Rp2160
(dp2161
g42
I00
sg48
I01
sg49
I00
sg50
g59
sbsg2141
g0
(g44
g2
Ntp2162
Rp2163
(dp2164
g42
I00
sg48
I01
sg49
I00
sg50
g59
sbsg2142
g0
(g120
g2
Ntp2165
Rp2166
(dp2167
g42
I00
sg48
I01
sg49
I01
sg50
I01
sbsg2143
g0
(g78
g2
Ntp2168
Rp2169
(dp2170
g42
I00
sg48
I01
sg49
I00
sg50
F0.1
sbsg2144
g0
(g78
g2
Ntp2171
Rp2172
(dp2173
g42
I00
sg48
I01
sg49
I00
sg50
F0.1
sbsg2145
g0
(g78
g2
Ntp2174
Rp2175
(dp2176
g42
I00
sg48
I01
sg49
I00
sg50
F0.1
sbsg2146
g0
(g78
g2
Ntp2177
Rp2178
(dp2179
g42
I00
sg48
I01
sg49
I00
sg50
F0.1
sbsg2147
g0
(g78
g2
Ntp2180
Rp2181
(dp2182
g42
I00
sg48
I01
sg49
I00
sg50
F0.01
sbsg2148
g0
(g78
g2
Ntp2183
Rp2184
(dp2185
g42
I00
sg48
I01
sg49
I00
sg50
F0.01
sbsg2149
g0
(g78
g2
Ntp2186
Rp2187
(dp2188
g42
I00
sg48
I01
sg49
I00
sg50
F0.01
sbsg2150
g0
(g78
g2
Ntp2189
Rp2190
(dp2191
g42
I00
sg48
I01
sg49
I00
sg50
F0.01
sbsg2151
g0
(g78
g2
Ntp2192
Rp2193
(dp2194
g42
I00
sg48
I01
sg49
I00
sg50
F0.01
sbsg2152
g0
(g78
g2
Ntp2195
Rp2196
(dp2197
g42
I00
sg48
I01
sg49
I00
sg50
F0.01
sbsg2153
g0
(g78
g2
Ntp2198
Rp2199
(dp2200
g42
I00
sg48
I01
sg49
I00
sg50
F0.02
sbsg2154
g0
(g78
g2
Ntp2201
Rp2202
(dp2203
g42
I00
sg48
I01
sg49
I00
sg50
F0.02
sbsg2155
g0
(g78
g2
Ntp2204
Rp2205
(dp2206
g42
I00
sg48
I01
sg49
I00
sg50
F0.02
sbsg645
g0
(g44
g2
Ntp2207
Rp2208
(dp2209
g42
I00
sg48
I01
sg49
I00
sg50
g59
sbsg139
V/cvmfs/cms.cern.ch/el9_amd64_gcc12/cms/cmssw/CMSSW_14_1_0_pre7/src/CalibPPS/ESProducers/python/ctppsBeamParametersFromLHCInfoESSource_cfi.py
p2210
sg141
I2
sg142
g2133
sbsVctppsInterpolatedOpticalFunctionsESSource
p2211
g0
(g1551
g2
Ntp2212
Rp2213
(dp2214
g17
VCTPPSInterpolatedOpticalFunctionsESSource
p2215
sg19
(lp2216
g2139
ag2141
ag2140
aVopticsLabel
p2217
ag2142
ag645
asg42
I00
sg43
Nsg2139
g0
(g44
g2
Ntp2218
Rp2219
(dp2220
g42
I00
sg48
I01
sg49
I00
sg50
g59
sbsg49
I01
sg2141
g0
(g44
g2
Ntp2221
Rp2222
(dp2223
g42
I00
sg48
I01
sg49
I00
sg50
g59
sbsg2140
g0
(g44
g2
Ntp2224
Rp2225
(dp2226
g42
I00
sg48
I01
sg49
I00
sg50
g59
sbsg2217
g0
(g44
g2
Ntp2227
Rp2228
(dp2229
g42
I00
sg48
I01
sg49
I00
sg50
g59
sbsg2142
g0
(g120
g2
Ntp2230
Rp2231
(dp2232
g42
I00
sg48
I01
sg49
I01
sg50
I01
sbsg645
g0
(g44
g2
Ntp2233
Rp2234
(dp2235
g42
I00
sg48
I01
sg49
I00
sg50
g59
sbsg139
V/cvmfs/cms.cern.ch/el9_amd64_gcc12/cms/cmssw/CMSSW_14_1_0_pre7/src/CalibPPS/ESProducers/python/ctppsInterpolatedOpticalFunctionsESSource_cfi.py
p2236
sg141
I2
sg142
g2211
sbsVhcal_db_producer
p2237
g0
(g1551
g2
Ntp2238
Rp2239
(dp2240
g17
VHcalDbProducer
p2241
sg19
(lp2242
Vdump
p2243
aVfile
p2244
asg42
I00
sg43
Nsg2243
g0
(g92
g93
(lp2245
g59
atp2246
Rp2247
(dp2248
g42
I00
sg48
I00
sg49
I00
sg103
I1
sbsg49
I00
sg2244
g0
(g44
g2
Ntp2249
Rp2250
(dp2251
g42
I00
sg48
I00
sg49
I00
sg50
g59
sbsg139
g172
sg141
I55
sg142
g2237
sbsVmultipleScatteringParametrisationMakerESProducer
p2252
g0
(g1551
g2
Ntp2253
Rp2254
(dp2255
g17
VMultipleScatteringParametrisationMakerESProducer
p2256
sg19
(lp2257
g645
asg42
I00
sg43
Nsg645
g0
(g44
g2
Ntp2258
Rp2259
(dp2260
g42
I00
sg48
I01
sg49
I00
sg50
g59
sbsg49
I00
sg139
g172
sg141
I55
sg142
g2252
sbsVsiPixelQualityESProducer
p2261
g0
(g1551
g2
Ntp2262
Rp2263
(dp2264
g17
VSiPixelQualityESProducer
p2265
sg19
(lp2266
VsiPixelQualityFromDbLabel
p2267
aVListOfRecordToMerge
p2268
ag645
asg42
I00
sg43
Nsg2267
g0
(g44
g2
Ntp2269
Rp2270
(dp2271
g42
I00
sg48
I01
sg49
I00
sg50
g59
sbsg49
I00
sg2268
g0
(g613
g93
(lp2272
g0
(g232
g2
Ntp2273
Rp2274
(dp2275
g42
I00
sg48
I01
sg49
I00
sg19
(lp2276
Vrecord
p2277
aVtag
p2278
asg43
Nsg2277
g0
(g44
g2
Ntp2279
Rp2280
(dp2281
g42
I00
sg48
I01
sg49
I00
sg50
VSiPixelQualityFromDbRcd
p2282
sbsg2278
g0
(g44
g2
Ntp2283
Rp2284
(dp2285
g42
I00
sg48
I01
sg49
I00
sg50
g59
sbsbag0
(g232
g2
Ntp2286
Rp2287
(dp2288
g42
I00
sg48
I01
sg49
I00
sg19
(lp2289
g2277
ag2278
asg43
Nsg2277
g0
(g44
g2
Ntp2290
Rp2291
(dp2292
g42
I00
sg48
I01
sg49
I00
sg50
VSiPixelDetVOffRcd
p2293
sbsg2278
g0
(g44
g2
Ntp2294
Rp2295
(dp2296
g42
I00
sg48
I01
sg49
I00
sg50
g59
sbsbatp2297
Rp2298
(dp2299
g42
I00
sg48
I01
sg49
I00
sg103
I1
sbsg645
g0
(g44
g2
Ntp2300
Rp2301
(dp2302
g42
I00
sg48
I01
sg49
I00
sg50
g59
sbsg139
g172
sg141
I55
sg142
g2261
sbsVsiStripBackPlaneCorrectionDepESProducer
p2303
g0
(g1551
g2
Ntp2304
Rp2305
(dp2306
g17
VSiStripBackPlaneCorrectionDepESProducer
p2307
sg19
(lp2308
VLatencyRecord
p2309
aVBackPlaneCorrectionPeakMode
p2310
aVBackPlaneCorrectionDeconvMode
p2311
asg42
I00
sg43
Nsg2309
g0
(g232
g2
Ntp2312
Rp2313
(dp2314
g42
I00
sg48
I01
sg49
I00
sg19
(lp2315
g2277
ag1988
asg43
Nsg2277
g0
(g44
g2
Ntp2316
Rp2317
(dp2318
g42
I00
sg48
I01
sg49
I00
sg50
VSiStripLatencyRcd
p2319
sbsg1988
g0
(g44
g2
Ntp2320
Rp2321
(dp2322
g42
I00
sg48
I00
sg49
I00
sg50
g59
sbsbsg49
I00
sg2310
g0
(g232
g2
Ntp2323
Rp2324
(dp2325
g42
I00
sg48
I01
sg49
I00
sg19
(lp2326
g2277
ag1988
asg43
Nsg2277
g0
(g44
g2
Ntp2327
Rp2328
(dp2329
g42
I00
sg48
I01
sg49
I00
sg50
VSiStripBackPlaneCorrectionRcd
p2330
sbsg1988
g0
(g44
g2
Ntp2331
Rp2332
(dp2333
g42
I00
sg48
I00
sg49
I00
sg50
Vpeak
p2334
sbsbsg2311
g0
(g232
g2
Ntp2335
Rp2336
(dp2337
g42
I00
sg48
I01
sg49
I00
sg19
(lp2338
g2277
ag1988
asg43
Nsg2277
g0
(g44
g2
Ntp2339
Rp2340
(dp2341
g42
I00
sg48
I01
sg49
I00
sg50
g2330
sbsg1988
g0
(g44
g2
Ntp2342
Rp2343
(dp2344
g42
I00
sg48
I00
sg49
I00
sg50
Vdeconvolution
p2345
sbsbsg139
g172
sg141
I55
sg142
g2303
sbsVsiStripGainESProducer
p2346
g0
(g1551
g2
Ntp2347
Rp2348
(dp2349
g17
VSiStripGainESProducer
p2350
sg19
(lp2351
g645
aVprintDebug
p2352
aVAutomaticNormalization
p2353
aVAPVGain
p2354
asg42
I00
sg43
Nsg645
g0
(g44
g2
Ntp2355
Rp2356
(dp2357
g42
I00
sg48
I01
sg49
I00
sg50
g59
sbsg49
I00
sg2352
g0
(g120
g2
Ntp2358
Rp2359
(dp2360
g42
I00
sg48
I00
sg49
I00
sg50
I00
sbsg2353
g0
(g120
g2
Ntp2361
Rp2362
(dp2363
g42
I00
sg48
I01
sg49
I00
sg50
I00
sbsg2354
g0
(g613
g93
(lp2364
g0
(g232
g2
Ntp2365
Rp2366
(dp2367
g42
I00
sg48
I01
sg49
I00
sg19
(lp2368
VRecord
p2369
aVLabel
p2370
aVNormalizationFactor
p2371
asg43
Nsg2369
g0
(g44
g2
Ntp2372
Rp2373
(dp2374
g42
I00
sg48
I01
sg49
I00
sg50
VSiStripApvGainRcd
p2375
sbsg2370
g0
(g44
g2
Ntp2376
Rp2377
(dp2378
g42
I00
sg48
I00
sg49
I00
sg50
g59
sbsg2371
g0
(g78
g2
Ntp2379
Rp2380
(dp2381
g42
I00
sg48
I00
sg49
I00
sg50
F1.0
sbsbag0
(g232
g2
Ntp2382
Rp2383
(dp2384
g42
I00
sg48
I01
sg49
I00
sg19
(lp2385
g2369
ag2370
ag2371
asg43
Nsg2369
g0
(g44
g2
Ntp2386
Rp2387
(dp2388
g42
I00
sg48
I01
sg49
I00
sg50
VSiStripApvGain2Rcd
p2389
sbsg2370
g0
(g44
g2
Ntp2390
Rp2391
(dp2392
g42
I00
sg48
I00
sg49
I00
sg50
g59
sbsg2371
g0
(g78
g2
Ntp2393
Rp2394
(dp2395
g42
I00
sg48
I00
sg49
I00
sg50
F1.0
sbsbatp2396
Rp2397
(dp2398
g42
I00
sg48
I01
sg49
I00
sg103
I1
sbsg139
g172
sg141
I55
sg142
g2346
sbsVsiStripLorentzAngleDepESProducer
p2399
g0
(g1551
g2
Ntp2400
Rp2401
(dp2402
g17
VSiStripLorentzAngleDepESProducer
p2403
sg19
(lp2404
g2309
aVLorentzAnglePeakMode
p2405
aVLorentzAngleDeconvMode
p2406
asg42
I00
sg43
Nsg2309
g0
(g232
g2
Ntp2407
Rp2408
(dp2409
g42
I00
sg48
I01
sg49
I00
sg19
(lp2410
g2277
ag1988
asg43
Nsg2277
g0
(g44
g2
Ntp2411
Rp2412
(dp2413
g42
I00
sg48
I01
sg49
I00
sg50
g2319
sbsg1988
g0
(g44
g2
Ntp2414
Rp2415
(dp2416
g42
I00
sg48
I00
sg49
I00
sg50
g59
sbsbsg49
I00
sg2405
g0
(g232
g2
Ntp2417
Rp2418
(dp2419
g42
I00
sg48
I01
sg49
I00
sg19
(lp2420
g2277
ag1988
asg43
Nsg2277
g0
(g44
g2
Ntp2421
Rp2422
(dp2423
g42
I00
sg48
I01
sg49
I00
sg50
VSiStripLorentzAngleRcd
p2424
sbsg1988
g0
(g44
g2
Ntp2425
Rp2426
(dp2427
g42
I00
sg48
I00
sg49
I00
sg50
g2334
sbsbsg2406
g0
(g232
g2
Ntp2428
Rp2429
(dp2430
g42
I00
sg48
I01
sg49
I00
sg19
(lp2431
g2277
ag1988
asg43
Nsg2277
g0
(g44
g2
Ntp2432
Rp2433
(dp2434
g42
I00
sg48
I01
sg49
I00
sg50
g2424
sbsg1988
g0
(g44
g2
Ntp2435
Rp2436
(dp2437
g42
I00
sg48
I00
sg49
I00
sg50
g2345
sbsbsg139
g172
sg141
I55
sg142
g2399
sbsVsiStripQualityESProducer
p2438
g0
(g1551
g2
Ntp2439
Rp2440
(dp2441
g17
VSiStripQualityESProducer
p2442
sg19
(lp2443
g645
ag2268
aVReduceGranularity
p2444
aVThresholdForReducedGranularity
p2445
aVPrintDebugOutput
p2446
aVUseEmptyRunInfo
p2447
asg42
I00
sg43
Nsg645
g0
(g44
g2
Ntp2448
Rp2449
(dp2450
g42
I00
sg48
I01
sg49
I00
sg50
g59
sbsg49
I01
sg2268
g0
(g613
g93
(lp2451
g0
(g232
g2
Ntp2452
Rp2453
(dp2454
g42
I00
sg48
I01
sg49
I00
sg19
(lp2455
g2277
ag2278
asg43
Nsg2277
g0
(g44
g2
Ntp2456
Rp2457
(dp2458
g42
I00
sg48
I01
sg49
I00
sg50
VSiStripDetVOffRcd
p2459
sbsg2278
g0
(g44
g2
Ntp2460
Rp2461
(dp2462
g42
I00
sg48
I01
sg49
I00
sg50
g59
sbsbag0
(g232
g2
Ntp2463
Rp2464
(dp2465
g42
I00
sg48
I01
sg49
I00
sg19
(lp2466
g2277
ag2278
asg43
Nsg2277
g0
(g44
g2
Ntp2467
Rp2468
(dp2469
g42
I00
sg48
I01
sg49
I00
sg50
VSiStripDetCablingRcd
p2470
sbsg2278
g0
(g44
g2
Ntp2471
Rp2472
(dp2473
g42
I00
sg48
I01
sg49
I00
sg50
g59
sbsbag0
(g232
g2
Ntp2474
Rp2475
(dp2476
g42
I00
sg48
I01
sg49
I00
sg19
(lp2477
g2277
ag2278
asg43
Nsg2277
g0
(g44
g2
Ntp2478
Rp2479
(dp2480
g42
I00
sg48
I01
sg49
I00
sg50
VRunInfoRcd
p2481
sbsg2278
g0
(g44
g2
Ntp2482
Rp2483
(dp2484
g42
I00
sg48
I01
sg49
I00
sg50
g59
sbsbag0
(g232
g2
Ntp2485
Rp2486
(dp2487
g42
I00
sg48
I01
sg49
I00
sg19
(lp2488
g2277
ag2278
asg43
Nsg2277
g0
(g44
g2
Ntp2489
Rp2490
(dp2491
g42
I00
sg48
I01
sg49
I00
sg50
VSiStripBadChannelRcd
p2492
sbsg2278
g0
(g44
g2
Ntp2493
Rp2494
(dp2495
g42
I00
sg48
I01
sg49
I00
sg50
g59
sbsbag0
(g232
g2
Ntp2496
Rp2497
(dp2498
g42
I00
sg48
I01
sg49
I00
sg19
(lp2499
g2277
ag2278
asg43
Nsg2277
g0
(g44
g2
Ntp2500
Rp2501
(dp2502
g42
I00
sg48
I01
sg49
I00
sg50
VSiStripBadFiberRcd
p2503
sbsg2278
g0
(g44
g2
Ntp2504
Rp2505
(dp2506
g42
I00
sg48
I01
sg49
I00
sg50
g59
sbsbag0
(g232
g2
Ntp2507
Rp2508
(dp2509
g42
I00
sg48
I01
sg49
I00
sg19
(lp2510
g2277
ag2278
asg43
Nsg2277
g0
(g44
g2
Ntp2511
Rp2512
(dp2513
g42
I00
sg48
I01
sg49
I00
sg50
VSiStripBadModuleRcd
p2514
sbsg2278
g0
(g44
g2
Ntp2515
Rp2516
(dp2517
g42
I00
sg48
I01
sg49
I00
sg50
g59
sbsbag0
(g232
g2
Ntp2518
Rp2519
(dp2520
g42
I00
sg48
I01
sg49
I00
sg19
(lp2521
g2277
ag2278
asg43
Nsg2277
g0
(g44
g2
Ntp2522
Rp2523
(dp2524
g42
I00
sg48
I01
sg49
I00
sg50
VSiStripBadStripRcd
p2525
sbsg2278
g0
(g44
g2
Ntp2526
Rp2527
(dp2528
g42
I00
sg48
I01
sg49
I00
sg50
g59
sbsbatp2529
Rp2530
(dp2531
g42
I00
sg48
I01
sg49
I00
sg103
I1
sbsg2444
g0
(g120
g2
Ntp2532
Rp2533
(dp2534
g42
I00
sg48
I01
sg49
I00
sg50
I00
sbsg2445
g0
(g78
g2
Ntp2535
Rp2536
(dp2537
g42
I00
sg48
I01
sg49
I00
sg50
F0.3
sbsg2446
g0
(g120
g2
Ntp2538
Rp2539
(dp2540
g42
I00
sg48
I01
sg49
I00
sg50
I00
sbsg2447
g0
(g120
g2
Ntp2541
Rp2542
(dp2543
g42
I00
sg48
I01
sg49
I00
sg50
I00
sbsg139
g172
sg141
I55
sg142
g2438
sbsVsistripconn
p2544
g0
(g1551
g2
Ntp2545
Rp2546
(dp2547
g17
VSiStripConnectivity
p2548
sg19
(lp2549
sg42
I00
sg43
Nsg49
I00
sg139
g172
sg141
I55
sg142
g2544
sbsVstripCPEESProducer
p2550
g0
(g1551
g2
Ntp2551
Rp2552
(dp2553
g17
g2065
sg19
(lp2554
g2048
ag2067
ag2068
asg42
I00
sg43
Nsg2048
g0
(g44
g2
Ntp2555
Rp2556
(dp2557
g42
I00
sg48
I01
sg49
I00
sg50
VstripCPE
p2558
sbsg49
I00
sg2067
g0
(g44
g2
Ntp2559
Rp2560
(dp2561
g42
I00
sg48
I01
sg49
I00
sg50
VSimpleStripCPE
p2562
sbsg2068
g0
(g232
g2
Ntp2563
Rp2564
(dp2565
g42
I00
sg48
I01
sg49
I00
sg19
(lp2566
sg43
Nsbsg139
g172
sg141
I55
sg142
g2550
sbssV_Process__esprefers
p2567
(dp2568
Ves_prefer_hcalHardcode
p2569
g0
(cFWCore.ParameterSet.Modules
ESPrefer
p2570
g2
Ntp2571
Rp2572
(dp2573
g17
g814
sg19
(lp2574
sg42
I00
sg43
Nsg49
I00
sg139
g172
sg141
I91
sV_targetLabel
p2575
g810
sg142
g2569
sbssV_Process__aliases
p2576
(dp2577
sV_Process__psets
p2578
(dp2579
Voptions
p2580
g0
(g232
g2
Ntp2581
Rp2582
(dp2583
g42
I00
sg48
I00
sg49
I00
sg19
(lp2584
VnumberOfThreads
p2585
aVnumberOfStreams
p2586
aVnumberOfConcurrentRuns
p2587
aVnumberOfConcurrentLuminosityBlocks
p2588
aVeventSetup
p2589
aVaccelerators
p2590
aVwantSummary
p2591
aVfileMode
p2592
aVforceEventSetupCacheClearOnNewRun
p2593
aVthrowIfIllegalParameter
p2594
aVprintDependencies
p2595
aVdeleteNonConsumedUnscheduledModules
p2596
aVsizeOfStackForThreadsInKB
p2597
aVRethrow
p2598
aVTryToContinue
p2599
aVIgnoreCompletely
p2600
aVmodulesToCallForTryToContinue
p2601
aVcanDeleteEarly
p2602
aVholdsReferencesToDeleteEarly
p2603
aVmodulesToIgnoreForDeleteEarly
p2604
aVdumpOptions
p2605
aVallowUnscheduled
p2606
aVemptyRunLumiMode
p2607
aVmakeTriggerResults
p2608
asg43
Nsg2585
g0
(g2031
g2
Ntp2609
Rp2610
(dp2611
g42
I00
sg48
I00
sg49
I00
sg50
I1
sbsg2586
g0
(g2031
g2
Ntp2612
Rp2613
(dp2614
g42
I00
sg48
I00
sg49
I00
sg50
I0
sbsg2587
g0
(g2031
g2
Ntp2615
Rp2616
(dp2617
g42
I00
sg48
I00
sg49
I00
sg50
I1
sbsg2588
g0
(g2031
g2
Ntp2618
Rp2619
(dp2620
g42
I00
sg48
I00
sg49
I00
sg50
I0
sbsg2589
g0
(g232
g2
Ntp2621
Rp2622
(dp2623
g42
I00
sg48
I00
sg49
I00
sg19
(lp2624
VnumberOfConcurrentIOVs
p2625
aVforceNumberOfConcurrentIOVs
p2626
asg43
Nsg2625
g0
(g2031
g2
Ntp2627
Rp2628
(dp2629
g42
I00
sg48
I00
sg49
I00
sg50
I0
sbsg2626
g0
(g232
g2
Ntp2630
Rp2631
(dp2632
g42
I00
sg48
I00
sg49
I00
sg19
(lp2633
sg43
g0
(cFWCore.ParameterSet.Types
_RequiredParameter
p2634
g2
Ntp2635
Rp2636
(dp2637
g42
I00
sg48
I00
sg49
I00
sg137
g2031
sg138
Nsbsbsbsg2590
g0
(g92
g93
(lp2638
V*
p2639
atp2640
Rp2641
(dp2642
g42
I00
sg48
I00
sg49
I00
sg103
I1
sbsg2591
g0
(g120
g2
Ntp2643
Rp2644
(dp2645
g42
I00
sg48
I00
sg49
I00
sg50
I00
sbsg2592
g0
(g44
g2
Ntp2646
Rp2647
(dp2648
g42
I00
sg48
I00
sg49
I00
sg50
VFULLMERGE
p2649
sbsg2593
g0
(g120
g2
Ntp2650
Rp2651
(dp2652
g42
I00
sg48
I00
sg49
I00
sg50
I00
sbsg2594
g0
(g120
g2
Ntp2653
Rp2654
(dp2655
g42
I00
sg48
I00
sg49
I00
sg50
I01
sbsg2595
g0
(g120
g2
Ntp2656
Rp2657
(dp2658
g42
I00
sg48
I00
sg49
I00
sg50
I00
sbsg2596
g0
(g120
g2
Ntp2659
Rp2660
(dp2661
g42
I00
sg48
I00
sg49
I00
sg50
I01
sbsg2597
g0
(g133
g2
Ntp2662
Rp2663
(dp2664
g42
I00
sg48
I00
sg49
I00
sg137
g2031
sg138
Nsbsg2598
g0
(g92
g93
(lp2665
tp2666
Rp2667
(dp2668
g42
I00
sg48
I00
sg49
I00
sg103
I1
sbsg2599
g0
(g92
g93
(lp2669
tp2670
Rp2671
(dp2672
g42
I00
sg48
I00
sg49
I00
sg103
I1
sbsg2600
g0
(g92
g93
(lp2673
tp2674
Rp2675
(dp2676
g42
I00
sg48
I00
sg49
I00
sg103
I1
sbsg2601
g0
(g92
g93
(lp2677
tp2678
Rp2679
(dp2680
g42
I00
sg48
I00
sg49
I00
sg103
I1
sbsg2602
g0
(g92
g93
(lp2681
tp2682
Rp2683
(dp2684
g42
I00
sg48
I00
sg49
I00
sg103
I1
sbsg2603
g0
(g613
g93
(lp2685
tp2686
Rp2687
(dp2688
g42
I00
sg48
I00
sg49
I00
sg103
I1
sbsg2604
g0
(g92
g93
(lp2689
tp2690
Rp2691
(dp2692
g42
I00
sg48
I00
sg49
I00
sg103
I1
sbsg2605
g0
(g120
g2
Ntp2693
Rp2694
(dp2695
g42
I00
sg48
I00
sg49
I00
sg50
I00
sbsg2606
g0
(cFWCore.ParameterSet.Types
_ObsoleteParameter
p2696
g2
Ntp2697
Rp2698
(dp2699
g42
I00
sg48
I00
sg49
I00
sg137
g120
sg138
Nsbsg2607
g0
(g2696
g2
Ntp2700
Rp2701
(dp2702
g42
I00
sg48
I00
sg49
I00
sg137
g44
sg138
Nsbsg2608
g0
(g2696
g2
Ntp2703
Rp2704
(dp2705
g42
I00
sg48
I00
sg49
I00
sg137
g120
sg138
Nsbsg142
g2580
sbsVmaxLuminosityBlocks
p2706
g0
(g232
g2
Ntp2707
Rp2708
(dp2709
g42
I00
sg48
I00
sg49
I00
sg19
(lp2710
Vinput
p2711
asg43
Nsg2711
g0
(g319
g2
Ntp2712
Rp2713
(dp2714
g42
I00
sg48
I00
sg49
I00
sg50
I-1
sbsg142
g2706
sbsVCondDB
p2715
g0
(g232
g2
Ntp2716
Rp2717
(dp2718
g42
I00
sg48
I01
sg49
I00
sg19
(lp2719
g566
ag567
asg43
Nsg566
g0
(g232
g2
Ntp2720
Rp2721
(dp2722
g42
I00
sg48
I01
sg49
I00
sg19
(lp2723
g582
ag583
ag584
ag585
ag586
asg43
Nsg582
g0
(g44
g2
Ntp2724
Rp2725
(dp2726
g42
I00
sg48
I00
sg49
I00
sg50
g59
sbsg583
g0
(g319
g2
Ntp2727
Rp2728
(dp2729
g42
I00
sg48
I00
sg49
I00
sg50
I0
sbsg584
g0
(g44
g2
Ntp2730
Rp2731
(dp2732
g42
I00
sg48
I00
sg49
I00
sg50
g59
sbsg585
g0
(g319
g2
Ntp2733
Rp2734
(dp2735
g42
I00
sg48
I00
sg49
I00
sg50
I0
sbsg586
g0
(g319
g2
Ntp2736
Rp2737
(dp2738
g42
I00
sg48
I00
sg49
I00
sg50
I0
sbsbsg567
g0
(g44
g2
Ntp2739
Rp2740
(dp2741
g42
I00
sg48
I01
sg49
I00
sg50
g59
sbsg142
g2715
sbsg824
g876
sVmaxEvents
p2742
g0
(g232
g2
Ntp2743
Rp2744
(dp2745
g42
I00
sg48
I00
sg49
I01
sg19
(lp2746
g2711
ag503
asg43
Nsg2711
g0
(g133
g2
Ntp2747
Rp2748
(dp2749
g42
I00
sg48
I00
sg49
I00
sg137
g319
sg138
g0
(g319
g2
Ntp2750
Rp2751
(dp2752
g42
I00
sg48
I00
sg49
I00
sg50
I-1
sbsbsg503
g0
(g133
g2
Ntp2753
Rp2754
(dp2755
g42
I00
sg48
I00
sg49
I00
sg137
g0
(cFWCore.ParameterSet.Types
_AllowedParameterTypes
p2756
g2
Ntp2757
Rp2758
(dp2759
V_AllowedParameterTypes__types
p2760
(g319
g232
tp2761
sV_default
p2762
NsV__name__
p2763
Vallowed(cms.int32,cms.PSet)
p2764
sbsg138
Nsbsg142
g2742
sbsVNANOAODEventContent
p2765
g0
(g232
g2
Ntp2766
Rp2767
(dp2768
g42
I00
sg48
I01
sg49
I00
sg19
(lp2769
g215
aVcompressionLevel
p2770
aVcompressionAlgorithm
p2771
asg43
Nsg215
g230
sg2770
g0
(g319
g2
Ntp2772
Rp2773
(dp2774
g42
I00
sg48
I00
sg49
I00
sg50
I9
sbsg2771
g0
(g44
g2
Ntp2775
Rp2776
(dp2777
g42
I00
sg48
I00
sg49
I00
sg50
VLZMA
p2778
sbsg142
g2765
sbsVNANOAODSIMEventContent
p2779
g0
(g232
g2
Ntp2780
Rp2781
(dp2782
g42
I00
sg48
I01
sg49
I00
sg19
(lp2783
g215
ag2770
ag2771
asg43
Nsg215
g0
(g92
g93
(lp2784
g222
ag223
ag224
ag225
ag226
ag227
atp2785
Rp2786
(dp2787
g42
I00
sg48
I00
sg49
I00
sg103
I1
sbsg2770
g0
(g319
g2
Ntp2788
Rp2789
(dp2790
g42
I00
sg48
I00
sg49
I00
sg50
I9
sbsg2771
g0
(g44
g2
Ntp2791
Rp2792
(dp2793
g42
I00
sg48
I00
sg49
I00
sg50
g2778
sbsg142
g2779
sbsVNanoAODEDMEventContent
p2794
g0
(g232
g2
Ntp2795
Rp2796
(dp2797
g42
I00
sg48
I01
sg49
I00
sg19
(lp2798
g215
asg43
Nsg215
g0
(g92
g93
(lp2799
g222
ag223
ag224
ag225
ag226
ag227
atp2800
Rp2801
(dp2802
g42
I00
sg48
I00
sg49
I00
sg103
I1
sbsg142
g2794
sbssV_Process__vpsets
p2803
(dp2804
sV_cloneToObjectDict
p2805
(dp2806
L140388329371920L
g2582
sL140388330739744L
g0
(g232
g2
Ntp2807
Rp2808
(dp2809
g42
I00
sg48
I00
sg49
I00
sg19
(lp2810
g2711
ag503
asg43
Nsg2711
g0
(g133
g2
Ntp2811
Rp2812
(dp2813
g42
I00
sg48
I00
sg49
I00
sg137
g319
sg138
Nsbsg503
g0
(g133
g2
Ntp2814
Rp2815
(dp2816
g42
I00
sg48
I00
sg49
I00
sg137
g0
(g2756
g2
Ntp2817
Rp2818
(dp2819
g2760
(g319
g232
tp2820
sg2762
Nsg2763
Vallowed(cms.int32,cms.PSet)
p2821
sbsg138
Nsbsg142
NsbsL140388330741184L
g2708
sL140388330725920L
g1553
sL140388326933456L
g1597
sL140388330481744L
g1613
sL140388326934128L
g1618
sL140388326970032L
g1626
sL140388326971280L
g1634
sL140388330264032L
g1642
sL140388326934848L
g1679
sL140388326933168L
g1687
sL140388326934272L
g1692
sL140388326934560L
g1700
sL140388341472560L
g1708
sL140388329294480L
g1718
sL140388326935616L
g1723
sL140388326933840L
g1728
sL140388341472992L
g1736
sL140388330725536L
g1741
sL140388332945264L
g1752
sL140388330884688L
g1761
sL140388326970992L
g1770
sL140388326971856L
g540
sL140388326515760L
g1778
sL140388326972720L
g1789
sL140388326972528L
g1798
sL140388326969552L
g1807
sL140388326973152L
g1824
sL140388326972096L
g1861
sL140388326972144L
g1891
sL140388330481216L
g1910
sL140388329294576L
g1922
sL140388330263504L
g1939
sL140388341472944L
g1954
sL140388326544672L
g1963
sL140388326547168L
g1983
sL140388326546064L
g2003
sL140388326632944L
g2019
sL140388343994784L
g2717
sL140388326945216L
g2027
sL140388326945456L
g2037
sL140388341790512L
g562
sL140388326632896L
g876
sL140388326631984L
g642
sL140388326271968L
g2045
sL140388326271104L
g2063
sL140388326299728L
g2135
sL140388326300496L
g2213
sL140388326698000L
g812
sL140388326698240L
g2572
sL140388326946368L
g2239
sL140388326298048L
g2254
sL140388326282000L
g2263
sL140388326284208L
g0
(g1551
g2
Ntp2822
Rp2823
(dp2824
g17
g2265
sg19
(lp2825
g2267
ag2268
ag645
asg42
I00
sg43
Nsg2267
g0
(g44
g2
Ntp2826
Rp2827
(dp2828
g42
I00
sg48
I01
sg49
I01
sg50
VforRawToDigi
p2829
sbsg49
I00
sg2268
g0
(g613
g93
(lp2830
g0
(g232
g2
Ntp2831
Rp2832
(dp2833
g42
I00
sg48
I01
sg49
I00
sg19
(lp2834
g2277
ag2278
asg43
Nsg2277
g0
(g44
g2
Ntp2835
Rp2836
(dp2837
g42
I00
sg48
I01
sg49
I00
sg50
g2282
sbsg2278
g0
(g44
g2
Ntp2838
Rp2839
(dp2840
g42
I00
sg48
I01
sg49
I00
sg50
g59
sbsbag0
(g232
g2
Ntp2841
Rp2842
(dp2843
g42
I00
sg48
I01
sg49
I00
sg19
(lp2844
g2277
ag2278
asg43
Nsg2277
g0
(g44
g2
Ntp2845
Rp2846
(dp2847
g42
I00
sg48
I01
sg49
I00
sg50
g2293
sbsg2278
g0
(g44
g2
Ntp2848
Rp2849
(dp2850
g42
I00
sg48
I01
sg49
I00
sg50
g59
sbsbatp2851
Rp2852
(dp2853
g42
I00
sg48
I01
sg49
I00
sg103
I1
sbsg645
g0
(g44
g2
Ntp2854
Rp2855
(dp2856
g42
I00
sg48
I01
sg49
I01
sg50
g2829
sbsg139
V/cvmfs/cms.cern.ch/el9_amd64_gcc12/cms/cmssw/CMSSW_14_1_0_pre7/src/CalibTracker/SiPixelESProducers/python/siPixelQualityForRawToDigiESProducer_cfi.py
p2857
sg141
I5
sg142
NsbsL140388326743632L
g2305
sL140388326741952L
g2348
sL140388326742720L
g2401
sL140388326282624L
g2440
sL140388326698960L
g2546
sL140388326270048L
g2552
sL140388326374608L
g15
sL140388326374656L
g2744
sL140388330119376L
g181
sL140388326404544L
g2767
sL140388326404448L
g2781
sL140388326404688L
g2796
sL140388326404208L
g210
sL140388326404256L
g202
ssV_Process__InExtendCall
p2858
I00
sV_Process__partialschedules
p2859
(dp2860
sV_Process__isStrict
p2861
I00
sV_Process__modifiers
p2862
(g0
(cFWCore.ParameterSet.Config
ModifierChain
p2863
g2
Ntp2864
Rp2865
(dp2866
V_ModifierChain__chosen
p2867
I01
sV_ModifierChain__chain
p2868
(g0
(g2863
g2
Ntp2869
Rp2870
(dp2871
g2867
I01
sg2868
(g0
(g2863
g2
Ntp2872
Rp2873
(dp2874
g2867
I01
sg2868
(g0
(g2863
g2
Ntp2875
Rp2876
(dp2877
g2867
I01
sg2868
(g0
(cFWCore.ParameterSet.Config
Modifier
p2878
g2
Ntp2879
Rp2880
(dp2881
V_Modifier__processModifiers
p2882
(lp2883
sV_Modifier__chosen
p2884
I01
sbg0
(g2878
g2
Ntp2885
Rp2886
(dp2887
g2882
(lp2888
sg2884
I01
sbg0
(g2878
g2
Ntp2889
Rp2890
(dp2891
g2882
(lp2892
sg2884
I01
sbg0
(g2878
g2
Ntp2893
Rp2894
(dp2895
g2882
(lp2896
sg2884
I01
sbg0
(g2878
g2
Ntp2897
Rp2898
(dp2899
g2882
(lp2900
sg2884
I01
sbtp2901
sbg0
(g2878
g2
Ntp2902
Rp2903
(dp2904
g2882
(lp2905
sg2884
I01
sbg0
(g2878
g2
Ntp2906
Rp2907
(dp2908
g2882
(lp2909
sg2884
I01
sbg0
(g2878
g2
Ntp2910
Rp2911
(dp2912
g2882
(lp2913
sg2884
I01
sbg0
(g2878
g2
Ntp2914
Rp2915
(dp2916
g2882
(lp2917
sg2884
I01
sbg0
(g2878
g2
Ntp2918
Rp2919
(dp2920
g2882
(lp2921
sg2884
I01
sbg0
(g2878
g2
Ntp2922
Rp2923
(dp2924
g2882
(lp2925
sg2884
I01
sbg0
(g2878
g2
Ntp2926
Rp2927
(dp2928
g2882
(lp2929
sg2884
I01
sbg0
(g2863
g2
Ntp2930
Rp2931
(dp2932
g2867
I01
sg2868
(g0
(g2878
g2
Ntp2933
Rp2934
(dp2935
g2882
(lp2936
sg2884
I01
sbg0
(g2878
g2
Ntp2937
Rp2938
(dp2939
g2882
(lp2940
sg2884
I01
sbg0
(g2878
g2
Ntp2941
Rp2942
(dp2943
g2882
(lp2944
sg2884
I01
sbg0
(g2878
g2
Ntp2945
Rp2946
(dp2947
g2882
(lp2948
sg2884
I01
sbg0
(g2878
g2
Ntp2949
Rp2950
(dp2951
g2882
(lp2952
sg2884
I01
sbg0
(g2878
g2
Ntp2953
Rp2954
(dp2955
g2882
(lp2956
sg2884
I01
sbg0
(g2878
g2
Ntp2957
Rp2958
(dp2959
g2882
(lp2960
sg2884
I01
sbtp2961
sbg0
(g2878
g2
Ntp2962
Rp2963
(dp2964
g2882
(lp2965
sg2884
I01
sbg0
(g2878
g2
Ntp2966
Rp2967
(dp2968
g2882
(lp2969
sg2884
I01
sbg0
(g2878
g2
Ntp2970
Rp2971
(dp2972
g2882
(lp2973
sg2884
I01
sbg0
(g2878
g2
Ntp2974
Rp2975
(dp2976
g2882
(lp2977
sg2884
I01
sbtp2978
sbg0
(g2878
g2
Ntp2979
Rp2980
(dp2981
g2882
(lp2982
sg2884
I01
sbg0
(g2878
g2
Ntp2983
Rp2984
(dp2985
g2882
(lp2986
sg2884
I01
sbg0
(g2878
g2
Ntp2987
Rp2988
(dp2989
g2882
(lp2990
sg2884
I01
sbg0
(g2878
g2
Ntp2991
Rp2992
(dp2993
g2882
(lp2994
sg2884
I01
sbg0
(g2878
g2
Ntp2995
Rp2996
(dp2997
g2882
(lp2998
sg2884
I01
sbg0
(g2878
g2
Ntp2999
Rp3000
(dp3001
g2882
(lp3002
sg2884
I01
sbg0
(g2878
g2
Ntp3003
Rp3004
(dp3005
g2882
(lp3006
sg2884
I01
sbg0
(g2878
g2
Ntp3007
Rp3008
(dp3009
g2882
(lp3010
sg2884
I01
sbtp3011
sbg0
(g2878
g2
Ntp3012
Rp3013
(dp3014
g2882
(lp3015
sg2884
I01
sbg0
(g2878
g2
Ntp3016
Rp3017
(dp3018
g2882
(lp3019
sg2884
I01
sbg0
(g2878
g2
Ntp3020
Rp3021
(dp3022
g2882
(lp3023
sg2884
I01
sbg0
(g2878
g2
Ntp3024
Rp3025
(dp3026
g2882
(lp3027
sg2884
I01
sbg0
(g2878
g2
Ntp3028
Rp3029
(dp3030
g2882
(lp3031
sg2884
I01
sbg0
(g2878
g2
Ntp3032
Rp3033
(dp3034
g2882
(lp3035
sg2884
I01
sbg0
(g2878
g2
Ntp3036
Rp3037
(dp3038
g2882
(lp3039
sg2884
I01
sbg0
(g2878
g2
Ntp3040
Rp3041
(dp3042
g2882
(lp3043
sg2884
I01
sbg0
(g2878
g2
Ntp3044
Rp3045
(dp3046
g2882
(lp3047
sg2884
I01
sbg0
(g2878
g2
Ntp3048
Rp3049
(dp3050
g2882
(lp3051
sg2884
I01
sbg0
(g2878
g2
Ntp3052
Rp3053
(dp3054
g2882
(lp3055
sg2884
I01
sbg0
(g2878
g2
Ntp3056
Rp3057
(dp3058
g2882
(lp3059
sg2884
I01
sbtp3060
sbtp3061
sV_Process__accelerators
p3062
(dp3063
sg2580
g2582
sg2706
g2708
sg289
g292
sg1550
g1553
sg1595
g1597
sg1611
g1613
sg1616
g1618
sg1624
g1626
sg1632
g1634
sg1640
g1642
sg1677
g1679
sg1685
g1687
sg1690
g1692
sg1698
g1700
sg1706
g1708
sg1716
g1718
sg1721
g1723
sg1726
g1728
sg1734
g1736
sg1739
g1741
sg1750
g1752
sg1759
g1761
sg1768
g1770
sg537
g540
sg1776
g1778
sg1787
g1789
sg1796
g1798
sg1805
g1807
sg1822
g1824
sg1859
g1861
sg1889
g1891
sg1908
g1910
sg1920
g1922
sg1937
g1939
sg1952
g1954
sg1961
g1963
sg1981
g1983
sg2001
g2003
sg2017
g2019
sg2715
g2717
sg2025
g2027
sg2035
g2037
sg560
g562
sg824
g876
sg640
g642
sg2043
g2045
sg2061
g2063
sg2133
g2135
sg2211
g2213
sg810
g812
sg2569
g2572
sg2237
g2239
sg2252
g2254
sg2261
g2263
sg2303
g2305
sg2346
g2348
sg2399
g2401
sg2438
g2440
sg2544
g2546
sg2550
g2552
sg12
g15
sg2742
g2744
sVsource
p3064
g148
sg150
g148
sg199
g181
sg2765
g2767
sg2779
g2781
sg2794
g2796
sg242
g210
sg195
g202
sVschedule
p3065
g249
sb.