ccopy_reg
_reconstructor
p0
(cFWCore.ParameterSet.Config
Process
p1
c__builtin__
object
p2
Ntp3
Rp4
(dp5
V_Process__name
p6
VRPCTnP
p7
sV_Process__filters
p8
(dp9
sV_Process__producers
p10
(dp11
VmuRPCTnPFlatTableProducer
p12
g0
(cFWCore.ParameterSet.Modules
EDProducer
p13
g2
Ntp14
Rp15
(dp16
V_TypedParameterizable__type
p17
VMuRPCTnPFlatTableProducer
p18
sV_Parameterizable__parameterNames
p19
(lp20
Vname
p21
aVprimaryVertexCollectionTag
p22
aVtriggerResultsTag
p23
aVtriggerEventTag
p24
aVmuonCollectionTag
p25
aVrpcRecHitCollectionTag
p26
aVtagMuonMinPt
p27
aVtagMuonMaxAbsEta
p28
aVtagMuonIdType
p29
aVtagMuonMaxRelIso
p30
aVtagMuonTriggerMatchingPaths
p31
aVtagMuonTriggerMatchingMaxDeltaR
p32
aVtagMuonTriggerMatchingMaxDeltaPtRel
p33
aVprobeMuonMinPt
p34
aVprobeMuonMaxAbsEta
p35
aVprobeMuonIdType
p36
aVdimuonCheckOppositeSign
p37
aVdimuonMinDeltaR
p38
aVdimuonMinMass
p39
aVdimuonMaxMass
p40
aVmightGet
p41
asV_isFrozen
p42
I00
sV_Parameterizable__validator
p43
Nsg21
g0
(cFWCore.ParameterSet.Types
string
p44
g2
Ntp45
Rp46
(dp47
g42
I00
sV_ParameterTypeBase__isTracked
p48
I01
sV_isModified
p49
I00
sV_value
p50
VrpcTnP
p51
sbsg49
I01
sg22
g0
(cFWCore.ParameterSet.Types
InputTag
p52
g2
Ntp53
Rp54
(dp55
g42
I00
sg48
I01
sg49
I00
sV_InputTag__moduleLabel
p56
VofflinePrimaryVertices
p57
sV_InputTag__productInstance
p58
V
p59
sV_InputTag__processName
p60
g59
sbsg23
g0
(g52
g2
Ntp61
Rp62
(dp63
g42
I00
sg48
I01
sg49
I00
sg56
VTriggerResults
p64
sg58
g59
sg60
VHLT
p65
sbsg24
g0
(g52
g2
Ntp66
Rp67
(dp68
g42
I00
sg48
I01
sg49
I00
sg56
VhltTriggerSummaryAOD
p69
sg58
g59
sg60
g65
sbsg25
g0
(g52
g2
Ntp70
Rp71
(dp72
g42
I00
sg48
I01
sg49
I00
sg56
Vmuons
p73
sg58
g59
sg60
g59
sbsg26
g0
(g52
g2
Ntp74
Rp75
(dp76
g42
I00
sg48
I01
sg49
I00
sg56
VrpcRecHits
p77
sg58
g59
sg60
g59
sbsg27
g0
(cFWCore.ParameterSet.Types
double
p78
g2
Ntp79
Rp80
(dp81
g42
I00
sg48
I01
sg49
I00
sg50
I30
sbsg28
g0
(g78
g2
Ntp82
Rp83
(dp84
g42
I00
sg48
I01
sg49
I00
sg50
F2.4
sbsg29
g0
(g44
g2
Ntp85
Rp86
(dp87
g42
I00
sg48
I01
sg49
I00
sg50
Vtight
p88
sbsg30
g0
(g78
g2
Ntp89
Rp90
(dp91
g42
I00
sg48
I01
sg49
I00
sg50
F0.25
sbsg31
g0
(cFWCore.ParameterSet.Types
vstring
p92
c__builtin__
list
p93
(lp94
VHLT_IsoMu24
p95
aVHLT_IsoMu27
p96
aVHLT_IsoMu30
p97
aVHLT_Mu50
p98
aVHLT_Mu55
p99
atp100
Rp101
(dp102
g42
I00
sg48
I01
sg49
I01
sV_nPerLine
p103
I1
sbsg32
g0
(g78
g2
Ntp104
Rp105
(dp106
g42
I00
sg48
I01
sg49
I00
sg50
F0.1
sbsg33
g0
(g78
g2
Ntp107
Rp108
(dp109
g42
I00
sg48
I01
sg49
I00
sg50
F0.5
sbsg34
g0
(g78
g2
Ntp110
Rp111
(dp112
g42
I00
sg48
I01
sg49
I00
sg50
I10
sbsg35
g0
(g78
g2
Ntp113
Rp114
(dp115
g42
I00
sg48
I01
sg49
I00
sg50
F2.1
sbsg36
g0
(g44
g2
Ntp116
Rp117
(dp118
g42
I00
sg48
I01
sg49
I00
sg50
Vtracker
p119
sbsg37
g0
(cFWCore.ParameterSet.Types
bool
p120
g2
Ntp121
Rp122
(dp123
g42
I00
sg48
I01
sg49
I00
sg50
I01
sbsg38
g0
(g78
g2
Ntp124
Rp125
(dp126
g42
I00
sg48
I01
sg49
I00
sg50
F0.1
sbsg39
g0
(g78
g2
Ntp127
Rp128
(dp129
g42
I00
sg48
I01
sg49
I00
sg50
I70
sbsg40
g0
(g78
g2
Ntp130
Rp131
(dp132
g42
I00
sg48
I01
sg49
I00
sg50
I110
sbsg41
g0
(cFWCore.ParameterSet.Types
_OptionalParameter
p133
g2
Ntp134
Rp135
(dp136
g42
I00
sg48
I00
sg49
I00
sV_ProxyParameter__type
p137
g92
sV_ProxyParameter__value
p138
NsbsV_filename
p139
V/afs/cern.ch/user/j/joshin/public/Efficiency/CMSSW_14_1_0_pre2/cfipython/el9_amd64_gcc12/DPGAnalysis/MuonTools/muRPCTnPFlatTableProducer_cfi.py
p140
sV_lineNumber
p141
I3
sV_Labelable__label
p142
g12
sbssV_Process__switchproducers
p143
(dp144
sV_Process__source
p145
g0
(cFWCore.ParameterSet.Modules
Source
p146
g2
Ntp147
Rp148
(dp149
g17
VPoolSource
p150
sg19
(lp151
VfileNames
p152
aVsecondaryFileNames
p153
asg42
I00
sg43
Nsg152
g0
(g92
g93
(lp154
tp155
Rp156
(dp157
g42
I00
sg48
I00
sg49
I00
sg103
I1
sbsg49
I00
sg153
g0
(g92
g93
(lp158
tp159
Rp160
(dp161
g42
I00
sg48
I00
sg49
I00
sg103
I1
sbsg139
V/cvmfs/cms.cern.ch/el9_amd64_gcc12/cms/cmssw/CMSSW_14_1_0_pre2/src/FWCore/ParameterSet/python/Modules.py
p162
sg141
I195
sbsV_Process__looper
p163
NsV_Process__subProcesses
p164
(lp165
sV_Process__schedule
p166
g0
(cFWCore.ParameterSet.SequenceTypes
Schedule
p167
g93
(lp168
g0
(cFWCore.ParameterSet.SequenceTypes
Path
p169
g2
Ntp170
Rp171
(dp172
g42
I00
sV_seq
p173
g0
(cFWCore.ParameterSet.SequenceTypes
_SequenceCollection
p174
g2
Ntp175
Rp176
(dp177
V_collection
p178
(lp179
g15
asbsg49
I00
sV_tasks
p180
g0
(cFWCore.ParameterSet.OrderedSet
OrderedSet
p181
g2
Ntp182
Rp183
(dp184
Vend
p185
(lp186
Nag186
ag186
asVmap
p187
(dp188
sbsg142
VrpcTnPPath
p189
sbag0
(cFWCore.ParameterSet.SequenceTypes
EndPath
p190
g2
Ntp191
Rp192
(dp193
g42
I00
sg173
g0
(g174
g2
Ntp194
Rp195
(dp196
g178
(lp197
g0
(cFWCore.ParameterSet.Modules
OutputModule
p198
g2
Ntp199
Rp200
(dp201
g17
VNanoAODOutputModule
p202
sg19
(lp203
VfileName
p204
aVoutputCommands
p205
aVSelectEvents
p206
asg42
I00
sg43
Nsg204
g0
(g44
g2
Ntp207
Rp208
(dp209
g42
I00
sg48
I00
sg49
I00
sg50
Voutput.root
p210
sbsg49
I00
sg205
g0
(g92
g93
(lp211
Vdrop *
p212
aVkeep nanoaodFlatTable_*Table_*_*
p213
aVkeep edmTriggerResults_*_*_*
p214
aVkeep String_*_genModel_*
p215
aVkeep nanoaodMergeableCounterTable_*Table_*_*
p216
aVkeep nanoaodUniqueString_nanoMetadata_*_*
p217
aVkeep nanoaodFlatTable_*_*_*
p218
aVdrop edmTriggerResults_*_*_*
p219
atp220
Rp221
(dp222
g42
I00
sg48
I00
sg49
I00
sg103
I1
sbsg206
g0
(cFWCore.ParameterSet.Types
PSet
p223
g2
Ntp224
Rp225
(dp226
g42
I00
sg48
I00
sg49
I00
sg19
(lp227
g206
asg43
Nsg206
g0
(g92
g93
(lp228
g189
atp229
Rp230
(dp231
g42
I00
sg48
I01
sg49
I00
sg103
I1
sbsbsg139
V/afs/cern.ch/user/j/joshin/public/Efficiency/CMSSW_14_1_0_pre2/src/RPCDPGAnalysis/NanoAODTnP/test/muRPCTnPFlatTableProducer_cfg.py
p232
sg141
I43
sg142
Vout
p233
sbasbsg49
I00
sg180
g0
(g181
g2
Ntp234
Rp235
(dp236
g185
(lp237
Nag237
ag237
asg187
(dp238
sbsg142
g185
sbatp239
Rp240
(dp241
g42
I00
sg48
I01
sg49
I00
sg180
g0
(g181
g2
Ntp242
Rp243
(dp244
g185
(lp245
Nag245
ag245
asg187
(dp246
sbsbsV_Process__analyzers
p247
(dp248
sV_Process__outputmodules
p249
(dp250
g233
g200
ssV_Process__paths
p251
g0
(cFWCore.ParameterSet.DictTypes
SortedKeysDict
p252
c__builtin__
dict
p253
(dp254
g189
g171
stp255
Rp256
(dp257
Vlist
p258
(lp259
g189
asbsV_Process__endpaths
p260
g0
(g252
g253
(dp261
g185
g192
stp262
Rp263
(dp264
g258
(lp265
g185
asbsV_Process__finalpaths
p266
g0
(g252
g253
(dp267
tp268
Rp269
(dp270
g258
(lp271
sbsV_Process__sequences
p272
(dp273
sV_Process__tasks
p274
(dp275
sV_Process__conditionaltasks
p276
(dp277
sV_Process__services
p278
(dp279
VMessageLogger
p280
g0
(cFWCore.ParameterSet.Modules
Service
p281
g2
Ntp282
Rp283
(dp284
g17
g280
sg19
(lp285
VsuppressWarning
p286
aVsuppressFwkInfo
p287
aVsuppressInfo
p288
aVsuppressDebug
p289
aVdebugModules
p290
aVcout
p291
aVdefault
p292
aVcerr
p293
aVfiles
p294
asg42
I00
sg43
g0
(g133
g2
Ntp295
Rp296
(dp297
g42
I00
sg48
I00
sg49
I00
sg137
g0
(cFWCore.ParameterSet.Types
_PSetTemplate
p298
g2
Ntp299
Rp300
(dp301
V_pset
p302
g0
(g223
g2
Ntp303
Rp304
(dp305
g42
I00
sg48
I01
sg49
I00
sg19
(lp306
VreportEvery
p307
aVlimit
p308
aVtimespan
p309
asg43
Nsg307
g0
(cFWCore.ParameterSet.Types
int32
p310
g2
Ntp311
Rp312
(dp313
g42
I00
sg48
I00
sg49
I00
sg50
I1
sbsg308
g0
(g133
g2
Ntp314
Rp315
(dp316
g42
I00
sg48
I00
sg49
I00
sg137
g310
sg138
Nsbsg309
g0
(g133
g2
Ntp317
Rp318
(dp319
g42
I00
sg48
I00
sg49
I00
sg137
g310
sg138
Nsbsbsbsg138
Nsbsg286
g0
(g92
g93
(lp320
tp321
Rp322
(dp323
g42
I00
sg48
I00
sg49
I00
sg103
I1
sbsg49
I00
sg287
g0
(g92
g93
(lp324
tp325
Rp326
(dp327
g42
I00
sg48
I00
sg49
I00
sg103
I1
sbsg288
g0
(g92
g93
(lp328
tp329
Rp330
(dp331
g42
I00
sg48
I00
sg49
I00
sg103
I1
sbsg289
g0
(g92
g93
(lp332
tp333
Rp334
(dp335
g42
I00
sg48
I00
sg49
I00
sg103
I1
sbsg290
g0
(g92
g93
(lp336
tp337
Rp338
(dp339
g42
I00
sg48
I00
sg49
I00
sg103
I1
sbsg291
g0
(g223
g2
Ntp340
Rp341
(dp342
g42
I00
sg48
I00
sg49
I00
sg19
(lp343
VnoLineBreaks
p344
aVnoTimeStamps
p345
aVlineLength
p346
aVthreshold
p347
aVstatisticsThreshold
p348
aVenableStatistics
p349
aVresetStatistics
p350
aVenable
p351
asg43
g296
sg344
g0
(g133
g2
Ntp352
Rp353
(dp354
g42
I00
sg48
I00
sg49
I00
sg137
g120
sg138
Nsbsg345
g0
(g133
g2
Ntp355
Rp356
(dp357
g42
I00
sg48
I00
sg49
I00
sg137
g120
sg138
Nsbsg346
g0
(g133
g2
Ntp358
Rp359
(dp360
g42
I00
sg48
I00
sg49
I00
sg137
g310
sg138
Nsbsg347
g0
(g133
g2
Ntp361
Rp362
(dp363
g42
I00
sg48
I00
sg49
I00
sg137
g44
sg138
Nsbsg348
g0
(g133
g2
Ntp364
Rp365
(dp366
g42
I00
sg48
I00
sg49
I00
sg137
g44
sg138
Nsbsg349
g0
(g120
g2
Ntp367
Rp368
(dp369
g42
I00
sg48
I00
sg49
I00
sg50
I00
sbsg350
g0
(g120
g2
Ntp370
Rp371
(dp372
g42
I00
sg48
I00
sg49
I00
sg50
I00
sbsg351
g0
(g120
g2
Ntp373
Rp374
(dp375
g42
I00
sg48
I00
sg49
I00
sg50
I00
sbsbsg292
g0
(g223
g2
Ntp376
Rp377
(dp378
g42
I00
sg48
I00
sg49
I00
sg19
(lp379
g307
ag308
ag309
ag344
ag345
ag346
ag347
ag348
asg43
g296
sg307
g0
(g310
g2
Ntp380
Rp381
(dp382
g42
I00
sg48
I00
sg49
I00
sg50
I1
sbsg308
g0
(g133
g2
Ntp383
Rp384
(dp385
g42
I00
sg48
I00
sg49
I00
sg137
g310
sg138
Nsbsg309
g0
(g133
g2
Ntp386
Rp387
(dp388
g42
I00
sg48
I00
sg49
I00
sg137
g310
sg138
Nsbsg344
g0
(g120
g2
Ntp389
Rp390
(dp391
g42
I00
sg48
I00
sg49
I00
sg50
I00
sbsg345
g0
(g120
g2
Ntp392
Rp393
(dp394
g42
I00
sg48
I00
sg49
I00
sg50
I00
sbsg346
g0
(g310
g2
Ntp395
Rp396
(dp397
g42
I00
sg48
I00
sg49
I00
sg50
I80
sbsg347
g0
(g44
g2
Ntp398
Rp399
(dp400
g42
I00
sg48
I00
sg49
I00
sg50
VINFO
p401
sbsg348
g0
(g44
g2
Ntp402
Rp403
(dp404
g42
I00
sg48
I00
sg49
I00
sg50
g401
sbsbsg293
g0
(g223
g2
Ntp405
Rp406
(dp407
g42
I00
sg48
I00
sg49
I00
sg19
(lp408
g344
ag345
ag346
ag347
ag348
ag351
ag349
ag350
ag401
aVFwkReport
p409
ag292
aVRoot_NoDictionary
p410
aVFwkSummary
p411
asg43
g296
sg344
g0
(g133
g2
Ntp412
Rp413
(dp414
g42
I00
sg48
I00
sg49
I00
sg137
g120
sg138
Nsbsg345
g0
(g120
g2
Ntp415
Rp416
(dp417
g42
I00
sg48
I00
sg49
I00
sg50
I00
sbsg346
g0
(g133
g2
Ntp418
Rp419
(dp420
g42
I00
sg48
I00
sg49
I00
sg137
g310
sg138
Nsbsg347
g0
(g44
g2
Ntp421
Rp422
(dp423
g42
I00
sg48
I00
sg49
I00
sg50
g401
sbsg348
g0
(g44
g2
Ntp424
Rp425
(dp426
g42
I00
sg48
I00
sg49
I00
sg50
VWARNING
p427
sbsg351
g0
(g120
g2
Ntp428
Rp429
(dp430
g42
I00
sg48
I00
sg49
I00
sg50
I01
sbsg349
g0
(g120
g2
Ntp431
Rp432
(dp433
g42
I00
sg48
I00
sg49
I00
sg50
I00
sbsg350
g0
(g120
g2
Ntp434
Rp435
(dp436
g42
I00
sg48
I00
sg49
I00
sg50
I00
sbsg401
g0
(g223
g2
Ntp437
Rp438
(dp439
g42
I00
sg48
I00
sg49
I00
sg19
(lp440
g308
asg43
Nsg308
g0
(g310
g2
Ntp441
Rp442
(dp443
g42
I00
sg48
I00
sg49
I00
sg50
I0
sbsbsg409
g0
(g223
g2
Ntp444
Rp445
(dp446
g42
I00
sg48
I00
sg49
I00
sg19
(lp447
g307
ag308
asg43
Nsg307
g0
(g310
g2
Ntp448
Rp449
(dp450
g42
I00
sg48
I00
sg49
I00
sg50
I1
sbsg308
g0
(g310
g2
Ntp451
Rp452
(dp453
g42
I00
sg48
I00
sg49
I00
sg50
I10000000
sbsbsg292
g0
(g223
g2
Ntp454
Rp455
(dp456
g42
I00
sg48
I00
sg49
I00
sg19
(lp457
g308
asg43
Nsg308
g0
(g310
g2
Ntp458
Rp459
(dp460
g42
I00
sg48
I00
sg49
I00
sg50
I10000000
sbsbsg410
g0
(g223
g2
Ntp461
Rp462
(dp463
g42
I00
sg48
I00
sg49
I00
sg19
(lp464
g308
asg43
Nsg308
g0
(g310
g2
Ntp465
Rp466
(dp467
g42
I00
sg48
I00
sg49
I00
sg50
I0
sbsbsg411
g0
(g223
g2
Ntp468
Rp469
(dp470
g42
I00
sg48
I00
sg49
I00
sg19
(lp471
g307
ag308
asg43
Nsg307
g0
(g310
g2
Ntp472
Rp473
(dp474
g42
I00
sg48
I00
sg49
I00
sg50
I1
sbsg308
g0
(g310
g2
Ntp475
Rp476
(dp477
g42
I00
sg48
I00
sg49
I00
sg50
I10000000
sbsbsbsg294
g0
(g223
g2
Ntp478
Rp479
(dp480
g42
I00
sg48
I00
sg49
I00
sg19
(lp481
sg43
g0
(g133
g2
Ntp482
Rp483
(dp484
g42
I00
sg48
I00
sg49
I00
sg137
g0
(g298
g2
Ntp485
Rp486
(dp487
g302
g0
(g223
g2
Ntp488
Rp489
(dp490
g42
I00
sg48
I01
sg49
I00
sg19
(lp491
g344
ag345
ag346
ag347
ag348
ag349
ag350
aVfilename
p492
aVextension
p493
aVoutput
p494
asg43
g296
sg344
g0
(g133
g2
Ntp495
Rp496
(dp497
g42
I00
sg48
I00
sg49
I00
sg137
g120
sg138
Nsbsg345
g0
(g133
g2
Ntp498
Rp499
(dp500
g42
I00
sg48
I00
sg49
I00
sg137
g120
sg138
Nsbsg346
g0
(g133
g2
Ntp501
Rp502
(dp503
g42
I00
sg48
I00
sg49
I00
sg137
g310
sg138
Nsbsg347
g0
(g133
g2
Ntp504
Rp505
(dp506
g42
I00
sg48
I00
sg49
I00
sg137
g44
sg138
Nsbsg348
g0
(g133
g2
Ntp507
Rp508
(dp509
g42
I00
sg48
I00
sg49
I00
sg137
g44
sg138
Nsbsg349
g0
(g120
g2
Ntp510
Rp511
(dp512
g42
I00
sg48
I00
sg49
I00
sg50
I00
sbsg350
g0
(g120
g2
Ntp513
Rp514
(dp515
g42
I00
sg48
I00
sg49
I00
sg50
I00
sbsg492
g0
(g133
g2
Ntp516
Rp517
(dp518
g42
I00
sg48
I00
sg49
I00
sg137
g44
sg138
Nsbsg493
g0
(g133
g2
Ntp519
Rp520
(dp521
g42
I00
sg48
I00
sg49
I00
sg137
g44
sg138
Nsbsg494
g0
(g133
g2
Ntp522
Rp523
(dp524
g42
I00
sg48
I00
sg49
I00
sg137
g44
sg138
Nsbsbsbsg138
Nsbsbsg139
g162
sg141
I13
sV_inProcess
p525
I00
sbssV_Process__essources
p526
(dp527
Veegeom
p528
g0
(cFWCore.ParameterSet.Modules
ESSource
p529
g2
Ntp530
Rp531
(dp532
g17
VEmptyESSource
p533
sg19
(lp534
VrecordName
p535
aViovIsRunNotTime
p536
aVfirstValid
p537
asg42
I00
sg43
Nsg535
g0
(g44
g2
Ntp538
Rp539
(dp540
g42
I00
sg48
I01
sg49
I00
sg50
VEcalMappingRcd
p541
sbsg49
I00
sg536
g0
(g120
g2
Ntp542
Rp543
(dp544
g42
I00
sg48
I01
sg49
I00
sg50
I01
sbsg537
g0
(cFWCore.ParameterSet.Types
vuint32
p545
g93
(lp546
I1
atp547
Rp548
(dp549
g42
I00
sg48
I01
sg49
I00
sbsg139
V/cvmfs/cms.cern.ch/el9_amd64_gcc12/cms/cmssw/CMSSW_14_1_0_pre2/src/Geometry/EcalMapping/python/EcalMappingRecord_cfi.py
p550
sg141
I3
sg142
g528
sbsVGlobalTag
p551
g0
(g529
g2
Ntp552
Rp553
(dp554
g17
VPoolDBESSource
p555
sg19
(lp556
VDBParameters
p557
aVconnect
p558
aVglobaltag
p559
aVsnapshotTime
p560
aVtoGet
p561
aVDumpStat
p562
aVReconnectEachRun
p563
aVRefreshAlways
p564
aVRefreshEachRun
p565
aVRefreshOpenIOVs
p566
aVpfnPostfix
p567
aVpfnPrefix
p568
asg42
I00
sg43
Nsg557
g0
(g223
g2
Ntp569
Rp570
(dp571
g42
I00
sg48
I01
sg49
I00
sg19
(lp572
VauthenticationPath
p573
aVauthenticationSystem
p574
aVsecurity
p575
aVmessageLevel
p576
aVconnectionTimeout
p577
asg43
Nsg573
g0
(g44
g2
Ntp578
Rp579
(dp580
g42
I00
sg48
I00
sg49
I00
sg50
g59
sbsg574
g0
(g310
g2
Ntp581
Rp582
(dp583
g42
I00
sg48
I00
sg49
I00
sg50
I0
sbsg575
g0
(g44
g2
Ntp584
Rp585
(dp586
g42
I00
sg48
I00
sg49
I00
sg50
g59
sbsg576
g0
(g310
g2
Ntp587
Rp588
(dp589
g42
I00
sg48
I00
sg49
I00
sg50
I0
sbsg577
g0
(g310
g2
Ntp590
Rp591
(dp592
g42
I00
sg48
I00
sg49
I00
sg50
I0
sbsbsg49
I01
sg558
g0
(g44
g2
Ntp593
Rp594
(dp595
g42
I00
sg48
I01
sg49
I00
sg50
Vfrontier://FrontierProd/CMS_CONDITIONS
p596
sbsg559
g0
(g44
g2
Ntp597
Rp598
(dp599
g42
I00
sg48
I01
sg49
I01
sg50
V140X_dataRun3_v3
p600
sbsg560
g0
(g44
g2
Ntp601
Rp602
(dp603
g42
I00
sg48
I01
sg49
I00
sg50
g59
sbsg561
g0
(cFWCore.ParameterSet.Types
VPSet
p604
g93
(lp605
tp606
Rp607
(dp608
g42
I00
sg48
I01
sg49
I00
sg103
I1
sbsg562
g0
(g120
g2
Ntp609
Rp610
(dp611
g42
I00
sg48
I00
sg49
I00
sg50
I00
sbsg563
g0
(g120
g2
Ntp612
Rp613
(dp614
g42
I00
sg48
I00
sg49
I00
sg50
I00
sbsg564
g0
(g120
g2
Ntp615
Rp616
(dp617
g42
I00
sg48
I00
sg49
I00
sg50
I00
sbsg565
g0
(g120
g2
Ntp618
Rp619
(dp620
g42
I00
sg48
I00
sg49
I00
sg50
I00
sbsg566
g0
(g120
g2
Ntp621
Rp622
(dp623
g42
I00
sg48
I00
sg49
I00
sg50
I00
sbsg567
g0
(g44
g2
Ntp624
Rp625
(dp626
g42
I00
sg48
I00
sg49
I00
sg50
g59
sbsg568
g0
(g44
g2
Ntp627
Rp628
(dp629
g42
I00
sg48
I00
sg49
I00
sg50
g59
sbsg139
V/cvmfs/cms.cern.ch/el9_amd64_gcc12/cms/cmssw/CMSSW_14_1_0_pre2/src/CondCore/ESSources/python/CondDBESSource_cfi.py
p630
sg141
I8
sg142
g551
sbsVHcalTimeSlewEP
p631
g0
(g529
g2
Ntp632
Rp633
(dp634
g17
g631
sg19
(lp635
VappendToDataLabel
p636
aVtimeSlewParametersM2
p637
aVtimeSlewParametersM3
p638
asg42
I00
sg43
Nsg636
g0
(g44
g2
Ntp639
Rp640
(dp641
g42
I00
sg48
I01
sg49
I00
sg50
VHBHE
p642
sbsg49
I00
sg637
g0
(g604
g93
(lp643
g0
(g223
g2
Ntp644
Rp645
(dp646
g42
I00
sg48
I01
sg49
I00
sg19
(lp647
Vtzero
p648
aVslope
p649
aVtmax
p650
asg43
Nsg648
g0
(g78
g2
Ntp651
Rp652
(dp653
g42
I00
sg48
I01
sg49
I00
sg50
F23.960177
sbsg649
g0
(g78
g2
Ntp654
Rp655
(dp656
g42
I00
sg48
I01
sg49
I00
sg50
F-3.178648
sbsg650
g0
(g78
g2
Ntp657
Rp658
(dp659
g42
I00
sg48
I01
sg49
I00
sg50
F16.0
sbsbag0
(g223
g2
Ntp660
Rp661
(dp662
g42
I00
sg48
I01
sg49
I00
sg19
(lp663
g648
ag649
ag650
asg43
Nsg648
g0
(g78
g2
Ntp664
Rp665
(dp666
g42
I00
sg48
I01
sg49
I00
sg50
F11.977461
sbsg649
g0
(g78
g2
Ntp667
Rp668
(dp669
g42
I00
sg48
I01
sg49
I00
sg50
F-1.5610227
sbsg650
g0
(g78
g2
Ntp670
Rp671
(dp672
g42
I00
sg48
I01
sg49
I00
sg50
F10.0
sbsbag0
(g223
g2
Ntp673
Rp674
(dp675
g42
I00
sg48
I01
sg49
I00
sg19
(lp676
g648
ag649
ag650
asg43
Nsg648
g0
(g78
g2
Ntp677
Rp678
(dp679
g42
I00
sg48
I01
sg49
I00
sg50
F9.109694
sbsg649
g0
(g78
g2
Ntp680
Rp681
(dp682
g42
I00
sg48
I01
sg49
I00
sg50
F-1.075824
sbsg650
g0
(g78
g2
Ntp683
Rp684
(dp685
g42
I00
sg48
I01
sg49
I00
sg50
F6.25
sbsbatp686
Rp687
(dp688
g42
I00
sg48
I01
sg49
I00
sg103
I1
sbsg638
g0
(g604
g93
(lp689
g0
(g223
g2
Ntp690
Rp691
(dp692
g42
I00
sg48
I01
sg49
I00
sg19
(lp693
Vcap
p694
aVtspar0
p695
aVtspar1
p696
aVtspar2
p697
aVtspar0_siPM
p698
aVtspar1_siPM
p699
aVtspar2_siPM
p700
asg43
Nsg694
g0
(g78
g2
Ntp701
Rp702
(dp703
g42
I00
sg48
I01
sg49
I00
sg50
F6.0
sbsg695
g0
(g78
g2
Ntp704
Rp705
(dp706
g42
I00
sg48
I01
sg49
I00
sg50
F12.2999
sbsg696
g0
(g78
g2
Ntp707
Rp708
(dp709
g42
I00
sg48
I01
sg49
I00
sg50
F-2.19142
sbsg697
g0
(g78
g2
Ntp710
Rp711
(dp712
g42
I00
sg48
I01
sg49
I00
sg50
F0.0
sbsg698
g0
(g78
g2
Ntp713
Rp714
(dp715
g42
I00
sg48
I01
sg49
I00
sg50
F0.0
sbsg699
g0
(g78
g2
Ntp716
Rp717
(dp718
g42
I00
sg48
I01
sg49
I00
sg50
F0.0
sbsg700
g0
(g78
g2
Ntp719
Rp720
(dp721
g42
I00
sg48
I01
sg49
I00
sg50
F0.0
sbsbag0
(g223
g2
Ntp722
Rp723
(dp724
g42
I00
sg48
I01
sg49
I00
sg19
(lp725
g694
ag695
ag696
ag697
ag698
ag699
ag700
asg43
Nsg694
g0
(g78
g2
Ntp726
Rp727
(dp728
g42
I00
sg48
I01
sg49
I00
sg50
F6.0
sbsg695
g0
(g78
g2
Ntp729
Rp730
(dp731
g42
I00
sg48
I01
sg49
I00
sg50
F15.5
sbsg696
g0
(g78
g2
Ntp732
Rp733
(dp734
g42
I00
sg48
I01
sg49
I00
sg50
F-3.2
sbsg697
g0
(g78
g2
Ntp735
Rp736
(dp737
g42
I00
sg48
I01
sg49
I00
sg50
F32.0
sbsg698
g0
(g78
g2
Ntp738
Rp739
(dp740
g42
I00
sg48
I01
sg49
I00
sg50
F0.0
sbsg699
g0
(g78
g2
Ntp741
Rp742
(dp743
g42
I00
sg48
I01
sg49
I00
sg50
F0.0
sbsg700
g0
(g78
g2
Ntp744
Rp745
(dp746
g42
I00
sg48
I01
sg49
I00
sg50
F0.0
sbsbag0
(g223
g2
Ntp747
Rp748
(dp749
g42
I00
sg48
I01
sg49
I00
sg19
(lp750
g694
ag695
ag696
ag697
ag698
ag699
ag700
asg43
Nsg694
g0
(g78
g2
Ntp751
Rp752
(dp753
g42
I00
sg48
I01
sg49
I00
sg50
F6.0
sbsg695
g0
(g78
g2
Ntp754
Rp755
(dp756
g42
I00
sg48
I01
sg49
I00
sg50
F12.2999
sbsg696
g0
(g78
g2
Ntp757
Rp758
(dp759
g42
I00
sg48
I01
sg49
I00
sg50
F-2.19142
sbsg697
g0
(g78
g2
Ntp760
Rp761
(dp762
g42
I00
sg48
I01
sg49
I00
sg50
F0.0
sbsg698
g0
(g78
g2
Ntp763
Rp764
(dp765
g42
I00
sg48
I01
sg49
I00
sg50
F0.0
sbsg699
g0
(g78
g2
Ntp766
Rp767
(dp768
g42
I00
sg48
I01
sg49
I00
sg50
F0.0
sbsg700
g0
(g78
g2
Ntp769
Rp770
(dp771
g42
I00
sg48
I01
sg49
I00
sg50
F0.0
sbsbag0
(g223
g2
Ntp772
Rp773
(dp774
g42
I00
sg48
I01
sg49
I00
sg19
(lp775
g694
ag695
ag696
ag697
ag698
ag699
ag700
asg43
Nsg694
g0
(g78
g2
Ntp776
Rp777
(dp778
g42
I00
sg48
I01
sg49
I00
sg50
F6.0
sbsg695
g0
(g78
g2
Ntp779
Rp780
(dp781
g42
I00
sg48
I01
sg49
I00
sg50
F12.2999
sbsg696
g0
(g78
g2
Ntp782
Rp783
(dp784
g42
I00
sg48
I01
sg49
I00
sg50
F-2.19142
sbsg697
g0
(g78
g2
Ntp785
Rp786
(dp787
g42
I00
sg48
I01
sg49
I00
sg50
F0.0
sbsg698
g0
(g78
g2
Ntp788
Rp789
(dp790
g42
I00
sg48
I01
sg49
I00
sg50
F0.0
sbsg699
g0
(g78
g2
Ntp791
Rp792
(dp793
g42
I00
sg48
I01
sg49
I00
sg50
F0.0
sbsg700
g0
(g78
g2
Ntp794
Rp795
(dp796
g42
I00
sg48
I01
sg49
I00
sg50
F0.0
sbsbatp797
Rp798
(dp799
g42
I00
sg48
I01
sg49
I00
sg103
I1
sbsg139
V/cvmfs/cms.cern.ch/el9_amd64_gcc12/cms/cmssw/CMSSW_14_1_0_pre2/src/CalibCalorimetry/HcalPlugins/python/HcalTimeSlew_cff.py
p800
sg141
I3
sg142
g631
sbsVes_hardcode
p801
g0
(g529
g2
Ntp802
Rp803
(dp804
g17
VHcalHardcodeCalibrations
p805
sg19
(lp806
g561
aViLumi
p807
aVHBRecalibration
p808
aVHBreCalibCutoff
p809
aVHBmeanenergies
p810
aVHERecalibration
p811
aVHEreCalibCutoff
p812
aVHEmeanenergies
p813
aVHFRecalibration
p814
aVHFRecalParameterBlock
p815
aVGainWidthsForTrigPrims
p816
aVuseHBUpgrade
p817
aVuseHEUpgrade
p818
aVuseHFUpgrade
p819
aVuseHOUpgrade
p820
aVtestHFQIE10
p821
aVtestHEPlan1
p822
aVkillHE
p823
aVuseLayer0Weight
p824
aVuseIeta18depth1
p825
aVhb
p826
aVhe
p827
aVhf
p828
aVho
p829
aVhbUpgrade
p830
aVheUpgrade
p831
aVhfUpgrade
p832
aVSiPMCharacteristics
p833
asg42
I00
sg43
Nsg561
g0
(g92
g93
(lp834
VGainWidths
p835
atp836
Rp837
(dp838
g42
I00
sg48
I00
sg49
I00
sg103
I1
sbsg49
I01
sg807
g0
(g78
g2
Ntp839
Rp840
(dp841
g42
I00
sg48
I01
sg49
I00
sg50
F-1.0
sbsg808
g0
(g120
g2
Ntp842
Rp843
(dp844
g42
I00
sg48
I01
sg49
I00
sg50
I00
sbsg809
g0
(g78
g2
Ntp845
Rp846
(dp847
g42
I00
sg48
I01
sg49
I00
sg50
F100.0
sbsg810
g0
(cFWCore.ParameterSet.Types
FileInPath
p848
g2
Ntp849
Rp850
(dp851
g42
I00
sg48
I01
sg49
I00
sg50
VCalibCalorimetry/HcalPlugins/data/meanenergiesHB.txt
p852
sbsg811
g0
(g120
g2
Ntp853
Rp854
(dp855
g42
I00
sg48
I01
sg49
I00
sg50
I00
sbsg812
g0
(g78
g2
Ntp856
Rp857
(dp858
g42
I00
sg48
I01
sg49
I00
sg50
F100.0
sbsg813
g0
(g848
g2
Ntp859
Rp860
(dp861
g42
I00
sg48
I01
sg49
I00
sg50
VCalibCalorimetry/HcalPlugins/data/meanenergiesHE.txt
p862
sbsg814
g0
(g120
g2
Ntp863
Rp864
(dp865
g42
I00
sg48
I01
sg49
I00
sg50
I00
sbsg815
g0
(g223
g2
Ntp866
Rp867
(dp868
g42
I00
sg48
I01
sg49
I00
sg19
(lp869
VHFdepthOneParameterA
p870
aVHFdepthOneParameterB
p871
aVHFdepthTwoParameterA
p872
aVHFdepthTwoParameterB
p873
asg43
Nsg870
g0
(cFWCore.ParameterSet.Types
vdouble
p874
g93
(lp875
F0.004123
aF0.00602
aF0.008201
aF0.010489
aF0.013379
aF0.016997
aF0.021464
aF0.027371
aF0.034195
aF0.044807
aF0.058939
aF0.125497
atp876
Rp877
(dp878
g42
I00
sg48
I01
sg49
I00
sbsg871
g0
(g874
g93
(lp879
F-4e-06
aF-2e-06
aF0.0
aF4e-06
aF1.5e-05
aF2.6e-05
aF6.3e-05
aF8.4e-05
aF0.00016
aF0.000107
aF0.000425
aF0.000209
atp880
Rp881
(dp882
g42
I00
sg48
I01
sg49
I00
sbsg872
g0
(g874
g93
(lp883
F0.002861
aF0.004168
aF0.0064
aF0.008388
aF0.011601
aF0.014425
aF0.018633
aF0.023232
aF0.028274
aF0.035447
aF0.051579
aF0.086593
atp884
Rp885
(dp886
g42
I00
sg48
I01
sg49
I00
sbsg873
g0
(g874
g93
(lp887
F-2e-06
aF-0.0
aF-7e-06
aF-6e-06
aF-2e-06
aF1e-06
aF1.9e-05
aF3.1e-05
aF6.7e-05
aF1.2e-05
aF0.000157
aF-3e-06
atp888
Rp889
(dp890
g42
I00
sg48
I01
sg49
I00
sbsg142
g815
sbsg816
g0
(g120
g2
Ntp891
Rp892
(dp893
g42
I00
sg48
I01
sg49
I00
sg50
I00
sbsg817
g0
(g120
g2
Ntp894
Rp895
(dp896
g42
I00
sg48
I01
sg49
I00
sg50
I01
sbsg818
g0
(g120
g2
Ntp897
Rp898
(dp899
g42
I00
sg48
I01
sg49
I00
sg50
I01
sbsg819
g0
(g120
g2
Ntp900
Rp901
(dp902
g42
I00
sg48
I01
sg49
I00
sg50
I01
sbsg820
g0
(g120
g2
Ntp903
Rp904
(dp905
g42
I00
sg48
I01
sg49
I00
sg50
I01
sbsg821
g0
(g120
g2
Ntp906
Rp907
(dp908
g42
I00
sg48
I01
sg49
I00
sg50
I00
sbsg822
g0
(g120
g2
Ntp909
Rp910
(dp911
g42
I00
sg48
I01
sg49
I00
sg50
I00
sbsg823
g0
(g120
g2
Ntp912
Rp913
(dp914
g42
I00
sg48
I01
sg49
I00
sg50
I00
sbsg824
g0
(g120
g2
Ntp915
Rp916
(dp917
g42
I00
sg48
I01
sg49
I00
sg50
I01
sbsg825
g0
(g120
g2
Ntp918
Rp919
(dp920
g42
I00
sg48
I01
sg49
I00
sg50
I00
sbsg826
g0
(g223
g2
Ntp921
Rp922
(dp923
g42
I00
sg48
I01
sg49
I00
sg19
(lp924
Vpedestal
p925
aVpedestalWidth
p926
aVgain
p927
aVgainWidth
p928
aVzsThreshold
p929
aVqieType
p930
aVqieOffset
p931
aVqieSlope
p932
aVmcShape
p933
aVrecoShape
p934
aVphotoelectronsToAnalog
p935
aVdarkCurrent
p936
aVnoiseCorrelation
p937
aVnoiseThreshold
p938
aVseedThreshold
p939
aVdoRadiationDamage
p940
asg43
Nsg925
g0
(g78
g2
Ntp941
Rp942
(dp943
g42
I00
sg48
I01
sg49
I00
sg50
F3.285
sbsg926
g0
(g78
g2
Ntp944
Rp945
(dp946
g42
I00
sg48
I01
sg49
I00
sg50
F0.809
sbsg927
g0
(g874
g93
(lp947
F0.19
atp948
Rp949
(dp950
g42
I00
sg48
I01
sg49
I00
sbsg928
g0
(g874
g93
(lp951
F0.0
atp952
Rp953
(dp954
g42
I00
sg48
I01
sg49
I00
sbsg929
g0
(g310
g2
Ntp955
Rp956
(dp957
g42
I00
sg48
I01
sg49
I00
sg50
I8
sbsg930
g0
(g310
g2
Ntp958
Rp959
(dp960
g42
I00
sg48
I01
sg49
I00
sg50
I0
sbsg931
g0
(g874
g93
(lp961
F-0.49
aF1.8
aF7.2
aF37.9
atp962
Rp963
(dp964
g42
I00
sg48
I01
sg49
I00
sbsg932
g0
(g874
g93
(lp965
F0.912
aF0.917
aF0.922
aF0.923
atp966
Rp967
(dp968
g42
I00
sg48
I01
sg49
I00
sbsg933
g0
(g310
g2
Ntp969
Rp970
(dp971
g42
I00
sg48
I01
sg49
I00
sg50
I125
sbsg934
g0
(g310
g2
Ntp972
Rp973
(dp974
g42
I00
sg48
I01
sg49
I00
sg50
I105
sbsg935
g0
(g78
g2
Ntp975
Rp976
(dp977
g42
I00
sg48
I01
sg49
I00
sg50
F0.3305
sbsg936
g0
(g874
g93
(lp978
F0.0
atp979
Rp980
(dp981
g42
I00
sg48
I01
sg49
I00
sbsg937
g0
(g874
g93
(lp982
F0.0
atp983
Rp984
(dp985
g42
I00
sg48
I01
sg49
I00
sbsg938
g0
(g78
g2
Ntp986
Rp987
(dp988
g42
I00
sg48
I01
sg49
I00
sg50
F0.0
sbsg939
g0
(g78
g2
Ntp989
Rp990
(dp991
g42
I00
sg48
I01
sg49
I00
sg50
F0.1
sbsg940
g0
(g120
g2
Ntp992
Rp993
(dp994
g42
I00
sg48
I01
sg49
I00
sg50
I00
sbsbsg827
g0
(g223
g2
Ntp995
Rp996
(dp997
g42
I00
sg48
I01
sg49
I00
sg19
(lp998
g925
ag926
ag927
ag928
ag929
ag930
ag931
ag932
ag933
ag934
ag935
ag936
ag937
ag938
ag939
ag940
asg43
Nsg925
g0
(g78
g2
Ntp999
Rp1000
(dp1001
g42
I00
sg48
I01
sg49
I00
sg50
F3.163
sbsg926
g0
(g78
g2
Ntp1002
Rp1003
(dp1004
g42
I00
sg48
I01
sg49
I00
sg50
F0.9698
sbsg927
g0
(g874
g93
(lp1005
F0.23
atp1006
Rp1007
(dp1008
g42
I00
sg48
I01
sg49
I00
sbsg928
g0
(g874
g93
(lp1009
I0
atp1010
Rp1011
(dp1012
g42
I00
sg48
I01
sg49
I00
sbsg929
g0
(g310
g2
Ntp1013
Rp1014
(dp1015
g42
I00
sg48
I01
sg49
I00
sg50
I9
sbsg930
g0
(g310
g2
Ntp1016
Rp1017
(dp1018
g42
I00
sg48
I01
sg49
I00
sg50
I0
sbsg931
g0
(g874
g93
(lp1019
F-0.38
aF2.0
aF7.6
aF39.6
atp1020
Rp1021
(dp1022
g42
I00
sg48
I01
sg49
I00
sbsg932
g0
(g874
g93
(lp1023
F0.912
aF0.916
aF0.92
aF0.922
atp1024
Rp1025
(dp1026
g42
I00
sg48
I01
sg49
I00
sbsg933
g0
(g310
g2
Ntp1027
Rp1028
(dp1029
g42
I00
sg48
I01
sg49
I00
sg50
I125
sbsg934
g0
(g310
g2
Ntp1030
Rp1031
(dp1032
g42
I00
sg48
I01
sg49
I00
sg50
I105
sbsg935
g0
(g78
g2
Ntp1033
Rp1034
(dp1035
g42
I00
sg48
I01
sg49
I00
sg50
F0.3305
sbsg936
g0
(g874
g93
(lp1036
F0.0
atp1037
Rp1038
(dp1039
g42
I00
sg48
I01
sg49
I00
sbsg937
g0
(g874
g93
(lp1040
F0.0
atp1041
Rp1042
(dp1043
g42
I00
sg48
I01
sg49
I00
sbsg938
g0
(g78
g2
Ntp1044
Rp1045
(dp1046
g42
I00
sg48
I01
sg49
I00
sg50
F0.0
sbsg939
g0
(g78
g2
Ntp1047
Rp1048
(dp1049
g42
I00
sg48
I01
sg49
I00
sg50
F0.1
sbsg940
g0
(g120
g2
Ntp1050
Rp1051
(dp1052
g42
I00
sg48
I01
sg49
I00
sg50
I00
sbsbsg828
g0
(g223
g2
Ntp1053
Rp1054
(dp1055
g42
I00
sg48
I01
sg49
I00
sg19
(lp1056
g925
ag926
ag927
ag928
ag929
ag930
ag931
ag932
ag933
ag934
ag935
ag936
ag937
ag938
ag939
ag940
asg43
Nsg925
g0
(g78
g2
Ntp1057
Rp1058
(dp1059
g42
I00
sg48
I01
sg49
I00
sg50
F9.354
sbsg926
g0
(g78
g2
Ntp1060
Rp1061
(dp1062
g42
I00
sg48
I01
sg49
I00
sg50
F2.516
sbsg927
g0
(g874
g93
(lp1063
F0.14
aF0.135
atp1064
Rp1065
(dp1066
g42
I00
sg48
I01
sg49
I00
sbsg928
g0
(g874
g93
(lp1067
F0.0
aF0.0
atp1068
Rp1069
(dp1070
g42
I00
sg48
I01
sg49
I00
sbsg929
g0
(g310
g2
Ntp1071
Rp1072
(dp1073
g42
I00
sg48
I01
sg49
I00
sg50
I-9999
sbsg930
g0
(g310
g2
Ntp1074
Rp1075
(dp1076
g42
I00
sg48
I01
sg49
I00
sg50
I0
sbsg931
g0
(g874
g93
(lp1077
F-0.87
aF1.4
aF7.8
aF-29.6
atp1078
Rp1079
(dp1080
g42
I00
sg48
I01
sg49
I00
sbsg932
g0
(g874
g93
(lp1081
F0.359
aF0.358
aF0.36
aF0.367
atp1082
Rp1083
(dp1084
g42
I00
sg48
I01
sg49
I00
sbsg933
g0
(g310
g2
Ntp1085
Rp1086
(dp1087
g42
I00
sg48
I01
sg49
I00
sg50
I301
sbsg934
g0
(g310
g2
Ntp1088
Rp1089
(dp1090
g42
I00
sg48
I01
sg49
I00
sg50
I301
sbsg935
g0
(g78
g2
Ntp1091
Rp1092
(dp1093
g42
I00
sg48
I01
sg49
I00
sg50
F0.0
sbsg936
g0
(g874
g93
(lp1094
F0.0
atp1095
Rp1096
(dp1097
g42
I00
sg48
I01
sg49
I00
sbsg937
g0
(g874
g93
(lp1098
F0.0
atp1099
Rp1100
(dp1101
g42
I00
sg48
I01
sg49
I00
sbsg938
g0
(g78
g2
Ntp1102
Rp1103
(dp1104
g42
I00
sg48
I01
sg49
I00
sg50
F0.0
sbsg939
g0
(g78
g2
Ntp1105
Rp1106
(dp1107
g42
I00
sg48
I01
sg49
I00
sg50
F0.1
sbsg940
g0
(g120
g2
Ntp1108
Rp1109
(dp1110
g42
I00
sg48
I01
sg49
I00
sg50
I00
sbsbsg829
g0
(g223
g2
Ntp1111
Rp1112
(dp1113
g42
I00
sg48
I01
sg49
I00
sg19
(lp1114
g925
ag926
ag927
ag928
ag929
ag930
ag931
ag932
ag933
ag934
ag935
ag936
ag937
ag938
ag939
ag940
asg43
Nsg925
g0
(g78
g2
Ntp1115
Rp1116
(dp1117
g42
I00
sg48
I01
sg49
I00
sg50
F12.06
sbsg926
g0
(g78
g2
Ntp1118
Rp1119
(dp1120
g42
I00
sg48
I01
sg49
I00
sg50
F0.6285
sbsg927
g0
(g874
g93
(lp1121
F0.006
aF0.0087
atp1122
Rp1123
(dp1124
g42
I00
sg48
I01
sg49
I00
sbsg928
g0
(g874
g93
(lp1125
F0.0
aF0.0
atp1126
Rp1127
(dp1128
g42
I00
sg48
I01
sg49
I00
sbsg929
g0
(g310
g2
Ntp1129
Rp1130
(dp1131
g42
I00
sg48
I01
sg49
I00
sg50
I24
sbsg930
g0
(g310
g2
Ntp1132
Rp1133
(dp1134
g42
I00
sg48
I01
sg49
I00
sg50
I0
sbsg931
g0
(g874
g93
(lp1135
F-0.44
aF1.4
aF7.1
aF38.5
atp1136
Rp1137
(dp1138
g42
I00
sg48
I01
sg49
I00
sbsg932
g0
(g874
g93
(lp1139
F0.907
aF0.915
aF0.92
aF0.921
atp1140
Rp1141
(dp1142
g42
I00
sg48
I01
sg49
I00
sbsg933
g0
(g310
g2
Ntp1143
Rp1144
(dp1145
g42
I00
sg48
I01
sg49
I00
sg50
I201
sbsg934
g0
(g310
g2
Ntp1146
Rp1147
(dp1148
g42
I00
sg48
I01
sg49
I00
sg50
I201
sbsg935
g0
(g78
g2
Ntp1149
Rp1150
(dp1151
g42
I00
sg48
I01
sg49
I00
sg50
F4.0
sbsg936
g0
(g874
g93
(lp1152
F0.0
atp1153
Rp1154
(dp1155
g42
I00
sg48
I01
sg49
I00
sbsg937
g0
(g874
g93
(lp1156
F0.0
atp1157
Rp1158
(dp1159
g42
I00
sg48
I01
sg49
I00
sbsg938
g0
(g78
g2
Ntp1160
Rp1161
(dp1162
g42
I00
sg48
I01
sg49
I00
sg50
F0.0
sbsg939
g0
(g78
g2
Ntp1163
Rp1164
(dp1165
g42
I00
sg48
I01
sg49
I00
sg50
F0.1
sbsg940
g0
(g120
g2
Ntp1166
Rp1167
(dp1168
g42
I00
sg48
I01
sg49
I00
sg50
I00
sbsbsg830
g0
(g223
g2
Ntp1169
Rp1170
(dp1171
g42
I00
sg48
I01
sg49
I00
sg19
(lp1172
g925
ag926
ag927
ag928
ag929
ag930
ag931
ag932
ag933
ag934
ag935
ag936
ag937
ag938
ag939
ag940
aVradiationDamage
p1173
asg43
Nsg925
g0
(g78
g2
Ntp1174
Rp1175
(dp1176
g42
I00
sg48
I01
sg49
I00
sg50
F17.3
sbsg926
g0
(g78
g2
Ntp1177
Rp1178
(dp1179
g42
I00
sg48
I01
sg49
I00
sg50
F1.5
sbsg927
g0
(g874
g93
(lp1180
F0.0006252
atp1181
Rp1182
(dp1183
g42
I00
sg48
I01
sg49
I00
sbsg928
g0
(g874
g93
(lp1184
I0
atp1185
Rp1186
(dp1187
g42
I00
sg48
I01
sg49
I00
sbsg929
g0
(g310
g2
Ntp1188
Rp1189
(dp1190
g42
I00
sg48
I01
sg49
I00
sg50
I16
sbsg930
g0
(g310
g2
Ntp1191
Rp1192
(dp1193
g42
I00
sg48
I01
sg49
I00
sg50
I2
sbsg931
g0
(g874
g93
(lp1194
F0.0
aF0.0
aF0.0
aF0.0
atp1195
Rp1196
(dp1197
g42
I00
sg48
I01
sg49
I00
sbsg932
g0
(g874
g93
(lp1198
F0.05376
aF0.05376
aF0.05376
aF0.05376
atp1199
Rp1200
(dp1201
g42
I00
sg48
I01
sg49
I00
sbsg933
g0
(g310
g2
Ntp1202
Rp1203
(dp1204
g42
I00
sg48
I01
sg49
I00
sg50
I206
sbsg934
g0
(g310
g2
Ntp1205
Rp1206
(dp1207
g42
I00
sg48
I01
sg49
I00
sg50
I208
sbsg935
g0
(g78
g2
Ntp1208
Rp1209
(dp1210
g42
I00
sg48
I01
sg49
I00
sg50
F40.0
sbsg936
g0
(g874
g93
(lp1211
F0.01
aF0.015
atp1212
Rp1213
(dp1214
g42
I00
sg48
I01
sg49
I00
sbsg937
g0
(g874
g93
(lp1215
F0.26
aF0.254
atp1216
Rp1217
(dp1218
g42
I00
sg48
I01
sg49
I00
sbsg938
g0
(g78
g2
Ntp1219
Rp1220
(dp1221
g42
I00
sg48
I01
sg49
I00
sg50
F0.0
sbsg939
g0
(g78
g2
Ntp1222
Rp1223
(dp1224
g42
I00
sg48
I01
sg49
I00
sg50
F0.1
sbsg940
g0
(g120
g2
Ntp1225
Rp1226
(dp1227
g42
I00
sg48
I01
sg49
I00
sg50
I01
sbsg1173
g0
(g223
g2
Ntp1228
Rp1229
(dp1230
g42
I00
sg48
I01
sg49
I00
sg19
(lp1231
VtemperatureBase
p1232
aVtemperatureNew
p1233
aVintlumiOffset
p1234
aVdepVsTemp
p1235
aVintlumiToNeutrons
p1236
aVdepVsNeutrons
p1237
asg43
Nsg1232
g0
(g78
g2
Ntp1238
Rp1239
(dp1240
g42
I00
sg48
I01
sg49
I00
sg50
I20
sbsg1233
g0
(g78
g2
Ntp1241
Rp1242
(dp1243
g42
I00
sg48
I01
sg49
I00
sg50
I-5
sbsg1234
g0
(g78
g2
Ntp1244
Rp1245
(dp1246
g42
I00
sg48
I01
sg49
I00
sg50
I150
sbsg1235
g0
(g78
g2
Ntp1247
Rp1248
(dp1249
g42
I00
sg48
I01
sg49
I00
sg50
F0.0631
sbsg1236
g0
(g78
g2
Ntp1250
Rp1251
(dp1252
g42
I00
sg48
I01
sg49
I00
sg50
F367000000.0
sbsg1237
g0
(g874
g93
(lp1253
F5.543e-10
aF8.012e-10
atp1254
Rp1255
(dp1256
g42
I00
sg48
I01
sg49
I00
sbsbsbsg831
g0
(g223
g2
Ntp1257
Rp1258
(dp1259
g42
I00
sg48
I01
sg49
I00
sg19
(lp1260
g925
ag926
ag927
ag928
ag929
ag930
ag931
ag932
ag933
ag934
ag935
ag936
ag937
ag938
ag939
ag940
ag1173
asg43
Nsg925
g0
(g78
g2
Ntp1261
Rp1262
(dp1263
g42
I00
sg48
I01
sg49
I00
sg50
F17.3
sbsg926
g0
(g78
g2
Ntp1264
Rp1265
(dp1266
g42
I00
sg48
I01
sg49
I00
sg50
F1.5
sbsg927
g0
(g874
g93
(lp1267
F0.0006252
atp1268
Rp1269
(dp1270
g42
I00
sg48
I01
sg49
I00
sbsg928
g0
(g874
g93
(lp1271
I0
atp1272
Rp1273
(dp1274
g42
I00
sg48
I01
sg49
I00
sbsg929
g0
(g310
g2
Ntp1275
Rp1276
(dp1277
g42
I00
sg48
I01
sg49
I00
sg50
I16
sbsg930
g0
(g310
g2
Ntp1278
Rp1279
(dp1280
g42
I00
sg48
I01
sg49
I00
sg50
I2
sbsg931
g0
(g874
g93
(lp1281
F0.0
aF0.0
aF0.0
aF0.0
atp1282
Rp1283
(dp1284
g42
I00
sg48
I01
sg49
I00
sbsg932
g0
(g874
g93
(lp1285
F0.05376
aF0.05376
aF0.05376
aF0.05376
atp1286
Rp1287
(dp1288
g42
I00
sg48
I01
sg49
I00
sbsg933
g0
(g310
g2
Ntp1289
Rp1290
(dp1291
g42
I00
sg48
I01
sg49
I00
sg50
I206
sbsg934
g0
(g310
g2
Ntp1292
Rp1293
(dp1294
g42
I00
sg48
I01
sg49
I00
sg50
I208
sbsg935
g0
(g78
g2
Ntp1295
Rp1296
(dp1297
g42
I00
sg48
I01
sg49
I00
sg50
F40.0
sbsg936
g0
(g874
g93
(lp1298
F0.01
aF0.015
atp1299
Rp1300
(dp1301
g42
I00
sg48
I01
sg49
I00
sbsg937
g0
(g874
g93
(lp1302
F0.26
aF0.254
atp1303
Rp1304
(dp1305
g42
I00
sg48
I01
sg49
I00
sbsg938
g0
(g78
g2
Ntp1306
Rp1307
(dp1308
g42
I00
sg48
I01
sg49
I00
sg50
F0.0
sbsg939
g0
(g78
g2
Ntp1309
Rp1310
(dp1311
g42
I00
sg48
I01
sg49
I00
sg50
F0.1
sbsg940
g0
(g120
g2
Ntp1312
Rp1313
(dp1314
g42
I00
sg48
I01
sg49
I00
sg50
I01
sbsg1173
g0
(g223
g2
Ntp1315
Rp1316
(dp1317
g42
I00
sg48
I01
sg49
I00
sg19
(lp1318
g1232
ag1233
ag1234
ag1235
ag1236
ag1237
asg43
Nsg1232
g0
(g78
g2
Ntp1319
Rp1320
(dp1321
g42
I00
sg48
I01
sg49
I00
sg50
I20
sbsg1233
g0
(g78
g2
Ntp1322
Rp1323
(dp1324
g42
I00
sg48
I01
sg49
I00
sg50
I5
sbsg1234
g0
(g78
g2
Ntp1325
Rp1326
(dp1327
g42
I00
sg48
I01
sg49
I00
sg50
I75
sbsg1235
g0
(g78
g2
Ntp1328
Rp1329
(dp1330
g42
I00
sg48
I01
sg49
I00
sg50
F0.0631
sbsg1236
g0
(g78
g2
Ntp1331
Rp1332
(dp1333
g42
I00
sg48
I01
sg49
I00
sg50
F29200000.0
sbsg1237
g0
(g874
g93
(lp1334
F5.543e-10
aF8.012e-10
atp1335
Rp1336
(dp1337
g42
I00
sg48
I01
sg49
I00
sbsbsbsg832
g0
(g223
g2
Ntp1338
Rp1339
(dp1340
g42
I00
sg48
I01
sg49
I00
sg19
(lp1341
g925
ag926
ag927
ag928
ag929
ag930
ag931
ag932
ag933
ag934
ag935
ag936
ag937
ag938
ag939
ag940
asg43
Nsg925
g0
(g78
g2
Ntp1342
Rp1343
(dp1344
g42
I00
sg48
I01
sg49
I00
sg50
F13.33
sbsg926
g0
(g78
g2
Ntp1345
Rp1346
(dp1347
g42
I00
sg48
I01
sg49
I00
sg50
F3.33
sbsg927
g0
(g874
g93
(lp1348
F0.14
aF0.135
atp1349
Rp1350
(dp1351
g42
I00
sg48
I01
sg49
I00
sbsg928
g0
(g874
g93
(lp1352
F0.0
aF0.0
atp1353
Rp1354
(dp1355
g42
I00
sg48
I01
sg49
I00
sbsg929
g0
(g310
g2
Ntp1356
Rp1357
(dp1358
g42
I00
sg48
I01
sg49
I00
sg50
I-9999
sbsg930
g0
(g310
g2
Ntp1359
Rp1360
(dp1361
g42
I00
sg48
I01
sg49
I00
sg50
I1
sbsg931
g0
(g874
g93
(lp1362
F0.0697
aF-0.7405
aF12.38
aF-671.9
atp1363
Rp1364
(dp1365
g42
I00
sg48
I01
sg49
I00
sbsg932
g0
(g874
g93
(lp1366
F0.297
aF0.298
aF0.298
aF0.313
atp1367
Rp1368
(dp1369
g42
I00
sg48
I01
sg49
I00
sbsg933
g0
(g310
g2
Ntp1370
Rp1371
(dp1372
g42
I00
sg48
I01
sg49
I00
sg50
I301
sbsg934
g0
(g310
g2
Ntp1373
Rp1374
(dp1375
g42
I00
sg48
I01
sg49
I00
sg50
I301
sbsg935
g0
(g78
g2
Ntp1376
Rp1377
(dp1378
g42
I00
sg48
I01
sg49
I00
sg50
F0.0
sbsg936
g0
(g874
g93
(lp1379
F0.0
atp1380
Rp1381
(dp1382
g42
I00
sg48
I01
sg49
I00
sbsg937
g0
(g874
g93
(lp1383
F0.0
atp1384
Rp1385
(dp1386
g42
I00
sg48
I01
sg49
I00
sbsg938
g0
(g78
g2
Ntp1387
Rp1388
(dp1389
g42
I00
sg48
I01
sg49
I00
sg50
F0.0
sbsg939
g0
(g78
g2
Ntp1390
Rp1391
(dp1392
g42
I00
sg48
I01
sg49
I00
sg50
F0.1
sbsg940
g0
(g120
g2
Ntp1393
Rp1394
(dp1395
g42
I00
sg48
I01
sg49
I00
sg50
I00
sbsbsg833
g0
(g604
g93
(lp1396
g0
(g223
g2
Ntp1397
Rp1398
(dp1399
g42
I00
sg48
I01
sg49
I00
sg19
(lp1400
Vpixels
p1401
aVcrosstalk
p1402
aVnonlin1
p1403
aVnonlin2
p1404
aVnonlin3
p1405
asg43
Nsg1401
g0
(g310
g2
Ntp1406
Rp1407
(dp1408
g42
I00
sg48
I01
sg49
I00
sg50
I36000
sbsg1402
g0
(g78
g2
Ntp1409
Rp1410
(dp1411
g42
I00
sg48
I01
sg49
I00
sg50
F0.0
sbsg1403
g0
(g78
g2
Ntp1412
Rp1413
(dp1414
g42
I00
sg48
I01
sg49
I00
sg50
F1.0
sbsg1404
g0
(g78
g2
Ntp1415
Rp1416
(dp1417
g42
I00
sg48
I01
sg49
I00
sg50
F0.0
sbsg1405
g0
(g78
g2
Ntp1418
Rp1419
(dp1420
g42
I00
sg48
I01
sg49
I00
sg50
F0.0
sbsbag0
(g223
g2
Ntp1421
Rp1422
(dp1423
g42
I00
sg48
I01
sg49
I00
sg19
(lp1424
g1401
ag1402
ag1403
ag1404
ag1405
asg43
Nsg1401
g0
(g310
g2
Ntp1425
Rp1426
(dp1427
g42
I00
sg48
I01
sg49
I00
sg50
I2500
sbsg1402
g0
(g78
g2
Ntp1428
Rp1429
(dp1430
g42
I00
sg48
I01
sg49
I00
sg50
F0.0
sbsg1403
g0
(g78
g2
Ntp1431
Rp1432
(dp1433
g42
I00
sg48
I01
sg49
I00
sg50
F1.0
sbsg1404
g0
(g78
g2
Ntp1434
Rp1435
(dp1436
g42
I00
sg48
I01
sg49
I00
sg50
F0.0
sbsg1405
g0
(g78
g2
Ntp1437
Rp1438
(dp1439
g42
I00
sg48
I01
sg49
I00
sg50
F0.0
sbsbag0
(g223
g2
Ntp1440
Rp1441
(dp1442
g42
I00
sg48
I01
sg49
I00
sg19
(lp1443
g1401
ag1402
ag1403
ag1404
ag1405
asg43
Nsg1401
g0
(g310
g2
Ntp1444
Rp1445
(dp1446
g42
I00
sg48
I01
sg49
I00
sg50
I27370
sbsg1402
g0
(g78
g2
Ntp1447
Rp1448
(dp1449
g42
I00
sg48
I01
sg49
I00
sg50
F0.17
sbsg1403
g0
(g78
g2
Ntp1450
Rp1451
(dp1452
g42
I00
sg48
I01
sg49
I00
sg50
F1.00985
sbsg1404
g0
(g78
g2
Ntp1453
Rp1454
(dp1455
g42
I00
sg48
I01
sg49
I00
sg50
F7.84089e-06
sbsg1405
g0
(g78
g2
Ntp1456
Rp1457
(dp1458
g42
I00
sg48
I01
sg49
I00
sg50
F2.86282e-10
sbsbag0
(g223
g2
Ntp1459
Rp1460
(dp1461
g42
I00
sg48
I01
sg49
I00
sg19
(lp1462
g1401
ag1402
ag1403
ag1404
ag1405
asg43
Nsg1401
g0
(g310
g2
Ntp1463
Rp1464
(dp1465
g42
I00
sg48
I01
sg49
I00
sg50
I38018
sbsg1402
g0
(g78
g2
Ntp1466
Rp1467
(dp1468
g42
I00
sg48
I01
sg49
I00
sg50
F0.196
sbsg1403
g0
(g78
g2
Ntp1469
Rp1470
(dp1471
g42
I00
sg48
I01
sg49
I00
sg50
F1.00546
sbsg1404
g0
(g78
g2
Ntp1472
Rp1473
(dp1474
g42
I00
sg48
I01
sg49
I00
sg50
F6.40239e-06
sbsg1405
g0
(g78
g2
Ntp1475
Rp1476
(dp1477
g42
I00
sg48
I01
sg49
I00
sg50
F1.27011e-10
sbsbag0
(g223
g2
Ntp1478
Rp1479
(dp1480
g42
I00
sg48
I01
sg49
I00
sg19
(lp1481
g1401
ag1402
ag1403
ag1404
ag1405
asg43
Nsg1401
g0
(g310
g2
Ntp1482
Rp1483
(dp1484
g42
I00
sg48
I01
sg49
I00
sg50
I27370
sbsg1402
g0
(g78
g2
Ntp1485
Rp1486
(dp1487
g42
I00
sg48
I01
sg49
I00
sg50
F0.17
sbsg1403
g0
(g78
g2
Ntp1488
Rp1489
(dp1490
g42
I00
sg48
I01
sg49
I00
sg50
F1.00985
sbsg1404
g0
(g78
g2
Ntp1491
Rp1492
(dp1493
g42
I00
sg48
I01
sg49
I00
sg50
F7.84089e-06
sbsg1405
g0
(g78
g2
Ntp1494
Rp1495
(dp1496
g42
I00
sg48
I01
sg49
I00
sg50
F2.86282e-10
sbsbag0
(g223
g2
Ntp1497
Rp1498
(dp1499
g42
I00
sg48
I01
sg49
I00
sg19
(lp1500
g1401
ag1402
ag1403
ag1404
ag1405
asg43
Nsg1401
g0
(g310
g2
Ntp1501
Rp1502
(dp1503
g42
I00
sg48
I01
sg49
I00
sg50
I38018
sbsg1402
g0
(g78
g2
Ntp1504
Rp1505
(dp1506
g42
I00
sg48
I01
sg49
I00
sg50
F0.196
sbsg1403
g0
(g78
g2
Ntp1507
Rp1508
(dp1509
g42
I00
sg48
I01
sg49
I00
sg50
F1.00546
sbsg1404
g0
(g78
g2
Ntp1510
Rp1511
(dp1512
g42
I00
sg48
I01
sg49
I00
sg50
F6.40239e-06
sbsg1405
g0
(g78
g2
Ntp1513
Rp1514
(dp1515
g42
I00
sg48
I01
sg49
I00
sg50
F1.27011e-10
sbsbag0
(g223
g2
Ntp1516
Rp1517
(dp1518
g42
I00
sg48
I01
sg49
I00
sg19
(lp1519
g1401
ag1402
ag1403
ag1404
ag1405
asg43
Nsg1401
g0
(g310
g2
Ntp1520
Rp1521
(dp1522
g42
I00
sg48
I01
sg49
I00
sg50
I0
sbsg1402
g0
(g78
g2
Ntp1523
Rp1524
(dp1525
g42
I00
sg48
I01
sg49
I00
sg50
F0.0
sbsg1403
g0
(g78
g2
Ntp1526
Rp1527
(dp1528
g42
I00
sg48
I01
sg49
I00
sg50
F1.0
sbsg1404
g0
(g78
g2
Ntp1529
Rp1530
(dp1531
g42
I00
sg48
I01
sg49
I00
sg50
F0.0
sbsg1405
g0
(g78
g2
Ntp1532
Rp1533
(dp1534
g42
I00
sg48
I01
sg49
I00
sg50
F0.0
sbsbatp1535
Rp1536
(dp1537
g42
I00
sg48
I01
sg49
I00
sg103
I1
sbsg139
V/cvmfs/cms.cern.ch/el9_amd64_gcc12/cms/cmssw/CMSSW_14_1_0_pre2/src/CalibCalorimetry/HcalPlugins/python/Hcal_Conditions_forGlobalTag_cff.py
p1538
sg141
I16
sg142
g801
sbssV_Process__esproducers
p1539
(dp1540
VCSCGeometryESModule
p1541
g0
(cFWCore.ParameterSet.Modules
ESProducer
p1542
g2
Ntp1543
Rp1544
(dp1545
g17
g1541
sg19
(lp1546
VfromDDD
p1547
aVfromDD4hep
p1548
aValignmentsLabel
p1549
ag636
aVuseRealWireGeometry
p1550
aVuseOnlyWiresInME1a
p1551
aVuseGangedStripsInME1a
p1552
aVuseCentreTIOffsets
p1553
aVapplyAlignment
p1554
aVdebugV
p1555
asg42
I00
sg43
Nsg1547
g0
(g120
g2
Ntp1556
Rp1557
(dp1558
g42
I00
sg48
I01
sg49
I00
sg50
I00
sbsg49
I01
sg1548
g0
(g120
g2
Ntp1559
Rp1560
(dp1561
g42
I00
sg48
I01
sg49
I00
sg50
I00
sbsg1549
g0
(g44
g2
Ntp1562
Rp1563
(dp1564
g42
I00
sg48
I01
sg49
I00
sg50
g59
sbsg636
g0
(g44
g2
Ntp1565
Rp1566
(dp1567
g42
I00
sg48
I01
sg49
I00
sg50
g59
sbsg1550
g0
(g120
g2
Ntp1568
Rp1569
(dp1570
g42
I00
sg48
I01
sg49
I00
sg50
I01
sbsg1551
g0
(g120
g2
Ntp1571
Rp1572
(dp1573
g42
I00
sg48
I01
sg49
I00
sg50
I00
sbsg1552
g0
(g120
g2
Ntp1574
Rp1575
(dp1576
g42
I00
sg48
I01
sg49
I01
sg50
I00
sbsg1553
g0
(g120
g2
Ntp1577
Rp1578
(dp1579
g42
I00
sg48
I01
sg49
I00
sg50
I00
sbsg1554
g0
(g120
g2
Ntp1580
Rp1581
(dp1582
g42
I00
sg48
I01
sg49
I00
sg50
I01
sbsg1555
g0
(g120
g2
Ntp1583
Rp1584
(dp1585
g42
I00
sg48
I00
sg49
I00
sg50
I00
sbsg139
g162
sg141
I55
sg142
g1541
sbsVCaloGeometryBuilder
p1586
g0
(g1542
g2
Ntp1587
Rp1588
(dp1589
g17
g1586
sg19
(lp1590
VSelectedCalos
p1591
asg42
I00
sg43
Nsg1591
g0
(g92
g93
(lp1592
VHCAL
p1593
aVZDC
p1594
aVEcalBarrel
p1595
aVEcalEndcap
p1596
aVEcalPreshower
p1597
aVTOWER
p1598
atp1599
Rp1600
(dp1601
g42
I00
sg48
I01
sg49
I01
sg103
I1
sbsg49
I01
sg139
g162
sg141
I55
sg142
g1586
sbsVCaloTopologyBuilder
p1602
g0
(g1542
g2
Ntp1603
Rp1604
(dp1605
g17
g1602
sg19
(lp1606
sg42
I00
sg43
Nsg49
I00
sg139
g162
sg141
I55
sg142
g1602
sbsVCaloTowerGeometryFromDBEP
p1607
g0
(g1542
g2
Ntp1608
Rp1609
(dp1610
g17
g1607
sg19
(lp1611
g1554
asg42
I00
sg43
Nsg1554
g0
(g120
g2
Ntp1612
Rp1613
(dp1614
g42
I00
sg48
I01
sg49
I00
sg50
I00
sbsg49
I00
sg139
g162
sg141
I55
sg142
g1607
sbsVCaloTowerTopologyEP
p1615
g0
(g1542
g2
Ntp1616
Rp1617
(dp1618
g17
g1615
sg19
(lp1619
sg42
I00
sg43
Nsg49
I00
sg139
g162
sg141
I55
sg142
g1615
sbsVCastorGeometryFromDBEP
p1620
g0
(g1542
g2
Ntp1621
Rp1622
(dp1623
g17
g1620
sg19
(lp1624
g1554
asg42
I00
sg43
Nsg1554
g0
(g120
g2
Ntp1625
Rp1626
(dp1627
g42
I00
sg48
I01
sg49
I00
sg50
I00
sbsg49
I00
sg139
g162
sg141
I55
sg142
g1620
sbsVDTGeometryESModule
p1628
g0
(g1542
g2
Ntp1629
Rp1630
(dp1631
g17
g1628
sg19
(lp1632
g1547
ag1548
aVDDDetector
p1633
ag1549
ag636
aVattribute
p1634
aVvalue
p1635
ag1554
asg42
I00
sg43
Nsg1547
g0
(g120
g2
Ntp1636
Rp1637
(dp1638
g42
I00
sg48
I01
sg49
I01
sg50
I00
sbsg49
I01
sg1548
g0
(g120
g2
Ntp1639
Rp1640
(dp1641
g42
I00
sg48
I01
sg49
I00
sg50
I00
sbsg1633
g0
(cFWCore.ParameterSet.Types
ESInputTag
p1642
g2
Ntp1643
Rp1644
(dp1645
g42
I00
sg48
I01
sg49
I00
sV_ESInputTag__moduleLabel
p1646
g59
sV_ESInputTag__data
p1647
g59
sbsg1549
g0
(g44
g2
Ntp1648
Rp1649
(dp1650
g42
I00
sg48
I01
sg49
I00
sg50
g59
sbsg636
g0
(g44
g2
Ntp1651
Rp1652
(dp1653
g42
I00
sg48
I01
sg49
I00
sg50
g59
sbsg1634
g0
(g44
g2
Ntp1654
Rp1655
(dp1656
g42
I00
sg48
I01
sg49
I00
sg50
VMuStructure
p1657
sbsg1635
g0
(g44
g2
Ntp1658
Rp1659
(dp1660
g42
I00
sg48
I01
sg49
I00
sg50
VMuonBarrelDT
p1661
sbsg1554
g0
(g120
g2
Ntp1662
Rp1663
(dp1664
g42
I00
sg48
I01
sg49
I00
sg50
I01
sbsg139
g162
sg141
I55
sg142
g1628
sbsVEcalBarrelGeometryFromDBEP
p1665
g0
(g1542
g2
Ntp1666
Rp1667
(dp1668
g17
g1665
sg19
(lp1669
g1554
asg42
I00
sg43
Nsg1554
g0
(g120
g2
Ntp1670
Rp1671
(dp1672
g42
I00
sg48
I01
sg49
I01
sg50
I01
sbsg49
I01
sg139
g162
sg141
I55
sg142
g1665
sbsVEcalElectronicsMappingBuilder
p1673
g0
(g1542
g2
Ntp1674
Rp1675
(dp1676
g17
g1673
sg19
(lp1677
sg42
I00
sg43
Nsg49
I00
sg139
g162
sg141
I55
sg142
g1673
sbsVEcalEndcapGeometryFromDBEP
p1678
g0
(g1542
g2
Ntp1679
Rp1680
(dp1681
g17
g1678
sg19
(lp1682
g1554
asg42
I00
sg43
Nsg1554
g0
(g120
g2
Ntp1683
Rp1684
(dp1685
g42
I00
sg48
I01
sg49
I01
sg50
I01
sbsg49
I01
sg139
g162
sg141
I55
sg142
g1678
sbsVEcalPreshowerGeometryFromDBEP
p1686
g0
(g1542
g2
Ntp1687
Rp1688
(dp1689
g17
g1686
sg19
(lp1690
g1554
asg42
I00
sg43
Nsg1554
g0
(g120
g2
Ntp1691
Rp1692
(dp1693
g42
I00
sg48
I01
sg49
I01
sg50
I01
sbsg49
I01
sg139
g162
sg141
I55
sg142
g1686
sbsVEcalTrigTowerConstituentsMapBuilder
p1694
g0
(g1542
g2
Ntp1695
Rp1696
(dp1697
g17
g1694
sg19
(lp1698
VMapFile
p1699
asg42
I00
sg43
Nsg1699
g0
(g44
g2
Ntp1700
Rp1701
(dp1702
g42
I00
sg48
I00
sg49
I00
sg50
VGeometry/EcalMapping/data/EndCap_TTMap.txt
p1703
sbsg49
I00
sg139
g162
sg141
I55
sg142
g1694
sbsVGlobalTrackingGeometryESProducer
p1704
g0
(g1542
g2
Ntp1705
Rp1706
(dp1707
g17
g1704
sg19
(lp1708
sg42
I00
sg43
Nsg49
I00
sg139
g162
sg141
I55
sg142
g1704
sbsVHcalAlignmentEP
p1709
g0
(g1542
g2
Ntp1710
Rp1711
(dp1712
g17
g1709
sg19
(lp1713
sg42
I00
sg43
Nsg49
I00
sg139
g162
sg141
I55
sg142
g1709
sbsVHcalGeometryFromDBEP
p1714
g0
(g1542
g2
Ntp1715
Rp1716
(dp1717
g17
g1714
sg19
(lp1718
g1554
asg42
I00
sg43
Nsg1554
g0
(g120
g2
Ntp1719
Rp1720
(dp1721
g42
I00
sg48
I01
sg49
I01
sg50
I01
sbsg49
I01
sg139
g162
sg141
I55
sg142
g1714
sbsVMuonDetLayerGeometryESProducer
p1722
g0
(g1542
g2
Ntp1723
Rp1724
(dp1725
g17
g1722
sg19
(lp1726
sg42
I00
sg43
Nsg49
I00
sg139
g162
sg141
I55
sg142
g1722
sbsVRPCGeometryESModule
p1727
g0
(g1542
g2
Ntp1728
Rp1729
(dp1730
g17
g1727
sg19
(lp1731
g1547
ag1548
asg42
I00
sg43
Nsg1547
g0
(g120
g2
Ntp1732
Rp1733
(dp1734
g42
I00
sg48
I00
sg49
I00
sg50
I00
sbsg49
I00
sg1548
g0
(g120
g2
Ntp1735
Rp1736
(dp1737
g42
I00
sg48
I00
sg49
I00
sg50
I00
sbsg139
g162
sg141
I55
sg142
g1727
sbsVTrackerRecoGeometryESProducer
p1738
g0
(g1542
g2
Ntp1739
Rp1740
(dp1741
g17
g1738
sg19
(lp1742
VusePhase2Stacks
p1743
asg42
I00
sg43
Nsg1743
g0
(g120
g2
Ntp1744
Rp1745
(dp1746
g42
I00
sg48
I01
sg49
I00
sg50
I00
sbsg49
I00
sg139
g162
sg141
I55
sg142
g1738
sbsVZdcGeometryFromDBEP
p1747
g0
(g1542
g2
Ntp1748
Rp1749
(dp1750
g17
g1747
sg19
(lp1751
g1554
asg42
I00
sg43
Nsg1554
g0
(g120
g2
Ntp1752
Rp1753
(dp1754
g42
I00
sg48
I01
sg49
I00
sg50
I00
sbsg49
I00
sg139
g162
sg141
I55
sg142
g1747
sbsVfakeForIdealAlignment
p1755
g0
(g1542
g2
Ntp1756
Rp1757
(dp1758
g17
VFakeAlignmentProducer
p1759
sg19
(lp1760
g636
asg42
I00
sg43
Nsg636
g0
(g44
g2
Ntp1761
Rp1762
(dp1763
g42
I00
sg48
I01
sg49
I01
sg50
VfakeForIdeal
p1764
sbsg49
I01
sg139
V/cvmfs/cms.cern.ch/el9_amd64_gcc12/cms/cmssw/CMSSW_14_1_0_pre2/src/Alignment/CommonAlignmentProducer/python/fakeForIdealAlignmentProducer_cfi.py
p1765
sg141
I5
sg142
g1755
sbsVhcalDDDRecConstants
p1766
g0
(g1542
g2
Ntp1767
Rp1768
(dp1769
g17
VHcalDDDRecConstantsESModule
p1770
sg19
(lp1771
g636
asg42
I00
sg43
Nsg636
g0
(g44
g2
Ntp1772
Rp1773
(dp1774
g42
I00
sg48
I01
sg49
I00
sg50
g59
sbsg49
I00
sg139
g162
sg141
I55
sg142
g1766
sbsVhcalDDDSimConstants
p1775
g0
(g1542
g2
Ntp1776
Rp1777
(dp1778
g17
VHcalDDDSimConstantsESModule
p1779
sg19
(lp1780
g636
asg42
I00
sg43
Nsg636
g0
(g44
g2
Ntp1781
Rp1782
(dp1783
g42
I00
sg48
I01
sg49
I00
sg50
g59
sbsg49
I00
sg139
g162
sg141
I55
sg142
g1775
sbsVhcalTopologyIdeal
p1784
g0
(g1542
g2
Ntp1785
Rp1786
(dp1787
g17
VHcalTopologyIdealEP
p1788
sg19
(lp1789
VExclude
p1790
aVMergePosition
p1791
ag636
asg42
I00
sg43
Nsg1790
g0
(g44
g2
Ntp1792
Rp1793
(dp1794
g42
I00
sg48
I00
sg49
I00
sg50
g59
sbsg49
I00
sg1791
g0
(g120
g2
Ntp1795
Rp1796
(dp1797
g42
I00
sg48
I00
sg49
I00
sg50
I00
sbsg636
g0
(g44
g2
Ntp1798
Rp1799
(dp1800
g42
I00
sg48
I01
sg49
I00
sg50
g59
sbsg139
g162
sg141
I55
sg142
g1784
sbsVidealForDigiCSCGeometry
p1801
g0
(g1542
g2
Ntp1802
Rp1803
(dp1804
g17
g1541
sg19
(lp1805
g1547
ag1548
ag1549
ag636
ag1550
ag1551
ag1552
ag1553
ag1554
ag1555
asg42
I00
sg43
Nsg1547
g0
(g120
g2
Ntp1806
Rp1807
(dp1808
g42
I00
sg48
I01
sg49
I00
sg50
I00
sbsg49
I01
sg1548
g0
(g120
g2
Ntp1809
Rp1810
(dp1811
g42
I00
sg48
I01
sg49
I00
sg50
I00
sbsg1549
g0
(g44
g2
Ntp1812
Rp1813
(dp1814
g42
I00
sg48
I01
sg49
I01
sg50
g1764
sbsg636
g0
(g44
g2
Ntp1815
Rp1816
(dp1817
g42
I00
sg48
I01
sg49
I01
sg50
VidealForDigi
p1818
sbsg1550
g0
(g120
g2
Ntp1819
Rp1820
(dp1821
g42
I00
sg48
I01
sg49
I00
sg50
I01
sbsg1551
g0
(g120
g2
Ntp1822
Rp1823
(dp1824
g42
I00
sg48
I01
sg49
I00
sg50
I00
sbsg1552
g0
(g120
g2
Ntp1825
Rp1826
(dp1827
g42
I00
sg48
I01
sg49
I01
sg50
I00
sbsg1553
g0
(g120
g2
Ntp1828
Rp1829
(dp1830
g42
I00
sg48
I01
sg49
I00
sg50
I00
sbsg1554
g0
(g120
g2
Ntp1831
Rp1832
(dp1833
g42
I00
sg48
I01
sg49
I01
sg50
I00
sbsg1555
g0
(g120
g2
Ntp1834
Rp1835
(dp1836
g42
I00
sg48
I00
sg49
I00
sg50
I00
sbsg139
V/cvmfs/cms.cern.ch/el9_amd64_gcc12/cms/cmssw/CMSSW_14_1_0_pre2/src/Geometry/CSCGeometryBuilder/python/idealForDigiCscGeometryDB_cff.py
p1837
sg141
I8
sg142
g1801
sbsVidealForDigiDTGeometry
p1838
g0
(g1542
g2
Ntp1839
Rp1840
(dp1841
g17
g1628
sg19
(lp1842
g1547
ag1548
ag1633
ag1549
ag636
ag1634
ag1635
ag1554
asg42
I00
sg43
Nsg1547
g0
(g120
g2
Ntp1843
Rp1844
(dp1845
g42
I00
sg48
I01
sg49
I01
sg50
I00
sbsg49
I01
sg1548
g0
(g120
g2
Ntp1846
Rp1847
(dp1848
g42
I00
sg48
I01
sg49
I00
sg50
I00
sbsg1633
g0
(g1642
g2
Ntp1849
Rp1850
(dp1851
g42
I00
sg48
I01
sg49
I00
sg1646
g59
sg1647
g59
sbsg1549
g0
(g44
g2
Ntp1852
Rp1853
(dp1854
g42
I00
sg48
I01
sg49
I01
sg50
g1764
sbsg636
g0
(g44
g2
Ntp1855
Rp1856
(dp1857
g42
I00
sg48
I01
sg49
I01
sg50
g1818
sbsg1634
g0
(g44
g2
Ntp1858
Rp1859
(dp1860
g42
I00
sg48
I01
sg49
I00
sg50
g1657
sbsg1635
g0
(g44
g2
Ntp1861
Rp1862
(dp1863
g42
I00
sg48
I01
sg49
I00
sg50
g1661
sbsg1554
g0
(g120
g2
Ntp1864
Rp1865
(dp1866
g42
I00
sg48
I01
sg49
I01
sg50
I00
sbsg139
V/cvmfs/cms.cern.ch/el9_amd64_gcc12/cms/cmssw/CMSSW_14_1_0_pre2/src/Geometry/DTGeometryBuilder/python/idealForDigiDtGeometryDB_cff.py
p1867
sg141
I8
sg142
g1838
sbsVidealForDigiTrackerGeometry
p1868
g0
(g1542
g2
Ntp1869
Rp1870
(dp1871
g17
VTrackerDigiGeometryESModule
p1872
sg19
(lp1873
g636
ag1547
ag1554
ag1549
asg42
I00
sg43
Nsg636
g0
(g44
g2
Ntp1874
Rp1875
(dp1876
g42
I00
sg48
I01
sg49
I01
sg50
g1818
sbsg49
I01
sg1547
g0
(g120
g2
Ntp1877
Rp1878
(dp1879
g42
I00
sg48
I01
sg49
I00
sg50
I00
sbsg1554
g0
(g120
g2
Ntp1880
Rp1881
(dp1882
g42
I00
sg48
I01
sg49
I01
sg50
I00
sbsg1549
g0
(g44
g2
Ntp1883
Rp1884
(dp1885
g42
I00
sg48
I01
sg49
I01
sg50
g1764
sbsg139
V/cvmfs/cms.cern.ch/el9_amd64_gcc12/cms/cmssw/CMSSW_14_1_0_pre2/src/Geometry/TrackerGeometryBuilder/python/idealForDigiTrackerGeometryDB_cff.py
p1886
sg141
I8
sg142
g1868
sbsVmuonGeometryConstants
p1887
g0
(g1542
g2
Ntp1888
Rp1889
(dp1890
g17
VMuonGeometryConstantsESModule
p1891
sg19
(lp1892
g1548
ag636
asg42
I00
sg43
Nsg1548
g0
(g120
g2
Ntp1893
Rp1894
(dp1895
g42
I00
sg48
I01
sg49
I00
sg50
I01
sbsg49
I01
sg636
g0
(g44
g2
Ntp1896
Rp1897
(dp1898
g42
I00
sg48
I01
sg49
I00
sg50
g59
sbsg139
g162
sg141
I55
sg142
g1887
sbsVtrackerGeometryDB
p1899
g0
(g1542
g2
Ntp1900
Rp1901
(dp1902
g17
g1872
sg19
(lp1903
g636
ag1547
ag1554
ag1549
asg42
I00
sg43
Nsg636
g0
(g44
g2
Ntp1904
Rp1905
(dp1906
g42
I00
sg48
I01
sg49
I00
sg50
g59
sbsg49
I00
sg1547
g0
(g120
g2
Ntp1907
Rp1908
(dp1909
g42
I00
sg48
I01
sg49
I00
sg50
I00
sbsg1554
g0
(g120
g2
Ntp1910
Rp1911
(dp1912
g42
I00
sg48
I01
sg49
I00
sg50
I01
sbsg1549
g0
(g44
g2
Ntp1913
Rp1914
(dp1915
g42
I00
sg48
I01
sg49
I00
sg50
g59
sbsg139
g162
sg141
I55
sg142
g1899
sbsVtrackerNumberingGeometryDB
p1916
g0
(g1542
g2
Ntp1917
Rp1918
(dp1919
g17
VTrackerGeometricDetESModule
p1920
sg19
(lp1921
g1547
ag1548
ag636
asg42
I00
sg43
Nsg1547
g0
(g120
g2
Ntp1922
Rp1923
(dp1924
g42
I00
sg48
I01
sg49
I00
sg50
I00
sbsg49
I00
sg1548
g0
(g120
g2
Ntp1925
Rp1926
(dp1927
g42
I00
sg48
I01
sg49
I00
sg50
I00
sbsg636
g0
(g44
g2
Ntp1928
Rp1929
(dp1930
g42
I00
sg48
I01
sg49
I00
sg50
g59
sbsg139
g162
sg141
I55
sg142
g1916
sbsVtrackerTopology
p1931
g0
(g1542
g2
Ntp1932
Rp1933
(dp1934
g17
VTrackerTopologyEP
p1935
sg19
(lp1936
g636
asg42
I00
sg43
Nsg636
g0
(g44
g2
Ntp1937
Rp1938
(dp1939
g42
I00
sg48
I01
sg49
I00
sg50
g59
sbsg49
I00
sg139
g162
sg141
I55
sg142
g1931
sbsVGEMGeometryESModule
p1940
g0
(g1542
g2
Ntp1941
Rp1942
(dp1943
g17
g1940
sg19
(lp1944
g1547
ag1548
ag636
ag1549
ag1554
asg42
I00
sg43
Nsg1547
g0
(g120
g2
Ntp1945
Rp1946
(dp1947
g42
I00
sg48
I01
sg49
I00
sg50
I00
sbsg49
I01
sg1548
g0
(g120
g2
Ntp1948
Rp1949
(dp1950
g42
I00
sg48
I01
sg49
I00
sg50
I00
sbsg636
g0
(g44
g2
Ntp1951
Rp1952
(dp1953
g42
I00
sg48
I01
sg49
I00
sg50
g59
sbsg1549
g0
(g44
g2
Ntp1954
Rp1955
(dp1956
g42
I00
sg48
I01
sg49
I00
sg50
g59
sbsg1554
g0
(g120
g2
Ntp1957
Rp1958
(dp1959
g42
I00
sg48
I01
sg49
I01
sg50
I01
sbsg139
g162
sg141
I55
sg142
g1940
sbsVParabolicParametrizedMagneticFieldProducer
p1960
g0
(g1542
g2
Ntp1961
Rp1962
(dp1963
g17
VAutoParametrizedMagneticFieldProducer
p1964
sg19
(lp1965
Vversion
p1966
aVlabel
p1967
aVvalueOverride
p1968
asg42
I00
sg43
Nsg1966
g0
(g44
g2
Ntp1969
Rp1970
(dp1971
g42
I00
sg48
I01
sg49
I00
sg50
VParabolic
p1972
sbsg49
I01
sg1967
g0
(g44
g2
Ntp1973
Rp1974
(dp1975
g42
I00
sg48
I00
sg49
I01
sg50
VParabolicMf
p1976
sbsg1968
g0
(g310
g2
Ntp1977
Rp1978
(dp1979
g42
I00
sg48
I01
sg49
I00
sg50
I-1
sbsg139
g162
sg141
I55
sg142
g1960
sbsVVolumeBasedMagneticFieldESProducer
p1980
g0
(g1542
g2
Ntp1981
Rp1982
(dp1983
g17
VDD4hep_VolumeBasedMagneticFieldESProducerFromDB
p1984
sg19
(lp1985
g1967
aVdebugBuilder
p1986
ag1968
asg42
I00
sg43
Nsg49
I01
sg139
g162
sg141
I55
sg1967
g0
(g44
g2
Ntp1987
Rp1988
(dp1989
g42
I00
sg48
I00
sg49
I00
sg50
g59
sbsg1986
g0
(g120
g2
Ntp1990
Rp1991
(dp1992
g42
I00
sg48
I00
sg49
I00
sg50
I00
sbsg1968
g0
(g310
g2
Ntp1993
Rp1994
(dp1995
g42
I00
sg48
I01
sg49
I00
sg50
I-1
sbsg142
g1980
sbsVCastorDbProducer
p1996
g0
(g1542
g2
Ntp1997
Rp1998
(dp1999
g17
g1996
sg19
(lp2000
g636
asg42
I00
sg43
Nsg636
g0
(g44
g2
Ntp2001
Rp2002
(dp2003
g42
I00
sg48
I01
sg49
I00
sg50
g59
sbsg49
I00
sg139
g162
sg141
I55
sg142
g1996
sbsVEcalLaserCorrectionService
p2004
g0
(g1542
g2
Ntp2005
Rp2006
(dp2007
g17
g2004
sg19
(lp2008
VmaxExtrapolationTimeInSec
p2009
asg42
I00
sg43
Nsg2009
g0
(cFWCore.ParameterSet.Types
uint32
p2010
g2
Ntp2011
Rp2012
(dp2013
g42
I00
sg48
I01
sg49
I00
sg50
I0
sbsg49
I00
sg139
g162
sg141
I55
sg142
g2004
sbsVEcalLaserCorrectionServiceMC
p2014
g0
(g1542
g2
Ntp2015
Rp2016
(dp2017
g17
g2014
sg19
(lp2018
g636
asg42
I00
sg43
Nsg636
g0
(g44
g2
Ntp2019
Rp2020
(dp2021
g42
I00
sg48
I01
sg49
I00
sg50
g59
sbsg49
I00
sg139
g162
sg141
I55
sg142
g2014
sbsVSiStripRecHitMatcherESProducer
p2022
g0
(g1542
g2
Ntp2023
Rp2024
(dp2025
g17
g2022
sg19
(lp2026
VComponentName
p2027
aVNSigmaInside
p2028
aVPreFilter
p2029
asg42
I00
sg43
Nsg2027
g0
(g44
g2
Ntp2030
Rp2031
(dp2032
g42
I00
sg48
I01
sg49
I00
sg50
VStandardMatcher
p2033
sbsg49
I00
sg2028
g0
(g78
g2
Ntp2034
Rp2035
(dp2036
g42
I00
sg48
I01
sg49
I00
sg50
F3.0
sbsg2029
g0
(g120
g2
Ntp2037
Rp2038
(dp2039
g42
I00
sg48
I01
sg49
I00
sg50
I00
sbsg139
g162
sg141
I55
sg142
g2022
sbsVStripCPEfromTrackAngleESProducer
p2040
g0
(g1542
g2
Ntp2041
Rp2042
(dp2043
g17
VStripCPEESProducer
p2044
sg19
(lp2045
g2027
aVComponentType
p2046
aVparameters
p2047
asg42
I00
sg43
Nsg2027
g0
(g44
g2
Ntp2048
Rp2049
(dp2050
g42
I00
sg48
I01
sg49
I01
sg50
VStripCPEfromTrackAngle
p2051
sbsg49
I00
sg2046
g0
(g44
g2
Ntp2052
Rp2053
(dp2054
g42
I00
sg48
I01
sg49
I01
sg50
g2051
sbsg2047
g0
(g223
g2
Ntp2055
Rp2056
(dp2057
g42
I00
sg48
I01
sg49
I00
sg19
(lp2058
VmLC_P0
p2059
aVmLC_P1
p2060
aVmLC_P2
p2061
aVmTIB_P0
p2062
aVmTIB_P1
p2063
aVmTOB_P0
p2064
aVmTOB_P1
p2065
aVmTID_P0
p2066
aVmTID_P1
p2067
aVmTEC_P0
p2068
aVmTEC_P1
p2069
aVuseLegacyError
p2070
aVmaxChgOneMIP
p2071
asg43
Nsg2059
g0
(g78
g2
Ntp2072
Rp2073
(dp2074
g42
I00
sg48
I01
sg49
I00
sg50
F-0.326
sbsg2060
g0
(g78
g2
Ntp2075
Rp2076
(dp2077
g42
I00
sg48
I01
sg49
I00
sg50
F0.618
sbsg2061
g0
(g78
g2
Ntp2078
Rp2079
(dp2080
g42
I00
sg48
I01
sg49
I00
sg50
F0.3
sbsg2062
g0
(g78
g2
Ntp2081
Rp2082
(dp2083
g42
I00
sg48
I01
sg49
I00
sg50
F-0.742
sbsg2063
g0
(g78
g2
Ntp2084
Rp2085
(dp2086
g42
I00
sg48
I01
sg49
I00
sg50
F0.202
sbsg2064
g0
(g78
g2
Ntp2087
Rp2088
(dp2089
g42
I00
sg48
I01
sg49
I00
sg50
F-1.026
sbsg2065
g0
(g78
g2
Ntp2090
Rp2091
(dp2092
g42
I00
sg48
I01
sg49
I00
sg50
F0.253
sbsg2066
g0
(g78
g2
Ntp2093
Rp2094
(dp2095
g42
I00
sg48
I01
sg49
I00
sg50
F-1.427
sbsg2067
g0
(g78
g2
Ntp2096
Rp2097
(dp2098
g42
I00
sg48
I01
sg49
I00
sg50
F0.433
sbsg2068
g0
(g78
g2
Ntp2099
Rp2100
(dp2101
g42
I00
sg48
I01
sg49
I00
sg50
F-1.885
sbsg2069
g0
(g78
g2
Ntp2102
Rp2103
(dp2104
g42
I00
sg48
I01
sg49
I00
sg50
F0.471
sbsg2070
g0
(g120
g2
Ntp2105
Rp2106
(dp2107
g42
I00
sg48
I01
sg49
I00
sg50
I00
sbsg2071
g0
(g78
g2
Ntp2108
Rp2109
(dp2110
g42
I00
sg48
I01
sg49
I00
sg50
F6000.0
sbsbsg139
V/cvmfs/cms.cern.ch/el9_amd64_gcc12/cms/cmssw/CMSSW_14_1_0_pre2/src/RecoLocalTracker/SiStripRecHitConverter/python/StripCPEfromTrackAngle_cfi.py
p2111
sg141
I4
sg142
g2040
sbsVctppsBeamParametersFromLHCInfoESSource
p2112
g0
(g1542
g2
Ntp2113
Rp2114
(dp2115
g17
VCTPPSBeamParametersFromLHCInfoESSource
p2116
sg19
(lp2117
VlhcInfoLabel
p2118
aVlhcInfoPerLSLabel
p2119
aVlhcInfoPerFillLabel
p2120
aVuseNewLHCInfo
p2121
aVbeamDivX45
p2122
aVbeamDivY45
p2123
aVbeamDivX56
p2124
aVbeamDivY56
p2125
aVvtxOffsetX45
p2126
aVvtxOffsetY45
p2127
aVvtxOffsetZ45
p2128
aVvtxOffsetX56
p2129
aVvtxOffsetY56
p2130
aVvtxOffsetZ56
p2131
aVvtxStddevX
p2132
aVvtxStddevY
p2133
aVvtxStddevZ
p2134
ag636
asg42
I00
sg43
Nsg2118
g0
(g44
g2
Ntp2135
Rp2136
(dp2137
g42
I00
sg48
I01
sg49
I00
sg50
g59
sbsg49
I01
sg2119
g0
(g44
g2
Ntp2138
Rp2139
(dp2140
g42
I00
sg48
I01
sg49
I00
sg50
g59
sbsg2120
g0
(g44
g2
Ntp2141
Rp2142
(dp2143
g42
I00
sg48
I01
sg49
I00
sg50
g59
sbsg2121
g0
(g120
g2
Ntp2144
Rp2145
(dp2146
g42
I00
sg48
I01
sg49
I01
sg50
I01
sbsg2122
g0
(g78
g2
Ntp2147
Rp2148
(dp2149
g42
I00
sg48
I01
sg49
I00
sg50
F0.1
sbsg2123
g0
(g78
g2
Ntp2150
Rp2151
(dp2152
g42
I00
sg48
I01
sg49
I00
sg50
F0.1
sbsg2124
g0
(g78
g2
Ntp2153
Rp2154
(dp2155
g42
I00
sg48
I01
sg49
I00
sg50
F0.1
sbsg2125
g0
(g78
g2
Ntp2156
Rp2157
(dp2158
g42
I00
sg48
I01
sg49
I00
sg50
F0.1
sbsg2126
g0
(g78
g2
Ntp2159
Rp2160
(dp2161
g42
I00
sg48
I01
sg49
I00
sg50
F0.01
sbsg2127
g0
(g78
g2
Ntp2162
Rp2163
(dp2164
g42
I00
sg48
I01
sg49
I00
sg50
F0.01
sbsg2128
g0
(g78
g2
Ntp2165
Rp2166
(dp2167
g42
I00
sg48
I01
sg49
I00
sg50
F0.01
sbsg2129
g0
(g78
g2
Ntp2168
Rp2169
(dp2170
g42
I00
sg48
I01
sg49
I00
sg50
F0.01
sbsg2130
g0
(g78
g2
Ntp2171
Rp2172
(dp2173
g42
I00
sg48
I01
sg49
I00
sg50
F0.01
sbsg2131
g0
(g78
g2
Ntp2174
Rp2175
(dp2176
g42
I00
sg48
I01
sg49
I00
sg50
F0.01
sbsg2132
g0
(g78
g2
Ntp2177
Rp2178
(dp2179
g42
I00
sg48
I01
sg49
I00
sg50
F0.02
sbsg2133
g0
(g78
g2
Ntp2180
Rp2181
(dp2182
g42
I00
sg48
I01
sg49
I00
sg50
F0.02
sbsg2134
g0
(g78
g2
Ntp2183
Rp2184
(dp2185
g42
I00
sg48
I01
sg49
I00
sg50
F0.02
sbsg636
g0
(g44
g2
Ntp2186
Rp2187
(dp2188
g42
I00
sg48
I01
sg49
I00
sg50
g59
sbsg139
V/cvmfs/cms.cern.ch/el9_amd64_gcc12/cms/cmssw/CMSSW_14_1_0_pre2/src/CalibPPS/ESProducers/python/ctppsBeamParametersFromLHCInfoESSource_cfi.py
p2189
sg141
I2
sg142
g2112
sbsVctppsInterpolatedOpticalFunctionsESSource
p2190
g0
(g1542
g2
Ntp2191
Rp2192
(dp2193
g17
VCTPPSInterpolatedOpticalFunctionsESSource
p2194
sg19
(lp2195
g2118
ag2120
ag2119
aVopticsLabel
p2196
ag2121
ag636
asg42
I00
sg43
Nsg2118
g0
(g44
g2
Ntp2197
Rp2198
(dp2199
g42
I00
sg48
I01
sg49
I00
sg50
g59
sbsg49
I01
sg2120
g0
(g44
g2
Ntp2200
Rp2201
(dp2202
g42
I00
sg48
I01
sg49
I00
sg50
g59
sbsg2119
g0
(g44
g2
Ntp2203
Rp2204
(dp2205
g42
I00
sg48
I01
sg49
I00
sg50
g59
sbsg2196
g0
(g44
g2
Ntp2206
Rp2207
(dp2208
g42
I00
sg48
I01
sg49
I00
sg50
g59
sbsg2121
g0
(g120
g2
Ntp2209
Rp2210
(dp2211
g42
I00
sg48
I01
sg49
I01
sg50
I01
sbsg636
g0
(g44
g2
Ntp2212
Rp2213
(dp2214
g42
I00
sg48
I01
sg49
I00
sg50
g59
sbsg139
V/cvmfs/cms.cern.ch/el9_amd64_gcc12/cms/cmssw/CMSSW_14_1_0_pre2/src/CalibPPS/ESProducers/python/ctppsInterpolatedOpticalFunctionsESSource_cfi.py
p2215
sg141
I2
sg142
g2190
sbsVhcal_db_producer
p2216
g0
(g1542
g2
Ntp2217
Rp2218
(dp2219
g17
VHcalDbProducer
p2220
sg19
(lp2221
Vdump
p2222
aVfile
p2223
asg42
I00
sg43
Nsg2222
g0
(g92
g93
(lp2224
g59
atp2225
Rp2226
(dp2227
g42
I00
sg48
I00
sg49
I00
sg103
I1
sbsg49
I00
sg2223
g0
(g44
g2
Ntp2228
Rp2229
(dp2230
g42
I00
sg48
I00
sg49
I00
sg50
g59
sbsg139
g162
sg141
I55
sg142
g2216
sbsVmultipleScatteringParametrisationMakerESProducer
p2231
g0
(g1542
g2
Ntp2232
Rp2233
(dp2234
g17
VMultipleScatteringParametrisationMakerESProducer
p2235
sg19
(lp2236
g636
asg42
I00
sg43
Nsg636
g0
(g44
g2
Ntp2237
Rp2238
(dp2239
g42
I00
sg48
I01
sg49
I00
sg50
g59
sbsg49
I00
sg139
g162
sg141
I55
sg142
g2231
sbsVsiPixelQualityESProducer
p2240
g0
(g1542
g2
Ntp2241
Rp2242
(dp2243
g17
VSiPixelQualityESProducer
p2244
sg19
(lp2245
VsiPixelQualityFromDbLabel
p2246
aVListOfRecordToMerge
p2247
ag636
asg42
I00
sg43
Nsg2246
g0
(g44
g2
Ntp2248
Rp2249
(dp2250
g42
I00
sg48
I01
sg49
I00
sg50
g59
sbsg49
I00
sg2247
g0
(g604
g93
(lp2251
g0
(g223
g2
Ntp2252
Rp2253
(dp2254
g42
I00
sg48
I01
sg49
I00
sg19
(lp2255
Vrecord
p2256
aVtag
p2257
asg43
Nsg2256
g0
(g44
g2
Ntp2258
Rp2259
(dp2260
g42
I00
sg48
I01
sg49
I00
sg50
VSiPixelQualityFromDbRcd
p2261
sbsg2257
g0
(g44
g2
Ntp2262
Rp2263
(dp2264
g42
I00
sg48
I01
sg49
I00
sg50
g59
sbsbag0
(g223
g2
Ntp2265
Rp2266
(dp2267
g42
I00
sg48
I01
sg49
I00
sg19
(lp2268
g2256
ag2257
asg43
Nsg2256
g0
(g44
g2
Ntp2269
Rp2270
(dp2271
g42
I00
sg48
I01
sg49
I00
sg50
VSiPixelDetVOffRcd
p2272
sbsg2257
g0
(g44
g2
Ntp2273
Rp2274
(dp2275
g42
I00
sg48
I01
sg49
I00
sg50
g59
sbsbatp2276
Rp2277
(dp2278
g42
I00
sg48
I01
sg49
I00
sg103
I1
sbsg636
g0
(g44
g2
Ntp2279
Rp2280
(dp2281
g42
I00
sg48
I01
sg49
I00
sg50
g59
sbsg139
g162
sg141
I55
sg142
g2240
sbsVsiStripBackPlaneCorrectionDepESProducer
p2282
g0
(g1542
g2
Ntp2283
Rp2284
(dp2285
g17
VSiStripBackPlaneCorrectionDepESProducer
p2286
sg19
(lp2287
VLatencyRecord
p2288
aVBackPlaneCorrectionPeakMode
p2289
aVBackPlaneCorrectionDeconvMode
p2290
asg42
I00
sg43
Nsg2288
g0
(g223
g2
Ntp2291
Rp2292
(dp2293
g42
I00
sg48
I01
sg49
I00
sg19
(lp2294
g2256
ag1967
asg43
Nsg2256
g0
(g44
g2
Ntp2295
Rp2296
(dp2297
g42
I00
sg48
I01
sg49
I00
sg50
VSiStripLatencyRcd
p2298
sbsg1967
g0
(g44
g2
Ntp2299
Rp2300
(dp2301
g42
I00
sg48
I00
sg49
I00
sg50
g59
sbsbsg49
I00
sg2289
g0
(g223
g2
Ntp2302
Rp2303
(dp2304
g42
I00
sg48
I01
sg49
I00
sg19
(lp2305
g2256
ag1967
asg43
Nsg2256
g0
(g44
g2
Ntp2306
Rp2307
(dp2308
g42
I00
sg48
I01
sg49
I00
sg50
VSiStripBackPlaneCorrectionRcd
p2309
sbsg1967
g0
(g44
g2
Ntp2310
Rp2311
(dp2312
g42
I00
sg48
I00
sg49
I00
sg50
Vpeak
p2313
sbsbsg2290
g0
(g223
g2
Ntp2314
Rp2315
(dp2316
g42
I00
sg48
I01
sg49
I00
sg19
(lp2317
g2256
ag1967
asg43
Nsg2256
g0
(g44
g2
Ntp2318
Rp2319
(dp2320
g42
I00
sg48
I01
sg49
I00
sg50
g2309
sbsg1967
g0
(g44
g2
Ntp2321
Rp2322
(dp2323
g42
I00
sg48
I00
sg49
I00
sg50
Vdeconvolution
p2324
sbsbsg139
g162
sg141
I55
sg142
g2282
sbsVsiStripGainESProducer
p2325
g0
(g1542
g2
Ntp2326
Rp2327
(dp2328
g17
VSiStripGainESProducer
p2329
sg19
(lp2330
g636
aVprintDebug
p2331
aVAutomaticNormalization
p2332
aVAPVGain
p2333
asg42
I00
sg43
Nsg636
g0
(g44
g2
Ntp2334
Rp2335
(dp2336
g42
I00
sg48
I01
sg49
I00
sg50
g59
sbsg49
I00
sg2331
g0
(g120
g2
Ntp2337
Rp2338
(dp2339
g42
I00
sg48
I00
sg49
I00
sg50
I00
sbsg2332
g0
(g120
g2
Ntp2340
Rp2341
(dp2342
g42
I00
sg48
I01
sg49
I00
sg50
I00
sbsg2333
g0
(g604
g93
(lp2343
g0
(g223
g2
Ntp2344
Rp2345
(dp2346
g42
I00
sg48
I01
sg49
I00
sg19
(lp2347
VRecord
p2348
aVLabel
p2349
aVNormalizationFactor
p2350
asg43
Nsg2348
g0
(g44
g2
Ntp2351
Rp2352
(dp2353
g42
I00
sg48
I01
sg49
I00
sg50
VSiStripApvGainRcd
p2354
sbsg2349
g0
(g44
g2
Ntp2355
Rp2356
(dp2357
g42
I00
sg48
I00
sg49
I00
sg50
g59
sbsg2350
g0
(g78
g2
Ntp2358
Rp2359
(dp2360
g42
I00
sg48
I00
sg49
I00
sg50
F1.0
sbsbag0
(g223
g2
Ntp2361
Rp2362
(dp2363
g42
I00
sg48
I01
sg49
I00
sg19
(lp2364
g2348
ag2349
ag2350
asg43
Nsg2348
g0
(g44
g2
Ntp2365
Rp2366
(dp2367
g42
I00
sg48
I01
sg49
I00
sg50
VSiStripApvGain2Rcd
p2368
sbsg2349
g0
(g44
g2
Ntp2369
Rp2370
(dp2371
g42
I00
sg48
I00
sg49
I00
sg50
g59
sbsg2350
g0
(g78
g2
Ntp2372
Rp2373
(dp2374
g42
I00
sg48
I00
sg49
I00
sg50
F1.0
sbsbatp2375
Rp2376
(dp2377
g42
I00
sg48
I01
sg49
I00
sg103
I1
sbsg139
g162
sg141
I55
sg142
g2325
sbsVsiStripLorentzAngleDepESProducer
p2378
g0
(g1542
g2
Ntp2379
Rp2380
(dp2381
g17
VSiStripLorentzAngleDepESProducer
p2382
sg19
(lp2383
g2288
aVLorentzAnglePeakMode
p2384
aVLorentzAngleDeconvMode
p2385
asg42
I00
sg43
Nsg2288
g0
(g223
g2
Ntp2386
Rp2387
(dp2388
g42
I00
sg48
I01
sg49
I00
sg19
(lp2389
g2256
ag1967
asg43
Nsg2256
g0
(g44
g2
Ntp2390
Rp2391
(dp2392
g42
I00
sg48
I01
sg49
I00
sg50
g2298
sbsg1967
g0
(g44
g2
Ntp2393
Rp2394
(dp2395
g42
I00
sg48
I00
sg49
I00
sg50
g59
sbsbsg49
I00
sg2384
g0
(g223
g2
Ntp2396
Rp2397
(dp2398
g42
I00
sg48
I01
sg49
I00
sg19
(lp2399
g2256
ag1967
asg43
Nsg2256
g0
(g44
g2
Ntp2400
Rp2401
(dp2402
g42
I00
sg48
I01
sg49
I00
sg50
VSiStripLorentzAngleRcd
p2403
sbsg1967
g0
(g44
g2
Ntp2404
Rp2405
(dp2406
g42
I00
sg48
I00
sg49
I00
sg50
g2313
sbsbsg2385
g0
(g223
g2
Ntp2407
Rp2408
(dp2409
g42
I00
sg48
I01
sg49
I00
sg19
(lp2410
g2256
ag1967
asg43
Nsg2256
g0
(g44
g2
Ntp2411
Rp2412
(dp2413
g42
I00
sg48
I01
sg49
I00
sg50
g2403
sbsg1967
g0
(g44
g2
Ntp2414
Rp2415
(dp2416
g42
I00
sg48
I00
sg49
I00
sg50
g2324
sbsbsg139
g162
sg141
I55
sg142
g2378
sbsVsiStripQualityESProducer
p2417
g0
(g1542
g2
Ntp2418
Rp2419
(dp2420
g17
VSiStripQualityESProducer
p2421
sg19
(lp2422
g636
ag2247
aVReduceGranularity
p2423
aVThresholdForReducedGranularity
p2424
aVPrintDebugOutput
p2425
aVUseEmptyRunInfo
p2426
asg42
I00
sg43
Nsg636
g0
(g44
g2
Ntp2427
Rp2428
(dp2429
g42
I00
sg48
I01
sg49
I00
sg50
g59
sbsg49
I01
sg2247
g0
(g604
g93
(lp2430
g0
(g223
g2
Ntp2431
Rp2432
(dp2433
g42
I00
sg48
I01
sg49
I00
sg19
(lp2434
g2256
ag2257
asg43
Nsg2256
g0
(g44
g2
Ntp2435
Rp2436
(dp2437
g42
I00
sg48
I01
sg49
I00
sg50
VSiStripDetVOffRcd
p2438
sbsg2257
g0
(g44
g2
Ntp2439
Rp2440
(dp2441
g42
I00
sg48
I01
sg49
I00
sg50
g59
sbsbag0
(g223
g2
Ntp2442
Rp2443
(dp2444
g42
I00
sg48
I01
sg49
I00
sg19
(lp2445
g2256
ag2257
asg43
Nsg2256
g0
(g44
g2
Ntp2446
Rp2447
(dp2448
g42
I00
sg48
I01
sg49
I00
sg50
VSiStripDetCablingRcd
p2449
sbsg2257
g0
(g44
g2
Ntp2450
Rp2451
(dp2452
g42
I00
sg48
I01
sg49
I00
sg50
g59
sbsbag0
(g223
g2
Ntp2453
Rp2454
(dp2455
g42
I00
sg48
I01
sg49
I00
sg19
(lp2456
g2256
ag2257
asg43
Nsg2256
g0
(g44
g2
Ntp2457
Rp2458
(dp2459
g42
I00
sg48
I01
sg49
I00
sg50
VRunInfoRcd
p2460
sbsg2257
g0
(g44
g2
Ntp2461
Rp2462
(dp2463
g42
I00
sg48
I01
sg49
I00
sg50
g59
sbsbag0
(g223
g2
Ntp2464
Rp2465
(dp2466
g42
I00
sg48
I01
sg49
I00
sg19
(lp2467
g2256
ag2257
asg43
Nsg2256
g0
(g44
g2
Ntp2468
Rp2469
(dp2470
g42
I00
sg48
I01
sg49
I00
sg50
VSiStripBadChannelRcd
p2471
sbsg2257
g0
(g44
g2
Ntp2472
Rp2473
(dp2474
g42
I00
sg48
I01
sg49
I00
sg50
g59
sbsbag0
(g223
g2
Ntp2475
Rp2476
(dp2477
g42
I00
sg48
I01
sg49
I00
sg19
(lp2478
g2256
ag2257
asg43
Nsg2256
g0
(g44
g2
Ntp2479
Rp2480
(dp2481
g42
I00
sg48
I01
sg49
I00
sg50
VSiStripBadFiberRcd
p2482
sbsg2257
g0
(g44
g2
Ntp2483
Rp2484
(dp2485
g42
I00
sg48
I01
sg49
I00
sg50
g59
sbsbag0
(g223
g2
Ntp2486
Rp2487
(dp2488
g42
I00
sg48
I01
sg49
I00
sg19
(lp2489
g2256
ag2257
asg43
Nsg2256
g0
(g44
g2
Ntp2490
Rp2491
(dp2492
g42
I00
sg48
I01
sg49
I00
sg50
VSiStripBadModuleRcd
p2493
sbsg2257
g0
(g44
g2
Ntp2494
Rp2495
(dp2496
g42
I00
sg48
I01
sg49
I00
sg50
g59
sbsbag0
(g223
g2
Ntp2497
Rp2498
(dp2499
g42
I00
sg48
I01
sg49
I00
sg19
(lp2500
g2256
ag2257
asg43
Nsg2256
g0
(g44
g2
Ntp2501
Rp2502
(dp2503
g42
I00
sg48
I01
sg49
I00
sg50
VSiStripBadStripRcd
p2504
sbsg2257
g0
(g44
g2
Ntp2505
Rp2506
(dp2507
g42
I00
sg48
I01
sg49
I00
sg50
g59
sbsbatp2508
Rp2509
(dp2510
g42
I00
sg48
I01
sg49
I00
sg103
I1
sbsg2423
g0
(g120
g2
Ntp2511
Rp2512
(dp2513
g42
I00
sg48
I01
sg49
I00
sg50
I00
sbsg2424
g0
(g78
g2
Ntp2514
Rp2515
(dp2516
g42
I00
sg48
I01
sg49
I00
sg50
F0.3
sbsg2425
g0
(g120
g2
Ntp2517
Rp2518
(dp2519
g42
I00
sg48
I01
sg49
I00
sg50
I00
sbsg2426
g0
(g120
g2
Ntp2520
Rp2521
(dp2522
g42
I00
sg48
I01
sg49
I00
sg50
I00
sbsg139
g162
sg141
I55
sg142
g2417
sbsVsistripconn
p2523
g0
(g1542
g2
Ntp2524
Rp2525
(dp2526
g17
VSiStripConnectivity
p2527
sg19
(lp2528
sg42
I00
sg43
Nsg49
I00
sg139
g162
sg141
I55
sg142
g2523
sbsVstripCPEESProducer
p2529
g0
(g1542
g2
Ntp2530
Rp2531
(dp2532
g17
g2044
sg19
(lp2533
g2027
ag2046
ag2047
asg42
I00
sg43
Nsg2027
g0
(g44
g2
Ntp2534
Rp2535
(dp2536
g42
I00
sg48
I01
sg49
I00
sg50
VstripCPE
p2537
sbsg49
I00
sg2046
g0
(g44
g2
Ntp2538
Rp2539
(dp2540
g42
I00
sg48
I01
sg49
I00
sg50
VSimpleStripCPE
p2541
sbsg2047
g0
(g223
g2
Ntp2542
Rp2543
(dp2544
g42
I00
sg48
I01
sg49
I00
sg19
(lp2545
sg43
Nsbsg139
g162
sg141
I55
sg142
g2529
sbssV_Process__esprefers
p2546
(dp2547
Ves_prefer_hcalHardcode
p2548
g0
(cFWCore.ParameterSet.Modules
ESPrefer
p2549
g2
Ntp2550
Rp2551
(dp2552
g17
g805
sg19
(lp2553
sg42
I00
sg43
Nsg49
I00
sg139
g162
sg141
I91
sV_targetLabel
p2554
g801
sg142
g2548
sbssV_Process__aliases
p2555
(dp2556
sV_Process__psets
p2557
(dp2558
Voptions
p2559
g0
(g223
g2
Ntp2560
Rp2561
(dp2562
g42
I00
sg48
I00
sg49
I00
sg19
(lp2563
VnumberOfThreads
p2564
aVnumberOfStreams
p2565
aVnumberOfConcurrentRuns
p2566
aVnumberOfConcurrentLuminosityBlocks
p2567
aVeventSetup
p2568
aVaccelerators
p2569
aVwantSummary
p2570
aVfileMode
p2571
aVforceEventSetupCacheClearOnNewRun
p2572
aVthrowIfIllegalParameter
p2573
aVprintDependencies
p2574
aVdeleteNonConsumedUnscheduledModules
p2575
aVsizeOfStackForThreadsInKB
p2576
aVRethrow
p2577
aVTryToContinue
p2578
aVIgnoreCompletely
p2579
aVmodulesToCallForTryToContinue
p2580
aVcanDeleteEarly
p2581
aVholdsReferencesToDeleteEarly
p2582
aVmodulesToIgnoreForDeleteEarly
p2583
aVdumpOptions
p2584
aVallowUnscheduled
p2585
aVemptyRunLumiMode
p2586
aVmakeTriggerResults
p2587
asg43
Nsg2564
g0
(g2010
g2
Ntp2588
Rp2589
(dp2590
g42
I00
sg48
I00
sg49
I00
sg50
I1
sbsg2565
g0
(g2010
g2
Ntp2591
Rp2592
(dp2593
g42
I00
sg48
I00
sg49
I00
sg50
I0
sbsg2566
g0
(g2010
g2
Ntp2594
Rp2595
(dp2596
g42
I00
sg48
I00
sg49
I00
sg50
I1
sbsg2567
g0
(g2010
g2
Ntp2597
Rp2598
(dp2599
g42
I00
sg48
I00
sg49
I00
sg50
I0
sbsg2568
g0
(g223
g2
Ntp2600
Rp2601
(dp2602
g42
I00
sg48
I00
sg49
I00
sg19
(lp2603
VnumberOfConcurrentIOVs
p2604
aVforceNumberOfConcurrentIOVs
p2605
asg43
Nsg2604
g0
(g2010
g2
Ntp2606
Rp2607
(dp2608
g42
I00
sg48
I00
sg49
I00
sg50
I0
sbsg2605
g0
(g223
g2
Ntp2609
Rp2610
(dp2611
g42
I00
sg48
I00
sg49
I00
sg19
(lp2612
sg43
g0
(cFWCore.ParameterSet.Types
_RequiredParameter
p2613
g2
Ntp2614
Rp2615
(dp2616
g42
I00
sg48
I00
sg49
I00
sg137
g2010
sg138
Nsbsbsbsg2569
g0
(g92
g93
(lp2617
V*
p2618
atp2619
Rp2620
(dp2621
g42
I00
sg48
I00
sg49
I00
sg103
I1
sbsg2570
g0
(g120
g2
Ntp2622
Rp2623
(dp2624
g42
I00
sg48
I00
sg49
I00
sg50
I00
sbsg2571
g0
(g44
g2
Ntp2625
Rp2626
(dp2627
g42
I00
sg48
I00
sg49
I00
sg50
VFULLMERGE
p2628
sbsg2572
g0
(g120
g2
Ntp2629
Rp2630
(dp2631
g42
I00
sg48
I00
sg49
I00
sg50
I00
sbsg2573
g0
(g120
g2
Ntp2632
Rp2633
(dp2634
g42
I00
sg48
I00
sg49
I00
sg50
I01
sbsg2574
g0
(g120
g2
Ntp2635
Rp2636
(dp2637
g42
I00
sg48
I00
sg49
I00
sg50
I00
sbsg2575
g0
(g120
g2
Ntp2638
Rp2639
(dp2640
g42
I00
sg48
I00
sg49
I00
sg50
I01
sbsg2576
g0
(g133
g2
Ntp2641
Rp2642
(dp2643
g42
I00
sg48
I00
sg49
I00
sg137
g2010
sg138
Nsbsg2577
g0
(g92
g93
(lp2644
tp2645
Rp2646
(dp2647
g42
I00
sg48
I00
sg49
I00
sg103
I1
sbsg2578
g0
(g92
g93
(lp2648
tp2649
Rp2650
(dp2651
g42
I00
sg48
I00
sg49
I00
sg103
I1
sbsg2579
g0
(g92
g93
(lp2652
tp2653
Rp2654
(dp2655
g42
I00
sg48
I00
sg49
I00
sg103
I1
sbsg2580
g0
(g92
g93
(lp2656
tp2657
Rp2658
(dp2659
g42
I00
sg48
I00
sg49
I00
sg103
I1
sbsg2581
g0
(g92
g93
(lp2660
tp2661
Rp2662
(dp2663
g42
I00
sg48
I00
sg49
I00
sg103
I1
sbsg2582
g0
(g604
g93
(lp2664
tp2665
Rp2666
(dp2667
g42
I00
sg48
I00
sg49
I00
sg103
I1
sbsg2583
g0
(g92
g93
(lp2668
tp2669
Rp2670
(dp2671
g42
I00
sg48
I00
sg49
I00
sg103
I1
sbsg2584
g0
(g120
g2
Ntp2672
Rp2673
(dp2674
g42
I00
sg48
I00
sg49
I00
sg50
I00
sbsg2585
g0
(cFWCore.ParameterSet.Types
_ObsoleteParameter
p2675
g2
Ntp2676
Rp2677
(dp2678
g42
I00
sg48
I00
sg49
I00
sg137
g120
sg138
Nsbsg2586
g0
(g2675
g2
Ntp2679
Rp2680
(dp2681
g42
I00
sg48
I00
sg49
I00
sg137
g44
sg138
Nsbsg2587
g0
(g2675
g2
Ntp2682
Rp2683
(dp2684
g42
I00
sg48
I00
sg49
I00
sg137
g120
sg138
Nsbsg142
g2559
sbsVmaxLuminosityBlocks
p2685
g0
(g223
g2
Ntp2686
Rp2687
(dp2688
g42
I00
sg48
I00
sg49
I00
sg19
(lp2689
Vinput
p2690
asg43
Nsg2690
g0
(g310
g2
Ntp2691
Rp2692
(dp2693
g42
I00
sg48
I00
sg49
I00
sg50
I-1
sbsg142
g2685
sbsVCondDB
p2694
g0
(g223
g2
Ntp2695
Rp2696
(dp2697
g42
I00
sg48
I01
sg49
I00
sg19
(lp2698
g557
ag558
asg43
Nsg557
g0
(g223
g2
Ntp2699
Rp2700
(dp2701
g42
I00
sg48
I01
sg49
I00
sg19
(lp2702
g573
ag574
ag575
ag576
ag577
asg43
Nsg573
g0
(g44
g2
Ntp2703
Rp2704
(dp2705
g42
I00
sg48
I00
sg49
I00
sg50
g59
sbsg574
g0
(g310
g2
Ntp2706
Rp2707
(dp2708
g42
I00
sg48
I00
sg49
I00
sg50
I0
sbsg575
g0
(g44
g2
Ntp2709
Rp2710
(dp2711
g42
I00
sg48
I00
sg49
I00
sg50
g59
sbsg576
g0
(g310
g2
Ntp2712
Rp2713
(dp2714
g42
I00
sg48
I00
sg49
I00
sg50
I0
sbsg577
g0
(g310
g2
Ntp2715
Rp2716
(dp2717
g42
I00
sg48
I00
sg49
I00
sg50
I0
sbsbsg558
g0
(g44
g2
Ntp2718
Rp2719
(dp2720
g42
I00
sg48
I01
sg49
I00
sg50
g59
sbsg142
g2694
sbsg815
g867
sVmaxEvents
p2721
g0
(g223
g2
Ntp2722
Rp2723
(dp2724
g42
I00
sg48
I00
sg49
I01
sg19
(lp2725
g2690
ag494
asg43
Nsg2690
g0
(g133
g2
Ntp2726
Rp2727
(dp2728
g42
I00
sg48
I00
sg49
I00
sg137
g310
sg138
g0
(g310
g2
Ntp2729
Rp2730
(dp2731
g42
I00
sg48
I00
sg49
I00
sg50
I-1
sbsbsg494
g0
(g133
g2
Ntp2732
Rp2733
(dp2734
g42
I00
sg48
I00
sg49
I00
sg137
g0
(cFWCore.ParameterSet.Types
_AllowedParameterTypes
p2735
g2
Ntp2736
Rp2737
(dp2738
V_AllowedParameterTypes__types
p2739
(g310
g223
tp2740
sV_default
p2741
NsV__name__
p2742
Vallowed(cms.int32,cms.PSet)
p2743
sbsg138
Nsbsg142
g2721
sbsVNANOAODEventContent
p2744
g0
(g223
g2
Ntp2745
Rp2746
(dp2747
g42
I00
sg48
I01
sg49
I00
sg19
(lp2748
g205
aVcompressionLevel
p2749
aVcompressionAlgorithm
p2750
asg43
Nsg205
g221
sg2749
g0
(g310
g2
Ntp2751
Rp2752
(dp2753
g42
I00
sg48
I00
sg49
I00
sg50
I9
sbsg2750
g0
(g44
g2
Ntp2754
Rp2755
(dp2756
g42
I00
sg48
I00
sg49
I00
sg50
VLZMA
p2757
sbsg142
g2744
sbsVNANOAODGENEventContent
p2758
g0
(g223
g2
Ntp2759
Rp2760
(dp2761
g42
I00
sg48
I01
sg49
I00
sg19
(lp2762
g2749
ag2750
ag205
asg43
Nsg2749
g0
(g310
g2
Ntp2763
Rp2764
(dp2765
g42
I00
sg48
I00
sg49
I00
sg50
I9
sbsg2750
g0
(g44
g2
Ntp2766
Rp2767
(dp2768
g42
I00
sg48
I00
sg49
I00
sg50
g2757
sbsg205
g0
(g92
g93
(lp2769
g212
ag213
ag215
ag216
ag217
atp2770
Rp2771
(dp2772
g42
I00
sg48
I00
sg49
I00
sg103
I1
sbsg142
g2758
sbsVNANOAODSIMEventContent
p2773
g0
(g223
g2
Ntp2774
Rp2775
(dp2776
g42
I00
sg48
I01
sg49
I00
sg19
(lp2777
g205
ag2749
ag2750
asg43
Nsg205
g0
(g92
g93
(lp2778
g212
ag213
ag214
ag215
ag216
ag217
atp2779
Rp2780
(dp2781
g42
I00
sg48
I00
sg49
I00
sg103
I1
sbsg2749
g0
(g310
g2
Ntp2782
Rp2783
(dp2784
g42
I00
sg48
I00
sg49
I00
sg50
I9
sbsg2750
g0
(g44
g2
Ntp2785
Rp2786
(dp2787
g42
I00
sg48
I00
sg49
I00
sg50
g2757
sbsg142
g2773
sbsVNanoAODEDMEventContent
p2788
g0
(g223
g2
Ntp2789
Rp2790
(dp2791
g42
I00
sg48
I01
sg49
I00
sg19
(lp2792
g205
asg43
Nsg205
g0
(g92
g93
(lp2793
g212
ag213
ag214
ag215
ag216
ag217
atp2794
Rp2795
(dp2796
g42
I00
sg48
I00
sg49
I00
sg103
I1
sbsg142
g2788
sbssV_Process__vpsets
p2797
(dp2798
sV_cloneToObjectDict
p2799
(dp2800
L140166706673120L
g2561
sL140166707288624L
g0
(g223
g2
Ntp2801
Rp2802
(dp2803
g42
I00
sg48
I00
sg49
I00
sg19
(lp2804
g2690
ag494
asg43
Nsg2690
g0
(g133
g2
Ntp2805
Rp2806
(dp2807
g42
I00
sg48
I00
sg49
I00
sg137
g310
sg138
Nsbsg494
g0
(g133
g2
Ntp2808
Rp2809
(dp2810
g42
I00
sg48
I00
sg49
I00
sg137
g0
(g2735
g2
Ntp2811
Rp2812
(dp2813
g2739
(g310
g223
tp2814
sg2741
Nsg2742
Vallowed(cms.int32,cms.PSet)
p2815
sbsg138
Nsbsg142
NsbsL140166707287040L
g2687
sL140166706949328L
g1544
sL140166706670896L
g1588
sL140166707157456L
g1604
sL140166706397968L
g1609
sL140166706398496L
g1617
sL140166706400896L
g1622
sL140166708557088L
g1630
sL140166706669504L
g1667
sL140166706671184L
g1675
sL140166706670080L
g1680
sL140166706669792L
g1688
sL140166707032016L
g1696
sL140166708558960L
g1706
sL140166706669120L
g1711
sL140166706670512L
g1716
sL140166706683520L
g1724
sL140166706947264L
g1729
sL140166706950000L
g1740
sL140166706399168L
g1749
sL140166706399552L
g531
sL140166717554544L
g1757
sL140166717553632L
g1768
sL140166717552576L
g1777
sL140166706398928L
g1786
sL140166706400272L
g1803
sL140166717552432L
g1840
sL140166706399504L
g1870
sL140166706667728L
g1889
sL140166708557328L
g1901
sL140166708556512L
g1918
sL140166707289440L
g1933
sL140166715420480L
g1942
sL140166707490720L
g1962
sL140166707486928L
g1982
sL140166704280624L
g1998
sL140166706854208L
g2696
sL140166707490240L
g2006
sL140166708439072L
g2016
sL140166706936848L
g553
sL140166704279760L
g867
sL140166706678032L
g633
sL140166703886000L
g2024
sL140166703885136L
g2042
sL140166703942096L
g2114
sL140166703942864L
g2192
sL140166704336608L
g803
sL140166704336704L
g2551
sL140166707490096L
g2218
sL140166703940608L
g2233
sL140166703920752L
g2242
sL140166703922816L
g0
(g1542
g2
Ntp2816
Rp2817
(dp2818
g17
g2244
sg19
(lp2819
g2246
ag2247
ag636
asg42
I00
sg43
Nsg2246
g0
(g44
g2
Ntp2820
Rp2821
(dp2822
g42
I00
sg48
I01
sg49
I01
sg50
VforRawToDigi
p2823
sbsg49
I00
sg2247
g0
(g604
g93
(lp2824
g0
(g223
g2
Ntp2825
Rp2826
(dp2827
g42
I00
sg48
I01
sg49
I00
sg19
(lp2828
g2256
ag2257
asg43
Nsg2256
g0
(g44
g2
Ntp2829
Rp2830
(dp2831
g42
I00
sg48
I01
sg49
I00
sg50
g2261
sbsg2257
g0
(g44
g2
Ntp2832
Rp2833
(dp2834
g42
I00
sg48
I01
sg49
I00
sg50
g59
sbsbag0
(g223
g2
Ntp2835
Rp2836
(dp2837
g42
I00
sg48
I01
sg49
I00
sg19
(lp2838
g2256
ag2257
asg43
Nsg2256
g0
(g44
g2
Ntp2839
Rp2840
(dp2841
g42
I00
sg48
I01
sg49
I00
sg50
g2272
sbsg2257
g0
(g44
g2
Ntp2842
Rp2843
(dp2844
g42
I00
sg48
I01
sg49
I00
sg50
g59
sbsbatp2845
Rp2846
(dp2847
g42
I00
sg48
I01
sg49
I00
sg103
I1
sbsg636
g0
(g44
g2
Ntp2848
Rp2849
(dp2850
g42
I00
sg48
I01
sg49
I01
sg50
g2823
sbsg139
V/cvmfs/cms.cern.ch/el9_amd64_gcc12/cms/cmssw/CMSSW_14_1_0_pre2/src/CalibTracker/SiPixelESProducers/python/siPixelQualityForRawToDigiESProducer_cfi.py
p2851
sg141
I5
sg142
NsbsL140166703882592L
g2284
sL140166704261776L
g2327
sL140166704262544L
g2380
sL140166703921232L
g2419
sL140166704280672L
g2525
sL140166703884080L
g2531
sL140166703983728L
g15
sL140166703983920L
g2723
sL140166719730208L
g171
sL140166704046384L
g2746
sL140166704047680L
g2760
sL140166704046288L
g2775
sL140166704046528L
g2790
sL140166703984544L
g200
sL140166703984592L
g192
ssV_Process__InExtendCall
p2852
I00
sV_Process__partialschedules
p2853
(dp2854
sV_Process__isStrict
p2855
I00
sV_Process__modifiers
p2856
(g0
(cFWCore.ParameterSet.Config
ModifierChain
p2857
g2
Ntp2858
Rp2859
(dp2860
V_ModifierChain__chosen
p2861
I01
sV_ModifierChain__chain
p2862
(g0
(g2857
g2
Ntp2863
Rp2864
(dp2865
g2861
I01
sg2862
(g0
(g2857
g2
Ntp2866
Rp2867
(dp2868
g2861
I01
sg2862
(g0
(g2857
g2
Ntp2869
Rp2870
(dp2871
g2861
I01
sg2862
(g0
(cFWCore.ParameterSet.Config
Modifier
p2872
g2
Ntp2873
Rp2874
(dp2875
V_Modifier__processModifiers
p2876
(lp2877
sV_Modifier__chosen
p2878
I01
sbg0
(g2872
g2
Ntp2879
Rp2880
(dp2881
g2876
(lp2882
sg2878
I01
sbg0
(g2872
g2
Ntp2883
Rp2884
(dp2885
g2876
(lp2886
sg2878
I01
sbg0
(g2872
g2
Ntp2887
Rp2888
(dp2889
g2876
(lp2890
sg2878
I01
sbg0
(g2872
g2
Ntp2891
Rp2892
(dp2893
g2876
(lp2894
sg2878
I01
sbtp2895
sbg0
(g2872
g2
Ntp2896
Rp2897
(dp2898
g2876
(lp2899
sg2878
I01
sbg0
(g2872
g2
Ntp2900
Rp2901
(dp2902
g2876
(lp2903
sg2878
I01
sbg0
(g2872
g2
Ntp2904
Rp2905
(dp2906
g2876
(lp2907
sg2878
I01
sbg0
(g2872
g2
Ntp2908
Rp2909
(dp2910
g2876
(lp2911
sg2878
I01
sbg0
(g2872
g2
Ntp2912
Rp2913
(dp2914
g2876
(lp2915
sg2878
I01
sbg0
(g2872
g2
Ntp2916
Rp2917
(dp2918
g2876
(lp2919
sg2878
I01
sbg0
(g2872
g2
Ntp2920
Rp2921
(dp2922
g2876
(lp2923
sg2878
I01
sbg0
(g2857
g2
Ntp2924
Rp2925
(dp2926
g2861
I01
sg2862
(g0
(g2872
g2
Ntp2927
Rp2928
(dp2929
g2876
(lp2930
sg2878
I01
sbg0
(g2872
g2
Ntp2931
Rp2932
(dp2933
g2876
(lp2934
sg2878
I01
sbg0
(g2872
g2
Ntp2935
Rp2936
(dp2937
g2876
(lp2938
sg2878
I01
sbg0
(g2872
g2
Ntp2939
Rp2940
(dp2941
g2876
(lp2942
sg2878
I01
sbg0
(g2872
g2
Ntp2943
Rp2944
(dp2945
g2876
(lp2946
sg2878
I01
sbg0
(g2872
g2
Ntp2947
Rp2948
(dp2949
g2876
(lp2950
sg2878
I01
sbtp2951
sbg0
(g2872
g2
Ntp2952
Rp2953
(dp2954
g2876
(lp2955
sg2878
I01
sbg0
(g2872
g2
Ntp2956
Rp2957
(dp2958
g2876
(lp2959
sg2878
I01
sbg0
(g2872
g2
Ntp2960
Rp2961
(dp2962
g2876
(lp2963
sg2878
I01
sbg0
(g2872
g2
Ntp2964
Rp2965
(dp2966
g2876
(lp2967
sg2878
I01
sbtp2968
sbg0
(g2872
g2
Ntp2969
Rp2970
(dp2971
g2876
(lp2972
sg2878
I01
sbg0
(g2872
g2
Ntp2973
Rp2974
(dp2975
g2876
(lp2976
sg2878
I01
sbg0
(g2872
g2
Ntp2977
Rp2978
(dp2979
g2876
(lp2980
sg2878
I01
sbg0
(g2872
g2
Ntp2981
Rp2982
(dp2983
g2876
(lp2984
sg2878
I01
sbg0
(g2872
g2
Ntp2985
Rp2986
(dp2987
g2876
(lp2988
sg2878
I01
sbg0
(g2872
g2
Ntp2989
Rp2990
(dp2991
g2876
(lp2992
sg2878
I01
sbg0
(g2872
g2
Ntp2993
Rp2994
(dp2995
g2876
(lp2996
sg2878
I01
sbg0
(g2872
g2
Ntp2997
Rp2998
(dp2999
g2876
(lp3000
sg2878
I01
sbg0
(g2872
g2
Ntp3001
Rp3002
(dp3003
g2876
(lp3004
sg2878
I01
sbtp3005
sbg0
(g2872
g2
Ntp3006
Rp3007
(dp3008
g2876
(lp3009
sg2878
I01
sbg0
(g2872
g2
Ntp3010
Rp3011
(dp3012
g2876
(lp3013
sg2878
I01
sbg0
(g2872
g2
Ntp3014
Rp3015
(dp3016
g2876
(lp3017
sg2878
I01
sbg0
(g2872
g2
Ntp3018
Rp3019
(dp3020
g2876
(lp3021
sg2878
I01
sbg0
(g2872
g2
Ntp3022
Rp3023
(dp3024
g2876
(lp3025
sg2878
I01
sbg0
(g2872
g2
Ntp3026
Rp3027
(dp3028
g2876
(lp3029
sg2878
I01
sbg0
(g2872
g2
Ntp3030
Rp3031
(dp3032
g2876
(lp3033
sg2878
I01
sbg0
(g2872
g2
Ntp3034
Rp3035
(dp3036
g2876
(lp3037
sg2878
I01
sbg0
(g2872
g2
Ntp3038
Rp3039
(dp3040
g2876
(lp3041
sg2878
I01
sbg0
(g2872
g2
Ntp3042
Rp3043
(dp3044
g2876
(lp3045
sg2878
I01
sbg0
(g2872
g2
Ntp3046
Rp3047
(dp3048
g2876
(lp3049
sg2878
I01
sbtp3050
sbtp3051
sV_Process__accelerators
p3052
(dp3053
sg2559
g2561
sg2685
g2687
sg280
g283
sg1541
g1544
sg1586
g1588
sg1602
g1604
sg1607
g1609
sg1615
g1617
sg1620
g1622
sg1628
g1630
sg1665
g1667
sg1673
g1675
sg1678
g1680
sg1686
g1688
sg1694
g1696
sg1704
g1706
sg1709
g1711
sg1714
g1716
sg1722
g1724
sg1727
g1729
sg1738
g1740
sg1747
g1749
sg528
g531
sg1755
g1757
sg1766
g1768
sg1775
g1777
sg1784
g1786
sg1801
g1803
sg1838
g1840
sg1868
g1870
sg1887
g1889
sg1899
g1901
sg1916
g1918
sg1931
g1933
sg1940
g1942
sg1960
g1962
sg1980
g1982
sg1996
g1998
sg2694
g2696
sg2004
g2006
sg2014
g2016
sg551
g553
sg815
g867
sg631
g633
sg2022
g2024
sg2040
g2042
sg2112
g2114
sg2190
g2192
sg801
g803
sg2548
g2551
sg2216
g2218
sg2231
g2233
sg2240
g2242
sg2282
g2284
sg2325
g2327
sg2378
g2380
sg2417
g2419
sg2523
g2525
sg2529
g2531
sg12
g15
sg2721
g2723
sVsource
p3054
g148
sg150
g148
sg189
g171
sg2744
g2746
sg2758
g2760
sg2773
g2775
sg2788
g2790
sg233
g200
sg185
g192
sVschedule
p3055
g240
sb.