ccopy_reg
_reconstructor
p0
(cFWCore.ParameterSet.Config
Process
p1
c__builtin__
object
p2
Ntp3
Rp4
(dp5
V_Process__name
p6
VRPCTnP
p7
sV_Process__filters
p8
(dp9
sV_Process__producers
p10
(dp11
VmuRPCTnPFlatTableProducer
p12
g0
(cFWCore.ParameterSet.Modules
EDProducer
p13
g2
Ntp14
Rp15
(dp16
V_TypedParameterizable__type
p17
VMuRPCTnPFlatTableProducer
p18
sV_Parameterizable__parameterNames
p19
(lp20
Vname
p21
aVprimaryVertexCollectionTag
p22
aVtriggerResultsTag
p23
aVtriggerEventTag
p24
aVmuonCollectionTag
p25
aVrpcRecHitCollectionTag
p26
aVtagMuonMinPt
p27
aVtagMuonMaxAbsEta
p28
aVtagMuonIdType
p29
aVtagMuonMaxRelIso
p30
aVtagMuonTriggerMatchingPaths
p31
aVtagMuonTriggerMatchingMaxDeltaR
p32
aVtagMuonTriggerMatchingMaxDeltaPtRel
p33
aVprobeMuonMinPt
p34
aVprobeMuonMaxAbsEta
p35
aVprobeMuonIdType
p36
aVdimuonCheckOppositeSign
p37
aVdimuonMinDeltaR
p38
aVdimuonMinMass
p39
aVdimuonMaxMass
p40
aVmightGet
p41
asV_isFrozen
p42
I00
sV_Parameterizable__validator
p43
Nsg21
g0
(cFWCore.ParameterSet.Types
string
p44
g2
Ntp45
Rp46
(dp47
g42
I00
sV_ParameterTypeBase__isTracked
p48
I01
sV_isModified
p49
I00
sV_value
p50
VrpcTnP
p51
sbsg49
I01
sg22
g0
(cFWCore.ParameterSet.Types
InputTag
p52
g2
Ntp53
Rp54
(dp55
g42
I00
sg48
I01
sg49
I00
sV_InputTag__moduleLabel
p56
VofflinePrimaryVertices
p57
sV_InputTag__productInstance
p58
V
p59
sV_InputTag__processName
p60
g59
sbsg23
g0
(g52
g2
Ntp61
Rp62
(dp63
g42
I00
sg48
I01
sg49
I00
sg56
VTriggerResults
p64
sg58
g59
sg60
VHLT
p65
sbsg24
g0
(g52
g2
Ntp66
Rp67
(dp68
g42
I00
sg48
I01
sg49
I00
sg56
VhltTriggerSummaryAOD
p69
sg58
g59
sg60
g65
sbsg25
g0
(g52
g2
Ntp70
Rp71
(dp72
g42
I00
sg48
I01
sg49
I00
sg56
Vmuons
p73
sg58
g59
sg60
g59
sbsg26
g0
(g52
g2
Ntp74
Rp75
(dp76
g42
I00
sg48
I01
sg49
I00
sg56
VrpcRecHits
p77
sg58
g59
sg60
g59
sbsg27
g0
(cFWCore.ParameterSet.Types
double
p78
g2
Ntp79
Rp80
(dp81
g42
I00
sg48
I01
sg49
I00
sg50
I30
sbsg28
g0
(g78
g2
Ntp82
Rp83
(dp84
g42
I00
sg48
I01
sg49
I00
sg50
F2.4
sbsg29
g0
(g44
g2
Ntp85
Rp86
(dp87
g42
I00
sg48
I01
sg49
I00
sg50
Vtight
p88
sbsg30
g0
(g78
g2
Ntp89
Rp90
(dp91
g42
I00
sg48
I01
sg49
I00
sg50
F0.25
sbsg31
g0
(cFWCore.ParameterSet.Types
vstring
p92
c__builtin__
list
p93
(lp94
VHLT_IsoMu24
p95
aVHLT_IsoMu27
p96
aVHLT_IsoMu30
p97
aVHLT_Mu50
p98
aVHLT_Mu55
p99
atp100
Rp101
(dp102
g42
I00
sg48
I01
sg49
I01
sV_nPerLine
p103
I1
sbsg32
g0
(g78
g2
Ntp104
Rp105
(dp106
g42
I00
sg48
I01
sg49
I00
sg50
F0.1
sbsg33
g0
(g78
g2
Ntp107
Rp108
(dp109
g42
I00
sg48
I01
sg49
I00
sg50
F0.5
sbsg34
g0
(g78
g2
Ntp110
Rp111
(dp112
g42
I00
sg48
I01
sg49
I00
sg50
I10
sbsg35
g0
(g78
g2
Ntp113
Rp114
(dp115
g42
I00
sg48
I01
sg49
I00
sg50
F2.1
sbsg36
g0
(g44
g2
Ntp116
Rp117
(dp118
g42
I00
sg48
I01
sg49
I00
sg50
Vtracker
p119
sbsg37
g0
(cFWCore.ParameterSet.Types
bool
p120
g2
Ntp121
Rp122
(dp123
g42
I00
sg48
I01
sg49
I00
sg50
I01
sbsg38
g0
(g78
g2
Ntp124
Rp125
(dp126
g42
I00
sg48
I01
sg49
I00
sg50
F0.1
sbsg39
g0
(g78
g2
Ntp127
Rp128
(dp129
g42
I00
sg48
I01
sg49
I00
sg50
I70
sbsg40
g0
(g78
g2
Ntp130
Rp131
(dp132
g42
I00
sg48
I01
sg49
I00
sg50
I110
sbsg41
g0
(cFWCore.ParameterSet.Types
_OptionalParameter
p133
g2
Ntp134
Rp135
(dp136
g42
I00
sg48
I00
sg49
I00
sV_ProxyParameter__type
p137
g92
sV_ProxyParameter__value
p138
NsbsV_filename
p139
V/afs/cern.ch/user/j/joshin/public/Efficiency/CMSSW_13_3_0_pre2/cfipython/el9_amd64_gcc11/DPGAnalysis/MuonTools/muRPCTnPFlatTableProducer_cfi.py
p140
sV_lineNumber
p141
I3
sV_Labelable__label
p142
g12
sbssV_Process__switchproducers
p143
(dp144
sV_Process__source
p145
g0
(cFWCore.ParameterSet.Modules
Source
p146
g2
Ntp147
Rp148
(dp149
g17
VPoolSource
p150
sg19
(lp151
VfileNames
p152
aVsecondaryFileNames
p153
asg42
I00
sg43
Nsg152
g0
(g92
g93
(lp154
tp155
Rp156
(dp157
g42
I00
sg48
I00
sg49
I00
sg103
I1
sbsg49
I00
sg153
g0
(g92
g93
(lp158
tp159
Rp160
(dp161
g42
I00
sg48
I00
sg49
I00
sg103
I1
sbsg139
V/cvmfs/cms.cern.ch/el9_amd64_gcc11/cms/cmssw/CMSSW_13_3_0_pre2/src/FWCore/ParameterSet/python/Modules.py
p162
sg141
I195
sbsV_Process__looper
p163
NsV_Process__subProcesses
p164
(lp165
sV_Process__schedule
p166
g0
(cFWCore.ParameterSet.SequenceTypes
Schedule
p167
g93
(lp168
g0
(cFWCore.ParameterSet.SequenceTypes
Path
p169
g2
Ntp170
Rp171
(dp172
g42
I00
sV_seq
p173
g0
(cFWCore.ParameterSet.SequenceTypes
_SequenceCollection
p174
g2
Ntp175
Rp176
(dp177
V_collection
p178
(lp179
g15
asbsg49
I00
sV_tasks
p180
g0
(cFWCore.ParameterSet.OrderedSet
OrderedSet
p181
g2
Ntp182
Rp183
(dp184
Vend
p185
(lp186
Nag186
ag186
asVmap
p187
(dp188
sbsg142
VrpcTnPPath
p189
sbag0
(cFWCore.ParameterSet.SequenceTypes
EndPath
p190
g2
Ntp191
Rp192
(dp193
g42
I00
sg173
g0
(g174
g2
Ntp194
Rp195
(dp196
g178
(lp197
g0
(cFWCore.ParameterSet.Modules
OutputModule
p198
g2
Ntp199
Rp200
(dp201
g17
VNanoAODOutputModule
p202
sg19
(lp203
VfileName
p204
aVoutputCommands
p205
aVSelectEvents
p206
asg42
I00
sg43
Nsg204
g0
(g44
g2
Ntp207
Rp208
(dp209
g42
I00
sg48
I00
sg49
I00
sg50
Voutput.root
p210
sbsg49
I00
sg205
g0
(g92
g93
(lp211
Vdrop *
p212
aVkeep nanoaodFlatTable_*Table_*_*
p213
aVkeep edmTriggerResults_*_*_*
p214
aVkeep String_*_genModel_*
p215
aVkeep nanoaodMergeableCounterTable_*Table_*_*
p216
aVkeep nanoaodUniqueString_nanoMetadata_*_*
p217
aVkeep nanoaodFlatTable_*_*_*
p218
aVdrop edmTriggerResults_*_*_*
p219
atp220
Rp221
(dp222
g42
I00
sg48
I00
sg49
I00
sg103
I1
sbsg206
g0
(cFWCore.ParameterSet.Types
PSet
p223
g2
Ntp224
Rp225
(dp226
g42
I00
sg48
I00
sg49
I00
sg19
(lp227
g206
asg43
Nsg206
g0
(g92
g93
(lp228
g189
atp229
Rp230
(dp231
g42
I00
sg48
I01
sg49
I00
sg103
I1
sbsbsg139
V/afs/cern.ch/user/j/joshin/public/Efficiency/CMSSW_13_3_0_pre2/src/RPCDPGAnalysis/NanoAODTnP/test/muRPCTnPFlatTableProducer_cfg.py
p232
sg141
I43
sg142
Vout
p233
sbasbsg49
I00
sg180
g0
(g181
g2
Ntp234
Rp235
(dp236
g185
(lp237
Nag237
ag237
asg187
(dp238
sbsg142
g185
sbatp239
Rp240
(dp241
g42
I00
sg48
I01
sg49
I00
sg180
g0
(g181
g2
Ntp242
Rp243
(dp244
g185
(lp245
Nag245
ag245
asg187
(dp246
sbsbsV_Process__analyzers
p247
(dp248
sV_Process__outputmodules
p249
(dp250
g233
g200
ssV_Process__paths
p251
g0
(cFWCore.ParameterSet.DictTypes
SortedKeysDict
p252
c__builtin__
dict
p253
(dp254
g189
g171
stp255
Rp256
(dp257
Vlist
p258
(lp259
g189
asbsV_Process__endpaths
p260
g0
(g252
g253
(dp261
g185
g192
stp262
Rp263
(dp264
g258
(lp265
g185
asbsV_Process__finalpaths
p266
g0
(g252
g253
(dp267
tp268
Rp269
(dp270
g258
(lp271
sbsV_Process__sequences
p272
(dp273
sV_Process__tasks
p274
(dp275
sV_Process__conditionaltasks
p276
(dp277
sV_Process__services
p278
(dp279
VMessageLogger
p280
g0
(cFWCore.ParameterSet.Modules
Service
p281
g2
Ntp282
Rp283
(dp284
g17
g280
sg19
(lp285
VsuppressWarning
p286
aVsuppressFwkInfo
p287
aVsuppressInfo
p288
aVsuppressDebug
p289
aVdebugModules
p290
aVcout
p291
aVdefault
p292
aVcerr
p293
aVfiles
p294
asg42
I00
sg43
g0
(g133
g2
Ntp295
Rp296
(dp297
g42
I00
sg48
I00
sg49
I00
sg137
g0
(cFWCore.ParameterSet.Types
_PSetTemplate
p298
g2
Ntp299
Rp300
(dp301
V_pset
p302
g0
(g223
g2
Ntp303
Rp304
(dp305
g42
I00
sg48
I01
sg49
I00
sg19
(lp306
VreportEvery
p307
aVlimit
p308
aVtimespan
p309
asg43
Nsg307
g0
(cFWCore.ParameterSet.Types
int32
p310
g2
Ntp311
Rp312
(dp313
g42
I00
sg48
I00
sg49
I00
sg50
I1
sbsg308
g0
(g133
g2
Ntp314
Rp315
(dp316
g42
I00
sg48
I00
sg49
I00
sg137
g310
sg138
Nsbsg309
g0
(g133
g2
Ntp317
Rp318
(dp319
g42
I00
sg48
I00
sg49
I00
sg137
g310
sg138
NsbsbsV_PSetTemplate__value
p320
Nsbsg138
Nsbsg286
g0
(g92
g93
(lp321
tp322
Rp323
(dp324
g42
I00
sg48
I00
sg49
I00
sg103
I1
sbsg49
I00
sg287
g0
(g92
g93
(lp325
tp326
Rp327
(dp328
g42
I00
sg48
I00
sg49
I00
sg103
I1
sbsg288
g0
(g92
g93
(lp329
tp330
Rp331
(dp332
g42
I00
sg48
I00
sg49
I00
sg103
I1
sbsg289
g0
(g92
g93
(lp333
tp334
Rp335
(dp336
g42
I00
sg48
I00
sg49
I00
sg103
I1
sbsg290
g0
(g92
g93
(lp337
tp338
Rp339
(dp340
g42
I00
sg48
I00
sg49
I00
sg103
I1
sbsg291
g0
(g223
g2
Ntp341
Rp342
(dp343
g42
I00
sg48
I00
sg49
I00
sg19
(lp344
VnoLineBreaks
p345
aVnoTimeStamps
p346
aVlineLength
p347
aVthreshold
p348
aVstatisticsThreshold
p349
aVenableStatistics
p350
aVresetStatistics
p351
aVenable
p352
asg43
g296
sg345
g0
(g133
g2
Ntp353
Rp354
(dp355
g42
I00
sg48
I00
sg49
I00
sg137
g120
sg138
Nsbsg346
g0
(g133
g2
Ntp356
Rp357
(dp358
g42
I00
sg48
I00
sg49
I00
sg137
g120
sg138
Nsbsg347
g0
(g133
g2
Ntp359
Rp360
(dp361
g42
I00
sg48
I00
sg49
I00
sg137
g310
sg138
Nsbsg348
g0
(g133
g2
Ntp362
Rp363
(dp364
g42
I00
sg48
I00
sg49
I00
sg137
g44
sg138
Nsbsg349
g0
(g133
g2
Ntp365
Rp366
(dp367
g42
I00
sg48
I00
sg49
I00
sg137
g44
sg138
Nsbsg350
g0
(g120
g2
Ntp368
Rp369
(dp370
g42
I00
sg48
I00
sg49
I00
sg50
I00
sbsg351
g0
(g120
g2
Ntp371
Rp372
(dp373
g42
I00
sg48
I00
sg49
I00
sg50
I00
sbsg352
g0
(g120
g2
Ntp374
Rp375
(dp376
g42
I00
sg48
I00
sg49
I00
sg50
I00
sbsbsg292
g0
(g223
g2
Ntp377
Rp378
(dp379
g42
I00
sg48
I00
sg49
I00
sg19
(lp380
g307
ag308
ag309
ag345
ag346
ag347
ag348
ag349
asg43
g296
sg307
g0
(g310
g2
Ntp381
Rp382
(dp383
g42
I00
sg48
I00
sg49
I00
sg50
I1
sbsg308
g0
(g133
g2
Ntp384
Rp385
(dp386
g42
I00
sg48
I00
sg49
I00
sg137
g310
sg138
Nsbsg309
g0
(g133
g2
Ntp387
Rp388
(dp389
g42
I00
sg48
I00
sg49
I00
sg137
g310
sg138
Nsbsg345
g0
(g120
g2
Ntp390
Rp391
(dp392
g42
I00
sg48
I00
sg49
I00
sg50
I00
sbsg346
g0
(g120
g2
Ntp393
Rp394
(dp395
g42
I00
sg48
I00
sg49
I00
sg50
I00
sbsg347
g0
(g310
g2
Ntp396
Rp397
(dp398
g42
I00
sg48
I00
sg49
I00
sg50
I80
sbsg348
g0
(g44
g2
Ntp399
Rp400
(dp401
g42
I00
sg48
I00
sg49
I00
sg50
VINFO
p402
sbsg349
g0
(g44
g2
Ntp403
Rp404
(dp405
g42
I00
sg48
I00
sg49
I00
sg50
g402
sbsbsg293
g0
(g223
g2
Ntp406
Rp407
(dp408
g42
I00
sg48
I00
sg49
I00
sg19
(lp409
g345
ag346
ag347
ag348
ag349
ag352
ag350
ag351
ag402
aVFwkReport
p410
ag292
aVRoot_NoDictionary
p411
aVFwkSummary
p412
asg43
g296
sg345
g0
(g133
g2
Ntp413
Rp414
(dp415
g42
I00
sg48
I00
sg49
I00
sg137
g120
sg138
Nsbsg346
g0
(g120
g2
Ntp416
Rp417
(dp418
g42
I00
sg48
I00
sg49
I00
sg50
I00
sbsg347
g0
(g133
g2
Ntp419
Rp420
(dp421
g42
I00
sg48
I00
sg49
I00
sg137
g310
sg138
Nsbsg348
g0
(g44
g2
Ntp422
Rp423
(dp424
g42
I00
sg48
I00
sg49
I00
sg50
g402
sbsg349
g0
(g44
g2
Ntp425
Rp426
(dp427
g42
I00
sg48
I00
sg49
I00
sg50
VWARNING
p428
sbsg352
g0
(g120
g2
Ntp429
Rp430
(dp431
g42
I00
sg48
I00
sg49
I00
sg50
I01
sbsg350
g0
(g120
g2
Ntp432
Rp433
(dp434
g42
I00
sg48
I00
sg49
I00
sg50
I00
sbsg351
g0
(g120
g2
Ntp435
Rp436
(dp437
g42
I00
sg48
I00
sg49
I00
sg50
I00
sbsg402
g0
(g223
g2
Ntp438
Rp439
(dp440
g42
I00
sg48
I00
sg49
I00
sg19
(lp441
g308
asg43
Nsg308
g0
(g310
g2
Ntp442
Rp443
(dp444
g42
I00
sg48
I00
sg49
I00
sg50
I0
sbsbsg410
g0
(g223
g2
Ntp445
Rp446
(dp447
g42
I00
sg48
I00
sg49
I00
sg19
(lp448
g307
ag308
asg43
Nsg307
g0
(g310
g2
Ntp449
Rp450
(dp451
g42
I00
sg48
I00
sg49
I00
sg50
I1
sbsg308
g0
(g310
g2
Ntp452
Rp453
(dp454
g42
I00
sg48
I00
sg49
I00
sg50
I10000000
sbsbsg292
g0
(g223
g2
Ntp455
Rp456
(dp457
g42
I00
sg48
I00
sg49
I00
sg19
(lp458
g308
asg43
Nsg308
g0
(g310
g2
Ntp459
Rp460
(dp461
g42
I00
sg48
I00
sg49
I00
sg50
I10000000
sbsbsg411
g0
(g223
g2
Ntp462
Rp463
(dp464
g42
I00
sg48
I00
sg49
I00
sg19
(lp465
g308
asg43
Nsg308
g0
(g310
g2
Ntp466
Rp467
(dp468
g42
I00
sg48
I00
sg49
I00
sg50
I0
sbsbsg412
g0
(g223
g2
Ntp469
Rp470
(dp471
g42
I00
sg48
I00
sg49
I00
sg19
(lp472
g307
ag308
asg43
Nsg307
g0
(g310
g2
Ntp473
Rp474
(dp475
g42
I00
sg48
I00
sg49
I00
sg50
I1
sbsg308
g0
(g310
g2
Ntp476
Rp477
(dp478
g42
I00
sg48
I00
sg49
I00
sg50
I10000000
sbsbsbsg294
g0
(g223
g2
Ntp479
Rp480
(dp481
g42
I00
sg48
I00
sg49
I00
sg19
(lp482
sg43
g0
(g133
g2
Ntp483
Rp484
(dp485
g42
I00
sg48
I00
sg49
I00
sg137
g0
(g298
g2
Ntp486
Rp487
(dp488
g302
g0
(g223
g2
Ntp489
Rp490
(dp491
g42
I00
sg48
I01
sg49
I00
sg19
(lp492
g345
ag346
ag347
ag348
ag349
ag350
ag351
aVfilename
p493
aVextension
p494
aVoutput
p495
asg43
g296
sg345
g0
(g133
g2
Ntp496
Rp497
(dp498
g42
I00
sg48
I00
sg49
I00
sg137
g120
sg138
Nsbsg346
g0
(g133
g2
Ntp499
Rp500
(dp501
g42
I00
sg48
I00
sg49
I00
sg137
g120
sg138
Nsbsg347
g0
(g133
g2
Ntp502
Rp503
(dp504
g42
I00
sg48
I00
sg49
I00
sg137
g310
sg138
Nsbsg348
g0
(g133
g2
Ntp505
Rp506
(dp507
g42
I00
sg48
I00
sg49
I00
sg137
g44
sg138
Nsbsg349
g0
(g133
g2
Ntp508
Rp509
(dp510
g42
I00
sg48
I00
sg49
I00
sg137
g44
sg138
Nsbsg350
g0
(g120
g2
Ntp511
Rp512
(dp513
g42
I00
sg48
I00
sg49
I00
sg50
I00
sbsg351
g0
(g120
g2
Ntp514
Rp515
(dp516
g42
I00
sg48
I00
sg49
I00
sg50
I00
sbsg493
g0
(g133
g2
Ntp517
Rp518
(dp519
g42
I00
sg48
I00
sg49
I00
sg137
g44
sg138
Nsbsg494
g0
(g133
g2
Ntp520
Rp521
(dp522
g42
I00
sg48
I00
sg49
I00
sg137
g44
sg138
Nsbsg495
g0
(g133
g2
Ntp523
Rp524
(dp525
g42
I00
sg48
I00
sg49
I00
sg137
g44
sg138
Nsbsbsg320
Nsbsg138
Nsbsbsg139
g162
sg141
I13
sV_inProcess
p526
I00
sbssV_Process__essources
p527
(dp528
Veegeom
p529
g0
(cFWCore.ParameterSet.Modules
ESSource
p530
g2
Ntp531
Rp532
(dp533
g17
VEmptyESSource
p534
sg19
(lp535
VrecordName
p536
aViovIsRunNotTime
p537
aVfirstValid
p538
asg42
I00
sg43
Nsg536
g0
(g44
g2
Ntp539
Rp540
(dp541
g42
I00
sg48
I01
sg49
I00
sg50
VEcalMappingRcd
p542
sbsg49
I00
sg537
g0
(g120
g2
Ntp543
Rp544
(dp545
g42
I00
sg48
I01
sg49
I00
sg50
I01
sbsg538
g0
(cFWCore.ParameterSet.Types
vuint32
p546
g93
(lp547
I1
atp548
Rp549
(dp550
g42
I00
sg48
I01
sg49
I00
sbsg139
V/cvmfs/cms.cern.ch/el9_amd64_gcc11/cms/cmssw/CMSSW_13_3_0_pre2/src/Geometry/EcalMapping/python/EcalMappingRecord_cfi.py
p551
sg141
I3
sg142
g529
sbsVGlobalTag
p552
g0
(g530
g2
Ntp553
Rp554
(dp555
g17
VPoolDBESSource
p556
sg19
(lp557
VDBParameters
p558
aVconnect
p559
aVglobaltag
p560
aVsnapshotTime
p561
aVtoGet
p562
aVDumpStat
p563
aVReconnectEachRun
p564
aVRefreshAlways
p565
aVRefreshEachRun
p566
aVRefreshOpenIOVs
p567
aVpfnPostfix
p568
aVpfnPrefix
p569
asg42
I00
sg43
Nsg558
g0
(g223
g2
Ntp570
Rp571
(dp572
g42
I00
sg48
I01
sg49
I00
sg19
(lp573
VauthenticationPath
p574
aVauthenticationSystem
p575
aVsecurity
p576
aVmessageLevel
p577
aVconnectionTimeout
p578
asg43
Nsg574
g0
(g44
g2
Ntp579
Rp580
(dp581
g42
I00
sg48
I00
sg49
I00
sg50
g59
sbsg575
g0
(g310
g2
Ntp582
Rp583
(dp584
g42
I00
sg48
I00
sg49
I00
sg50
I0
sbsg576
g0
(g44
g2
Ntp585
Rp586
(dp587
g42
I00
sg48
I00
sg49
I00
sg50
g59
sbsg577
g0
(g310
g2
Ntp588
Rp589
(dp590
g42
I00
sg48
I00
sg49
I00
sg50
I0
sbsg578
g0
(g310
g2
Ntp591
Rp592
(dp593
g42
I00
sg48
I00
sg49
I00
sg50
I0
sbsbsg49
I01
sg559
g0
(g44
g2
Ntp594
Rp595
(dp596
g42
I00
sg48
I01
sg49
I00
sg50
Vfrontier://FrontierProd/CMS_CONDITIONS
p597
sbsg560
g0
(g44
g2
Ntp598
Rp599
(dp600
g42
I00
sg48
I01
sg49
I01
sg50
V132X_dataRun3_v1
p601
sbsg561
g0
(g44
g2
Ntp602
Rp603
(dp604
g42
I00
sg48
I01
sg49
I00
sg50
g59
sbsg562
g0
(cFWCore.ParameterSet.Types
VPSet
p605
g93
(lp606
tp607
Rp608
(dp609
g42
I00
sg48
I01
sg49
I00
sg103
I1
sbsg563
g0
(g120
g2
Ntp610
Rp611
(dp612
g42
I00
sg48
I00
sg49
I00
sg50
I00
sbsg564
g0
(g120
g2
Ntp613
Rp614
(dp615
g42
I00
sg48
I00
sg49
I00
sg50
I00
sbsg565
g0
(g120
g2
Ntp616
Rp617
(dp618
g42
I00
sg48
I00
sg49
I00
sg50
I00
sbsg566
g0
(g120
g2
Ntp619
Rp620
(dp621
g42
I00
sg48
I00
sg49
I00
sg50
I00
sbsg567
g0
(g120
g2
Ntp622
Rp623
(dp624
g42
I00
sg48
I00
sg49
I00
sg50
I00
sbsg568
g0
(g44
g2
Ntp625
Rp626
(dp627
g42
I00
sg48
I00
sg49
I00
sg50
g59
sbsg569
g0
(g44
g2
Ntp628
Rp629
(dp630
g42
I00
sg48
I00
sg49
I00
sg50
g59
sbsg139
V/cvmfs/cms.cern.ch/el9_amd64_gcc11/cms/cmssw/CMSSW_13_3_0_pre2/src/CondCore/ESSources/python/CondDBESSource_cfi.py
p631
sg141
I8
sg142
g552
sbsVHcalTimeSlewEP
p632
g0
(g530
g2
Ntp633
Rp634
(dp635
g17
g632
sg19
(lp636
VappendToDataLabel
p637
aVtimeSlewParametersM2
p638
aVtimeSlewParametersM3
p639
asg42
I00
sg43
Nsg637
g0
(g44
g2
Ntp640
Rp641
(dp642
g42
I00
sg48
I01
sg49
I00
sg50
VHBHE
p643
sbsg49
I00
sg638
g0
(g605
g93
(lp644
g0
(g223
g2
Ntp645
Rp646
(dp647
g42
I00
sg48
I01
sg49
I00
sg19
(lp648
Vtzero
p649
aVslope
p650
aVtmax
p651
asg43
Nsg649
g0
(g78
g2
Ntp652
Rp653
(dp654
g42
I00
sg48
I01
sg49
I00
sg50
F23.960177
sbsg650
g0
(g78
g2
Ntp655
Rp656
(dp657
g42
I00
sg48
I01
sg49
I00
sg50
F-3.178648
sbsg651
g0
(g78
g2
Ntp658
Rp659
(dp660
g42
I00
sg48
I01
sg49
I00
sg50
F16.0
sbsbag0
(g223
g2
Ntp661
Rp662
(dp663
g42
I00
sg48
I01
sg49
I00
sg19
(lp664
g649
ag650
ag651
asg43
Nsg649
g0
(g78
g2
Ntp665
Rp666
(dp667
g42
I00
sg48
I01
sg49
I00
sg50
F11.977461
sbsg650
g0
(g78
g2
Ntp668
Rp669
(dp670
g42
I00
sg48
I01
sg49
I00
sg50
F-1.5610227
sbsg651
g0
(g78
g2
Ntp671
Rp672
(dp673
g42
I00
sg48
I01
sg49
I00
sg50
F10.0
sbsbag0
(g223
g2
Ntp674
Rp675
(dp676
g42
I00
sg48
I01
sg49
I00
sg19
(lp677
g649
ag650
ag651
asg43
Nsg649
g0
(g78
g2
Ntp678
Rp679
(dp680
g42
I00
sg48
I01
sg49
I00
sg50
F9.109694
sbsg650
g0
(g78
g2
Ntp681
Rp682
(dp683
g42
I00
sg48
I01
sg49
I00
sg50
F-1.075824
sbsg651
g0
(g78
g2
Ntp684
Rp685
(dp686
g42
I00
sg48
I01
sg49
I00
sg50
F6.25
sbsbatp687
Rp688
(dp689
g42
I00
sg48
I01
sg49
I00
sg103
I1
sbsg639
g0
(g605
g93
(lp690
g0
(g223
g2
Ntp691
Rp692
(dp693
g42
I00
sg48
I01
sg49
I00
sg19
(lp694
Vcap
p695
aVtspar0
p696
aVtspar1
p697
aVtspar2
p698
aVtspar0_siPM
p699
aVtspar1_siPM
p700
aVtspar2_siPM
p701
asg43
Nsg695
g0
(g78
g2
Ntp702
Rp703
(dp704
g42
I00
sg48
I01
sg49
I00
sg50
F6.0
sbsg696
g0
(g78
g2
Ntp705
Rp706
(dp707
g42
I00
sg48
I01
sg49
I00
sg50
F12.2999
sbsg697
g0
(g78
g2
Ntp708
Rp709
(dp710
g42
I00
sg48
I01
sg49
I00
sg50
F-2.19142
sbsg698
g0
(g78
g2
Ntp711
Rp712
(dp713
g42
I00
sg48
I01
sg49
I00
sg50
F0.0
sbsg699
g0
(g78
g2
Ntp714
Rp715
(dp716
g42
I00
sg48
I01
sg49
I00
sg50
F0.0
sbsg700
g0
(g78
g2
Ntp717
Rp718
(dp719
g42
I00
sg48
I01
sg49
I00
sg50
F0.0
sbsg701
g0
(g78
g2
Ntp720
Rp721
(dp722
g42
I00
sg48
I01
sg49
I00
sg50
F0.0
sbsbag0
(g223
g2
Ntp723
Rp724
(dp725
g42
I00
sg48
I01
sg49
I00
sg19
(lp726
g695
ag696
ag697
ag698
ag699
ag700
ag701
asg43
Nsg695
g0
(g78
g2
Ntp727
Rp728
(dp729
g42
I00
sg48
I01
sg49
I00
sg50
F6.0
sbsg696
g0
(g78
g2
Ntp730
Rp731
(dp732
g42
I00
sg48
I01
sg49
I00
sg50
F15.5
sbsg697
g0
(g78
g2
Ntp733
Rp734
(dp735
g42
I00
sg48
I01
sg49
I00
sg50
F-3.2
sbsg698
g0
(g78
g2
Ntp736
Rp737
(dp738
g42
I00
sg48
I01
sg49
I00
sg50
F32.0
sbsg699
g0
(g78
g2
Ntp739
Rp740
(dp741
g42
I00
sg48
I01
sg49
I00
sg50
F0.0
sbsg700
g0
(g78
g2
Ntp742
Rp743
(dp744
g42
I00
sg48
I01
sg49
I00
sg50
F0.0
sbsg701
g0
(g78
g2
Ntp745
Rp746
(dp747
g42
I00
sg48
I01
sg49
I00
sg50
F0.0
sbsbag0
(g223
g2
Ntp748
Rp749
(dp750
g42
I00
sg48
I01
sg49
I00
sg19
(lp751
g695
ag696
ag697
ag698
ag699
ag700
ag701
asg43
Nsg695
g0
(g78
g2
Ntp752
Rp753
(dp754
g42
I00
sg48
I01
sg49
I00
sg50
F6.0
sbsg696
g0
(g78
g2
Ntp755
Rp756
(dp757
g42
I00
sg48
I01
sg49
I00
sg50
F12.2999
sbsg697
g0
(g78
g2
Ntp758
Rp759
(dp760
g42
I00
sg48
I01
sg49
I00
sg50
F-2.19142
sbsg698
g0
(g78
g2
Ntp761
Rp762
(dp763
g42
I00
sg48
I01
sg49
I00
sg50
F0.0
sbsg699
g0
(g78
g2
Ntp764
Rp765
(dp766
g42
I00
sg48
I01
sg49
I00
sg50
F0.0
sbsg700
g0
(g78
g2
Ntp767
Rp768
(dp769
g42
I00
sg48
I01
sg49
I00
sg50
F0.0
sbsg701
g0
(g78
g2
Ntp770
Rp771
(dp772
g42
I00
sg48
I01
sg49
I00
sg50
F0.0
sbsbag0
(g223
g2
Ntp773
Rp774
(dp775
g42
I00
sg48
I01
sg49
I00
sg19
(lp776
g695
ag696
ag697
ag698
ag699
ag700
ag701
asg43
Nsg695
g0
(g78
g2
Ntp777
Rp778
(dp779
g42
I00
sg48
I01
sg49
I00
sg50
F6.0
sbsg696
g0
(g78
g2
Ntp780
Rp781
(dp782
g42
I00
sg48
I01
sg49
I00
sg50
F12.2999
sbsg697
g0
(g78
g2
Ntp783
Rp784
(dp785
g42
I00
sg48
I01
sg49
I00
sg50
F-2.19142
sbsg698
g0
(g78
g2
Ntp786
Rp787
(dp788
g42
I00
sg48
I01
sg49
I00
sg50
F0.0
sbsg699
g0
(g78
g2
Ntp789
Rp790
(dp791
g42
I00
sg48
I01
sg49
I00
sg50
F0.0
sbsg700
g0
(g78
g2
Ntp792
Rp793
(dp794
g42
I00
sg48
I01
sg49
I00
sg50
F0.0
sbsg701
g0
(g78
g2
Ntp795
Rp796
(dp797
g42
I00
sg48
I01
sg49
I00
sg50
F0.0
sbsbatp798
Rp799
(dp800
g42
I00
sg48
I01
sg49
I00
sg103
I1
sbsg139
V/cvmfs/cms.cern.ch/el9_amd64_gcc11/cms/cmssw/CMSSW_13_3_0_pre2/src/CalibCalorimetry/HcalPlugins/python/HcalTimeSlew_cff.py
p801
sg141
I3
sg142
g632
sbsVes_hardcode
p802
g0
(g530
g2
Ntp803
Rp804
(dp805
g17
VHcalHardcodeCalibrations
p806
sg19
(lp807
g562
aViLumi
p808
aVHBRecalibration
p809
aVHBreCalibCutoff
p810
aVHBmeanenergies
p811
aVHERecalibration
p812
aVHEreCalibCutoff
p813
aVHEmeanenergies
p814
aVHFRecalibration
p815
aVHFRecalParameterBlock
p816
aVGainWidthsForTrigPrims
p817
aVuseHBUpgrade
p818
aVuseHEUpgrade
p819
aVuseHFUpgrade
p820
aVuseHOUpgrade
p821
aVtestHFQIE10
p822
aVtestHEPlan1
p823
aVkillHE
p824
aVuseLayer0Weight
p825
aVuseIeta18depth1
p826
aVhb
p827
aVhe
p828
aVhf
p829
aVho
p830
aVhbUpgrade
p831
aVheUpgrade
p832
aVhfUpgrade
p833
aVSiPMCharacteristics
p834
asg42
I00
sg43
Nsg562
g0
(g92
g93
(lp835
VGainWidths
p836
atp837
Rp838
(dp839
g42
I00
sg48
I00
sg49
I00
sg103
I1
sbsg49
I01
sg808
g0
(g78
g2
Ntp840
Rp841
(dp842
g42
I00
sg48
I01
sg49
I00
sg50
F-1.0
sbsg809
g0
(g120
g2
Ntp843
Rp844
(dp845
g42
I00
sg48
I01
sg49
I00
sg50
I00
sbsg810
g0
(g78
g2
Ntp846
Rp847
(dp848
g42
I00
sg48
I01
sg49
I00
sg50
F100.0
sbsg811
g0
(cFWCore.ParameterSet.Types
FileInPath
p849
g2
Ntp850
Rp851
(dp852
g42
I00
sg48
I01
sg49
I00
sg50
VCalibCalorimetry/HcalPlugins/data/meanenergiesHB.txt
p853
sbsg812
g0
(g120
g2
Ntp854
Rp855
(dp856
g42
I00
sg48
I01
sg49
I00
sg50
I00
sbsg813
g0
(g78
g2
Ntp857
Rp858
(dp859
g42
I00
sg48
I01
sg49
I00
sg50
F100.0
sbsg814
g0
(g849
g2
Ntp860
Rp861
(dp862
g42
I00
sg48
I01
sg49
I00
sg50
VCalibCalorimetry/HcalPlugins/data/meanenergiesHE.txt
p863
sbsg815
g0
(g120
g2
Ntp864
Rp865
(dp866
g42
I00
sg48
I01
sg49
I00
sg50
I00
sbsg816
g0
(g223
g2
Ntp867
Rp868
(dp869
g42
I00
sg48
I01
sg49
I00
sg19
(lp870
VHFdepthOneParameterA
p871
aVHFdepthOneParameterB
p872
aVHFdepthTwoParameterA
p873
aVHFdepthTwoParameterB
p874
asg43
Nsg871
g0
(cFWCore.ParameterSet.Types
vdouble
p875
g93
(lp876
F0.004123
aF0.00602
aF0.008201
aF0.010489
aF0.013379
aF0.016997
aF0.021464
aF0.027371
aF0.034195
aF0.044807
aF0.058939
aF0.125497
atp877
Rp878
(dp879
g42
I00
sg48
I01
sg49
I00
sbsg872
g0
(g875
g93
(lp880
F-4e-06
aF-2e-06
aF0.0
aF4e-06
aF1.5e-05
aF2.6e-05
aF6.3e-05
aF8.4e-05
aF0.00016
aF0.000107
aF0.000425
aF0.000209
atp881
Rp882
(dp883
g42
I00
sg48
I01
sg49
I00
sbsg873
g0
(g875
g93
(lp884
F0.002861
aF0.004168
aF0.0064
aF0.008388
aF0.011601
aF0.014425
aF0.018633
aF0.023232
aF0.028274
aF0.035447
aF0.051579
aF0.086593
atp885
Rp886
(dp887
g42
I00
sg48
I01
sg49
I00
sbsg874
g0
(g875
g93
(lp888
F-2e-06
aF-0.0
aF-7e-06
aF-6e-06
aF-2e-06
aF1e-06
aF1.9e-05
aF3.1e-05
aF6.7e-05
aF1.2e-05
aF0.000157
aF-3e-06
atp889
Rp890
(dp891
g42
I00
sg48
I01
sg49
I00
sbsg142
g816
sbsg817
g0
(g120
g2
Ntp892
Rp893
(dp894
g42
I00
sg48
I01
sg49
I00
sg50
I00
sbsg818
g0
(g120
g2
Ntp895
Rp896
(dp897
g42
I00
sg48
I01
sg49
I00
sg50
I01
sbsg819
g0
(g120
g2
Ntp898
Rp899
(dp900
g42
I00
sg48
I01
sg49
I00
sg50
I01
sbsg820
g0
(g120
g2
Ntp901
Rp902
(dp903
g42
I00
sg48
I01
sg49
I00
sg50
I01
sbsg821
g0
(g120
g2
Ntp904
Rp905
(dp906
g42
I00
sg48
I01
sg49
I00
sg50
I01
sbsg822
g0
(g120
g2
Ntp907
Rp908
(dp909
g42
I00
sg48
I01
sg49
I00
sg50
I00
sbsg823
g0
(g120
g2
Ntp910
Rp911
(dp912
g42
I00
sg48
I01
sg49
I00
sg50
I00
sbsg824
g0
(g120
g2
Ntp913
Rp914
(dp915
g42
I00
sg48
I01
sg49
I00
sg50
I00
sbsg825
g0
(g120
g2
Ntp916
Rp917
(dp918
g42
I00
sg48
I01
sg49
I00
sg50
I01
sbsg826
g0
(g120
g2
Ntp919
Rp920
(dp921
g42
I00
sg48
I01
sg49
I00
sg50
I00
sbsg827
g0
(g223
g2
Ntp922
Rp923
(dp924
g42
I00
sg48
I01
sg49
I00
sg19
(lp925
Vpedestal
p926
aVpedestalWidth
p927
aVgain
p928
aVgainWidth
p929
aVzsThreshold
p930
aVqieType
p931
aVqieOffset
p932
aVqieSlope
p933
aVmcShape
p934
aVrecoShape
p935
aVphotoelectronsToAnalog
p936
aVdarkCurrent
p937
aVnoiseCorrelation
p938
aVnoiseThreshold
p939
aVseedThreshold
p940
aVdoRadiationDamage
p941
asg43
Nsg926
g0
(g78
g2
Ntp942
Rp943
(dp944
g42
I00
sg48
I01
sg49
I00
sg50
F3.285
sbsg927
g0
(g78
g2
Ntp945
Rp946
(dp947
g42
I00
sg48
I01
sg49
I00
sg50
F0.809
sbsg928
g0
(g875
g93
(lp948
F0.19
atp949
Rp950
(dp951
g42
I00
sg48
I01
sg49
I00
sbsg929
g0
(g875
g93
(lp952
F0.0
atp953
Rp954
(dp955
g42
I00
sg48
I01
sg49
I00
sbsg930
g0
(g310
g2
Ntp956
Rp957
(dp958
g42
I00
sg48
I01
sg49
I00
sg50
I8
sbsg931
g0
(g310
g2
Ntp959
Rp960
(dp961
g42
I00
sg48
I01
sg49
I00
sg50
I0
sbsg932
g0
(g875
g93
(lp962
F-0.49
aF1.8
aF7.2
aF37.9
atp963
Rp964
(dp965
g42
I00
sg48
I01
sg49
I00
sbsg933
g0
(g875
g93
(lp966
F0.912
aF0.917
aF0.922
aF0.923
atp967
Rp968
(dp969
g42
I00
sg48
I01
sg49
I00
sbsg934
g0
(g310
g2
Ntp970
Rp971
(dp972
g42
I00
sg48
I01
sg49
I00
sg50
I125
sbsg935
g0
(g310
g2
Ntp973
Rp974
(dp975
g42
I00
sg48
I01
sg49
I00
sg50
I105
sbsg936
g0
(g78
g2
Ntp976
Rp977
(dp978
g42
I00
sg48
I01
sg49
I00
sg50
F0.3305
sbsg937
g0
(g875
g93
(lp979
F0.0
atp980
Rp981
(dp982
g42
I00
sg48
I01
sg49
I00
sbsg938
g0
(g875
g93
(lp983
F0.0
atp984
Rp985
(dp986
g42
I00
sg48
I01
sg49
I00
sbsg939
g0
(g78
g2
Ntp987
Rp988
(dp989
g42
I00
sg48
I01
sg49
I00
sg50
F0.0
sbsg940
g0
(g78
g2
Ntp990
Rp991
(dp992
g42
I00
sg48
I01
sg49
I00
sg50
F0.1
sbsg941
g0
(g120
g2
Ntp993
Rp994
(dp995
g42
I00
sg48
I01
sg49
I00
sg50
I00
sbsbsg828
g0
(g223
g2
Ntp996
Rp997
(dp998
g42
I00
sg48
I01
sg49
I00
sg19
(lp999
g926
ag927
ag928
ag929
ag930
ag931
ag932
ag933
ag934
ag935
ag936
ag937
ag938
ag939
ag940
ag941
asg43
Nsg926
g0
(g78
g2
Ntp1000
Rp1001
(dp1002
g42
I00
sg48
I01
sg49
I00
sg50
F3.163
sbsg927
g0
(g78
g2
Ntp1003
Rp1004
(dp1005
g42
I00
sg48
I01
sg49
I00
sg50
F0.9698
sbsg928
g0
(g875
g93
(lp1006
F0.23
atp1007
Rp1008
(dp1009
g42
I00
sg48
I01
sg49
I00
sbsg929
g0
(g875
g93
(lp1010
I0
atp1011
Rp1012
(dp1013
g42
I00
sg48
I01
sg49
I00
sbsg930
g0
(g310
g2
Ntp1014
Rp1015
(dp1016
g42
I00
sg48
I01
sg49
I00
sg50
I9
sbsg931
g0
(g310
g2
Ntp1017
Rp1018
(dp1019
g42
I00
sg48
I01
sg49
I00
sg50
I0
sbsg932
g0
(g875
g93
(lp1020
F-0.38
aF2.0
aF7.6
aF39.6
atp1021
Rp1022
(dp1023
g42
I00
sg48
I01
sg49
I00
sbsg933
g0
(g875
g93
(lp1024
F0.912
aF0.916
aF0.92
aF0.922
atp1025
Rp1026
(dp1027
g42
I00
sg48
I01
sg49
I00
sbsg934
g0
(g310
g2
Ntp1028
Rp1029
(dp1030
g42
I00
sg48
I01
sg49
I00
sg50
I125
sbsg935
g0
(g310
g2
Ntp1031
Rp1032
(dp1033
g42
I00
sg48
I01
sg49
I00
sg50
I105
sbsg936
g0
(g78
g2
Ntp1034
Rp1035
(dp1036
g42
I00
sg48
I01
sg49
I00
sg50
F0.3305
sbsg937
g0
(g875
g93
(lp1037
F0.0
atp1038
Rp1039
(dp1040
g42
I00
sg48
I01
sg49
I00
sbsg938
g0
(g875
g93
(lp1041
F0.0
atp1042
Rp1043
(dp1044
g42
I00
sg48
I01
sg49
I00
sbsg939
g0
(g78
g2
Ntp1045
Rp1046
(dp1047
g42
I00
sg48
I01
sg49
I00
sg50
F0.0
sbsg940
g0
(g78
g2
Ntp1048
Rp1049
(dp1050
g42
I00
sg48
I01
sg49
I00
sg50
F0.1
sbsg941
g0
(g120
g2
Ntp1051
Rp1052
(dp1053
g42
I00
sg48
I01
sg49
I00
sg50
I00
sbsbsg829
g0
(g223
g2
Ntp1054
Rp1055
(dp1056
g42
I00
sg48
I01
sg49
I00
sg19
(lp1057
g926
ag927
ag928
ag929
ag930
ag931
ag932
ag933
ag934
ag935
ag936
ag937
ag938
ag939
ag940
ag941
asg43
Nsg926
g0
(g78
g2
Ntp1058
Rp1059
(dp1060
g42
I00
sg48
I01
sg49
I00
sg50
F9.354
sbsg927
g0
(g78
g2
Ntp1061
Rp1062
(dp1063
g42
I00
sg48
I01
sg49
I00
sg50
F2.516
sbsg928
g0
(g875
g93
(lp1064
F0.14
aF0.135
atp1065
Rp1066
(dp1067
g42
I00
sg48
I01
sg49
I00
sbsg929
g0
(g875
g93
(lp1068
F0.0
aF0.0
atp1069
Rp1070
(dp1071
g42
I00
sg48
I01
sg49
I00
sbsg930
g0
(g310
g2
Ntp1072
Rp1073
(dp1074
g42
I00
sg48
I01
sg49
I00
sg50
I-9999
sbsg931
g0
(g310
g2
Ntp1075
Rp1076
(dp1077
g42
I00
sg48
I01
sg49
I00
sg50
I0
sbsg932
g0
(g875
g93
(lp1078
F-0.87
aF1.4
aF7.8
aF-29.6
atp1079
Rp1080
(dp1081
g42
I00
sg48
I01
sg49
I00
sbsg933
g0
(g875
g93
(lp1082
F0.359
aF0.358
aF0.36
aF0.367
atp1083
Rp1084
(dp1085
g42
I00
sg48
I01
sg49
I00
sbsg934
g0
(g310
g2
Ntp1086
Rp1087
(dp1088
g42
I00
sg48
I01
sg49
I00
sg50
I301
sbsg935
g0
(g310
g2
Ntp1089
Rp1090
(dp1091
g42
I00
sg48
I01
sg49
I00
sg50
I301
sbsg936
g0
(g78
g2
Ntp1092
Rp1093
(dp1094
g42
I00
sg48
I01
sg49
I00
sg50
F0.0
sbsg937
g0
(g875
g93
(lp1095
F0.0
atp1096
Rp1097
(dp1098
g42
I00
sg48
I01
sg49
I00
sbsg938
g0
(g875
g93
(lp1099
F0.0
atp1100
Rp1101
(dp1102
g42
I00
sg48
I01
sg49
I00
sbsg939
g0
(g78
g2
Ntp1103
Rp1104
(dp1105
g42
I00
sg48
I01
sg49
I00
sg50
F0.0
sbsg940
g0
(g78
g2
Ntp1106
Rp1107
(dp1108
g42
I00
sg48
I01
sg49
I00
sg50
F0.1
sbsg941
g0
(g120
g2
Ntp1109
Rp1110
(dp1111
g42
I00
sg48
I01
sg49
I00
sg50
I00
sbsbsg830
g0
(g223
g2
Ntp1112
Rp1113
(dp1114
g42
I00
sg48
I01
sg49
I00
sg19
(lp1115
g926
ag927
ag928
ag929
ag930
ag931
ag932
ag933
ag934
ag935
ag936
ag937
ag938
ag939
ag940
ag941
asg43
Nsg926
g0
(g78
g2
Ntp1116
Rp1117
(dp1118
g42
I00
sg48
I01
sg49
I00
sg50
F12.06
sbsg927
g0
(g78
g2
Ntp1119
Rp1120
(dp1121
g42
I00
sg48
I01
sg49
I00
sg50
F0.6285
sbsg928
g0
(g875
g93
(lp1122
F0.006
aF0.0087
atp1123
Rp1124
(dp1125
g42
I00
sg48
I01
sg49
I00
sbsg929
g0
(g875
g93
(lp1126
F0.0
aF0.0
atp1127
Rp1128
(dp1129
g42
I00
sg48
I01
sg49
I00
sbsg930
g0
(g310
g2
Ntp1130
Rp1131
(dp1132
g42
I00
sg48
I01
sg49
I00
sg50
I24
sbsg931
g0
(g310
g2
Ntp1133
Rp1134
(dp1135
g42
I00
sg48
I01
sg49
I00
sg50
I0
sbsg932
g0
(g875
g93
(lp1136
F-0.44
aF1.4
aF7.1
aF38.5
atp1137
Rp1138
(dp1139
g42
I00
sg48
I01
sg49
I00
sbsg933
g0
(g875
g93
(lp1140
F0.907
aF0.915
aF0.92
aF0.921
atp1141
Rp1142
(dp1143
g42
I00
sg48
I01
sg49
I00
sbsg934
g0
(g310
g2
Ntp1144
Rp1145
(dp1146
g42
I00
sg48
I01
sg49
I00
sg50
I201
sbsg935
g0
(g310
g2
Ntp1147
Rp1148
(dp1149
g42
I00
sg48
I01
sg49
I00
sg50
I201
sbsg936
g0
(g78
g2
Ntp1150
Rp1151
(dp1152
g42
I00
sg48
I01
sg49
I00
sg50
F4.0
sbsg937
g0
(g875
g93
(lp1153
F0.0
atp1154
Rp1155
(dp1156
g42
I00
sg48
I01
sg49
I00
sbsg938
g0
(g875
g93
(lp1157
F0.0
atp1158
Rp1159
(dp1160
g42
I00
sg48
I01
sg49
I00
sbsg939
g0
(g78
g2
Ntp1161
Rp1162
(dp1163
g42
I00
sg48
I01
sg49
I00
sg50
F0.0
sbsg940
g0
(g78
g2
Ntp1164
Rp1165
(dp1166
g42
I00
sg48
I01
sg49
I00
sg50
F0.1
sbsg941
g0
(g120
g2
Ntp1167
Rp1168
(dp1169
g42
I00
sg48
I01
sg49
I00
sg50
I00
sbsbsg831
g0
(g223
g2
Ntp1170
Rp1171
(dp1172
g42
I00
sg48
I01
sg49
I00
sg19
(lp1173
g926
ag927
ag928
ag929
ag930
ag931
ag932
ag933
ag934
ag935
ag936
ag937
ag938
ag939
ag940
ag941
aVradiationDamage
p1174
asg43
Nsg926
g0
(g78
g2
Ntp1175
Rp1176
(dp1177
g42
I00
sg48
I01
sg49
I00
sg50
F17.3
sbsg927
g0
(g78
g2
Ntp1178
Rp1179
(dp1180
g42
I00
sg48
I01
sg49
I00
sg50
F1.5
sbsg928
g0
(g875
g93
(lp1181
F0.0006252
atp1182
Rp1183
(dp1184
g42
I00
sg48
I01
sg49
I00
sbsg929
g0
(g875
g93
(lp1185
I0
atp1186
Rp1187
(dp1188
g42
I00
sg48
I01
sg49
I00
sbsg930
g0
(g310
g2
Ntp1189
Rp1190
(dp1191
g42
I00
sg48
I01
sg49
I00
sg50
I16
sbsg931
g0
(g310
g2
Ntp1192
Rp1193
(dp1194
g42
I00
sg48
I01
sg49
I00
sg50
I2
sbsg932
g0
(g875
g93
(lp1195
F0.0
aF0.0
aF0.0
aF0.0
atp1196
Rp1197
(dp1198
g42
I00
sg48
I01
sg49
I00
sbsg933
g0
(g875
g93
(lp1199
F0.05376
aF0.05376
aF0.05376
aF0.05376
atp1200
Rp1201
(dp1202
g42
I00
sg48
I01
sg49
I00
sbsg934
g0
(g310
g2
Ntp1203
Rp1204
(dp1205
g42
I00
sg48
I01
sg49
I00
sg50
I206
sbsg935
g0
(g310
g2
Ntp1206
Rp1207
(dp1208
g42
I00
sg48
I01
sg49
I00
sg50
I208
sbsg936
g0
(g78
g2
Ntp1209
Rp1210
(dp1211
g42
I00
sg48
I01
sg49
I00
sg50
F40.0
sbsg937
g0
(g875
g93
(lp1212
F0.01
aF0.015
atp1213
Rp1214
(dp1215
g42
I00
sg48
I01
sg49
I00
sbsg938
g0
(g875
g93
(lp1216
F0.26
aF0.254
atp1217
Rp1218
(dp1219
g42
I00
sg48
I01
sg49
I00
sbsg939
g0
(g78
g2
Ntp1220
Rp1221
(dp1222
g42
I00
sg48
I01
sg49
I00
sg50
F0.0
sbsg940
g0
(g78
g2
Ntp1223
Rp1224
(dp1225
g42
I00
sg48
I01
sg49
I00
sg50
F0.1
sbsg941
g0
(g120
g2
Ntp1226
Rp1227
(dp1228
g42
I00
sg48
I01
sg49
I00
sg50
I01
sbsg1174
g0
(g223
g2
Ntp1229
Rp1230
(dp1231
g42
I00
sg48
I01
sg49
I00
sg19
(lp1232
VtemperatureBase
p1233
aVtemperatureNew
p1234
aVintlumiOffset
p1235
aVdepVsTemp
p1236
aVintlumiToNeutrons
p1237
aVdepVsNeutrons
p1238
asg43
Nsg1233
g0
(g78
g2
Ntp1239
Rp1240
(dp1241
g42
I00
sg48
I01
sg49
I00
sg50
I20
sbsg1234
g0
(g78
g2
Ntp1242
Rp1243
(dp1244
g42
I00
sg48
I01
sg49
I00
sg50
I-5
sbsg1235
g0
(g78
g2
Ntp1245
Rp1246
(dp1247
g42
I00
sg48
I01
sg49
I00
sg50
I150
sbsg1236
g0
(g78
g2
Ntp1248
Rp1249
(dp1250
g42
I00
sg48
I01
sg49
I00
sg50
F0.0631
sbsg1237
g0
(g78
g2
Ntp1251
Rp1252
(dp1253
g42
I00
sg48
I01
sg49
I00
sg50
F367000000.0
sbsg1238
g0
(g875
g93
(lp1254
F5.543e-10
aF8.012e-10
atp1255
Rp1256
(dp1257
g42
I00
sg48
I01
sg49
I00
sbsbsbsg832
g0
(g223
g2
Ntp1258
Rp1259
(dp1260
g42
I00
sg48
I01
sg49
I00
sg19
(lp1261
g926
ag927
ag928
ag929
ag930
ag931
ag932
ag933
ag934
ag935
ag936
ag937
ag938
ag939
ag940
ag941
ag1174
asg43
Nsg926
g0
(g78
g2
Ntp1262
Rp1263
(dp1264
g42
I00
sg48
I01
sg49
I00
sg50
F17.3
sbsg927
g0
(g78
g2
Ntp1265
Rp1266
(dp1267
g42
I00
sg48
I01
sg49
I00
sg50
F1.5
sbsg928
g0
(g875
g93
(lp1268
F0.0006252
atp1269
Rp1270
(dp1271
g42
I00
sg48
I01
sg49
I00
sbsg929
g0
(g875
g93
(lp1272
I0
atp1273
Rp1274
(dp1275
g42
I00
sg48
I01
sg49
I00
sbsg930
g0
(g310
g2
Ntp1276
Rp1277
(dp1278
g42
I00
sg48
I01
sg49
I00
sg50
I16
sbsg931
g0
(g310
g2
Ntp1279
Rp1280
(dp1281
g42
I00
sg48
I01
sg49
I00
sg50
I2
sbsg932
g0
(g875
g93
(lp1282
F0.0
aF0.0
aF0.0
aF0.0
atp1283
Rp1284
(dp1285
g42
I00
sg48
I01
sg49
I00
sbsg933
g0
(g875
g93
(lp1286
F0.05376
aF0.05376
aF0.05376
aF0.05376
atp1287
Rp1288
(dp1289
g42
I00
sg48
I01
sg49
I00
sbsg934
g0
(g310
g2
Ntp1290
Rp1291
(dp1292
g42
I00
sg48
I01
sg49
I00
sg50
I206
sbsg935
g0
(g310
g2
Ntp1293
Rp1294
(dp1295
g42
I00
sg48
I01
sg49
I00
sg50
I208
sbsg936
g0
(g78
g2
Ntp1296
Rp1297
(dp1298
g42
I00
sg48
I01
sg49
I00
sg50
F40.0
sbsg937
g0
(g875
g93
(lp1299
F0.01
aF0.015
atp1300
Rp1301
(dp1302
g42
I00
sg48
I01
sg49
I00
sbsg938
g0
(g875
g93
(lp1303
F0.26
aF0.254
atp1304
Rp1305
(dp1306
g42
I00
sg48
I01
sg49
I00
sbsg939
g0
(g78
g2
Ntp1307
Rp1308
(dp1309
g42
I00
sg48
I01
sg49
I00
sg50
F0.0
sbsg940
g0
(g78
g2
Ntp1310
Rp1311
(dp1312
g42
I00
sg48
I01
sg49
I00
sg50
F0.1
sbsg941
g0
(g120
g2
Ntp1313
Rp1314
(dp1315
g42
I00
sg48
I01
sg49
I00
sg50
I01
sbsg1174
g0
(g223
g2
Ntp1316
Rp1317
(dp1318
g42
I00
sg48
I01
sg49
I00
sg19
(lp1319
g1233
ag1234
ag1235
ag1236
ag1237
ag1238
asg43
Nsg1233
g0
(g78
g2
Ntp1320
Rp1321
(dp1322
g42
I00
sg48
I01
sg49
I00
sg50
I20
sbsg1234
g0
(g78
g2
Ntp1323
Rp1324
(dp1325
g42
I00
sg48
I01
sg49
I00
sg50
I5
sbsg1235
g0
(g78
g2
Ntp1326
Rp1327
(dp1328
g42
I00
sg48
I01
sg49
I00
sg50
I75
sbsg1236
g0
(g78
g2
Ntp1329
Rp1330
(dp1331
g42
I00
sg48
I01
sg49
I00
sg50
F0.0631
sbsg1237
g0
(g78
g2
Ntp1332
Rp1333
(dp1334
g42
I00
sg48
I01
sg49
I00
sg50
F29200000.0
sbsg1238
g0
(g875
g93
(lp1335
F5.543e-10
aF8.012e-10
atp1336
Rp1337
(dp1338
g42
I00
sg48
I01
sg49
I00
sbsbsbsg833
g0
(g223
g2
Ntp1339
Rp1340
(dp1341
g42
I00
sg48
I01
sg49
I00
sg19
(lp1342
g926
ag927
ag928
ag929
ag930
ag931
ag932
ag933
ag934
ag935
ag936
ag937
ag938
ag939
ag940
ag941
asg43
Nsg926
g0
(g78
g2
Ntp1343
Rp1344
(dp1345
g42
I00
sg48
I01
sg49
I00
sg50
F13.33
sbsg927
g0
(g78
g2
Ntp1346
Rp1347
(dp1348
g42
I00
sg48
I01
sg49
I00
sg50
F3.33
sbsg928
g0
(g875
g93
(lp1349
F0.14
aF0.135
atp1350
Rp1351
(dp1352
g42
I00
sg48
I01
sg49
I00
sbsg929
g0
(g875
g93
(lp1353
F0.0
aF0.0
atp1354
Rp1355
(dp1356
g42
I00
sg48
I01
sg49
I00
sbsg930
g0
(g310
g2
Ntp1357
Rp1358
(dp1359
g42
I00
sg48
I01
sg49
I00
sg50
I-9999
sbsg931
g0
(g310
g2
Ntp1360
Rp1361
(dp1362
g42
I00
sg48
I01
sg49
I00
sg50
I1
sbsg932
g0
(g875
g93
(lp1363
F0.0697
aF-0.7405
aF12.38
aF-671.9
atp1364
Rp1365
(dp1366
g42
I00
sg48
I01
sg49
I00
sbsg933
g0
(g875
g93
(lp1367
F0.297
aF0.298
aF0.298
aF0.313
atp1368
Rp1369
(dp1370
g42
I00
sg48
I01
sg49
I00
sbsg934
g0
(g310
g2
Ntp1371
Rp1372
(dp1373
g42
I00
sg48
I01
sg49
I00
sg50
I301
sbsg935
g0
(g310
g2
Ntp1374
Rp1375
(dp1376
g42
I00
sg48
I01
sg49
I00
sg50
I301
sbsg936
g0
(g78
g2
Ntp1377
Rp1378
(dp1379
g42
I00
sg48
I01
sg49
I00
sg50
F0.0
sbsg937
g0
(g875
g93
(lp1380
F0.0
atp1381
Rp1382
(dp1383
g42
I00
sg48
I01
sg49
I00
sbsg938
g0
(g875
g93
(lp1384
F0.0
atp1385
Rp1386
(dp1387
g42
I00
sg48
I01
sg49
I00
sbsg939
g0
(g78
g2
Ntp1388
Rp1389
(dp1390
g42
I00
sg48
I01
sg49
I00
sg50
F0.0
sbsg940
g0
(g78
g2
Ntp1391
Rp1392
(dp1393
g42
I00
sg48
I01
sg49
I00
sg50
F0.1
sbsg941
g0
(g120
g2
Ntp1394
Rp1395
(dp1396
g42
I00
sg48
I01
sg49
I00
sg50
I00
sbsbsg834
g0
(g605
g93
(lp1397
g0
(g223
g2
Ntp1398
Rp1399
(dp1400
g42
I00
sg48
I01
sg49
I00
sg19
(lp1401
Vpixels
p1402
aVcrosstalk
p1403
aVnonlin1
p1404
aVnonlin2
p1405
aVnonlin3
p1406
asg43
Nsg1402
g0
(g310
g2
Ntp1407
Rp1408
(dp1409
g42
I00
sg48
I01
sg49
I00
sg50
I36000
sbsg1403
g0
(g78
g2
Ntp1410
Rp1411
(dp1412
g42
I00
sg48
I01
sg49
I00
sg50
F0.0
sbsg1404
g0
(g78
g2
Ntp1413
Rp1414
(dp1415
g42
I00
sg48
I01
sg49
I00
sg50
F1.0
sbsg1405
g0
(g78
g2
Ntp1416
Rp1417
(dp1418
g42
I00
sg48
I01
sg49
I00
sg50
F0.0
sbsg1406
g0
(g78
g2
Ntp1419
Rp1420
(dp1421
g42
I00
sg48
I01
sg49
I00
sg50
F0.0
sbsbag0
(g223
g2
Ntp1422
Rp1423
(dp1424
g42
I00
sg48
I01
sg49
I00
sg19
(lp1425
g1402
ag1403
ag1404
ag1405
ag1406
asg43
Nsg1402
g0
(g310
g2
Ntp1426
Rp1427
(dp1428
g42
I00
sg48
I01
sg49
I00
sg50
I2500
sbsg1403
g0
(g78
g2
Ntp1429
Rp1430
(dp1431
g42
I00
sg48
I01
sg49
I00
sg50
F0.0
sbsg1404
g0
(g78
g2
Ntp1432
Rp1433
(dp1434
g42
I00
sg48
I01
sg49
I00
sg50
F1.0
sbsg1405
g0
(g78
g2
Ntp1435
Rp1436
(dp1437
g42
I00
sg48
I01
sg49
I00
sg50
F0.0
sbsg1406
g0
(g78
g2
Ntp1438
Rp1439
(dp1440
g42
I00
sg48
I01
sg49
I00
sg50
F0.0
sbsbag0
(g223
g2
Ntp1441
Rp1442
(dp1443
g42
I00
sg48
I01
sg49
I00
sg19
(lp1444
g1402
ag1403
ag1404
ag1405
ag1406
asg43
Nsg1402
g0
(g310
g2
Ntp1445
Rp1446
(dp1447
g42
I00
sg48
I01
sg49
I00
sg50
I27370
sbsg1403
g0
(g78
g2
Ntp1448
Rp1449
(dp1450
g42
I00
sg48
I01
sg49
I00
sg50
F0.17
sbsg1404
g0
(g78
g2
Ntp1451
Rp1452
(dp1453
g42
I00
sg48
I01
sg49
I00
sg50
F1.00985
sbsg1405
g0
(g78
g2
Ntp1454
Rp1455
(dp1456
g42
I00
sg48
I01
sg49
I00
sg50
F7.84089e-06
sbsg1406
g0
(g78
g2
Ntp1457
Rp1458
(dp1459
g42
I00
sg48
I01
sg49
I00
sg50
F2.86282e-10
sbsbag0
(g223
g2
Ntp1460
Rp1461
(dp1462
g42
I00
sg48
I01
sg49
I00
sg19
(lp1463
g1402
ag1403
ag1404
ag1405
ag1406
asg43
Nsg1402
g0
(g310
g2
Ntp1464
Rp1465
(dp1466
g42
I00
sg48
I01
sg49
I00
sg50
I38018
sbsg1403
g0
(g78
g2
Ntp1467
Rp1468
(dp1469
g42
I00
sg48
I01
sg49
I00
sg50
F0.196
sbsg1404
g0
(g78
g2
Ntp1470
Rp1471
(dp1472
g42
I00
sg48
I01
sg49
I00
sg50
F1.00546
sbsg1405
g0
(g78
g2
Ntp1473
Rp1474
(dp1475
g42
I00
sg48
I01
sg49
I00
sg50
F6.40239e-06
sbsg1406
g0
(g78
g2
Ntp1476
Rp1477
(dp1478
g42
I00
sg48
I01
sg49
I00
sg50
F1.27011e-10
sbsbag0
(g223
g2
Ntp1479
Rp1480
(dp1481
g42
I00
sg48
I01
sg49
I00
sg19
(lp1482
g1402
ag1403
ag1404
ag1405
ag1406
asg43
Nsg1402
g0
(g310
g2
Ntp1483
Rp1484
(dp1485
g42
I00
sg48
I01
sg49
I00
sg50
I27370
sbsg1403
g0
(g78
g2
Ntp1486
Rp1487
(dp1488
g42
I00
sg48
I01
sg49
I00
sg50
F0.17
sbsg1404
g0
(g78
g2
Ntp1489
Rp1490
(dp1491
g42
I00
sg48
I01
sg49
I00
sg50
F1.00985
sbsg1405
g0
(g78
g2
Ntp1492
Rp1493
(dp1494
g42
I00
sg48
I01
sg49
I00
sg50
F7.84089e-06
sbsg1406
g0
(g78
g2
Ntp1495
Rp1496
(dp1497
g42
I00
sg48
I01
sg49
I00
sg50
F2.86282e-10
sbsbag0
(g223
g2
Ntp1498
Rp1499
(dp1500
g42
I00
sg48
I01
sg49
I00
sg19
(lp1501
g1402
ag1403
ag1404
ag1405
ag1406
asg43
Nsg1402
g0
(g310
g2
Ntp1502
Rp1503
(dp1504
g42
I00
sg48
I01
sg49
I00
sg50
I38018
sbsg1403
g0
(g78
g2
Ntp1505
Rp1506
(dp1507
g42
I00
sg48
I01
sg49
I00
sg50
F0.196
sbsg1404
g0
(g78
g2
Ntp1508
Rp1509
(dp1510
g42
I00
sg48
I01
sg49
I00
sg50
F1.00546
sbsg1405
g0
(g78
g2
Ntp1511
Rp1512
(dp1513
g42
I00
sg48
I01
sg49
I00
sg50
F6.40239e-06
sbsg1406
g0
(g78
g2
Ntp1514
Rp1515
(dp1516
g42
I00
sg48
I01
sg49
I00
sg50
F1.27011e-10
sbsbag0
(g223
g2
Ntp1517
Rp1518
(dp1519
g42
I00
sg48
I01
sg49
I00
sg19
(lp1520
g1402
ag1403
ag1404
ag1405
ag1406
asg43
Nsg1402
g0
(g310
g2
Ntp1521
Rp1522
(dp1523
g42
I00
sg48
I01
sg49
I00
sg50
I0
sbsg1403
g0
(g78
g2
Ntp1524
Rp1525
(dp1526
g42
I00
sg48
I01
sg49
I00
sg50
F0.0
sbsg1404
g0
(g78
g2
Ntp1527
Rp1528
(dp1529
g42
I00
sg48
I01
sg49
I00
sg50
F1.0
sbsg1405
g0
(g78
g2
Ntp1530
Rp1531
(dp1532
g42
I00
sg48
I01
sg49
I00
sg50
F0.0
sbsg1406
g0
(g78
g2
Ntp1533
Rp1534
(dp1535
g42
I00
sg48
I01
sg49
I00
sg50
F0.0
sbsbatp1536
Rp1537
(dp1538
g42
I00
sg48
I01
sg49
I00
sg103
I1
sbsg139
V/cvmfs/cms.cern.ch/el9_amd64_gcc11/cms/cmssw/CMSSW_13_3_0_pre2/src/CalibCalorimetry/HcalPlugins/python/Hcal_Conditions_forGlobalTag_cff.py
p1539
sg141
I16
sg142
g802
sbssV_Process__esproducers
p1540
(dp1541
VCSCGeometryESModule
p1542
g0
(cFWCore.ParameterSet.Modules
ESProducer
p1543
g2
Ntp1544
Rp1545
(dp1546
g17
g1542
sg19
(lp1547
VfromDDD
p1548
aVfromDD4hep
p1549
aValignmentsLabel
p1550
ag637
aVuseRealWireGeometry
p1551
aVuseOnlyWiresInME1a
p1552
aVuseGangedStripsInME1a
p1553
aVuseCentreTIOffsets
p1554
aVapplyAlignment
p1555
aVdebugV
p1556
asg42
I00
sg43
Nsg1548
g0
(g120
g2
Ntp1557
Rp1558
(dp1559
g42
I00
sg48
I01
sg49
I00
sg50
I00
sbsg49
I01
sg1549
g0
(g120
g2
Ntp1560
Rp1561
(dp1562
g42
I00
sg48
I01
sg49
I00
sg50
I00
sbsg1550
g0
(g44
g2
Ntp1563
Rp1564
(dp1565
g42
I00
sg48
I01
sg49
I00
sg50
g59
sbsg637
g0
(g44
g2
Ntp1566
Rp1567
(dp1568
g42
I00
sg48
I01
sg49
I00
sg50
g59
sbsg1551
g0
(g120
g2
Ntp1569
Rp1570
(dp1571
g42
I00
sg48
I01
sg49
I00
sg50
I01
sbsg1552
g0
(g120
g2
Ntp1572
Rp1573
(dp1574
g42
I00
sg48
I01
sg49
I00
sg50
I00
sbsg1553
g0
(g120
g2
Ntp1575
Rp1576
(dp1577
g42
I00
sg48
I01
sg49
I01
sg50
I00
sbsg1554
g0
(g120
g2
Ntp1578
Rp1579
(dp1580
g42
I00
sg48
I01
sg49
I00
sg50
I00
sbsg1555
g0
(g120
g2
Ntp1581
Rp1582
(dp1583
g42
I00
sg48
I01
sg49
I00
sg50
I01
sbsg1556
g0
(g120
g2
Ntp1584
Rp1585
(dp1586
g42
I00
sg48
I00
sg49
I00
sg50
I00
sbsg139
g162
sg141
I55
sg142
g1542
sbsVCaloGeometryBuilder
p1587
g0
(g1543
g2
Ntp1588
Rp1589
(dp1590
g17
g1587
sg19
(lp1591
VSelectedCalos
p1592
asg42
I00
sg43
Nsg1592
g0
(g92
g93
(lp1593
VHCAL
p1594
aVZDC
p1595
aVEcalBarrel
p1596
aVEcalEndcap
p1597
aVEcalPreshower
p1598
aVTOWER
p1599
atp1600
Rp1601
(dp1602
g42
I00
sg48
I01
sg49
I01
sg103
I1
sbsg49
I01
sg139
g162
sg141
I55
sg142
g1587
sbsVCaloTopologyBuilder
p1603
g0
(g1543
g2
Ntp1604
Rp1605
(dp1606
g17
g1603
sg19
(lp1607
sg42
I00
sg43
Nsg49
I00
sg139
g162
sg141
I55
sg142
g1603
sbsVCaloTowerGeometryFromDBEP
p1608
g0
(g1543
g2
Ntp1609
Rp1610
(dp1611
g17
g1608
sg19
(lp1612
g1555
asg42
I00
sg43
Nsg1555
g0
(g120
g2
Ntp1613
Rp1614
(dp1615
g42
I00
sg48
I01
sg49
I00
sg50
I00
sbsg49
I00
sg139
g162
sg141
I55
sg142
g1608
sbsVCaloTowerTopologyEP
p1616
g0
(g1543
g2
Ntp1617
Rp1618
(dp1619
g17
g1616
sg19
(lp1620
sg42
I00
sg43
Nsg49
I00
sg139
g162
sg141
I55
sg142
g1616
sbsVCastorGeometryFromDBEP
p1621
g0
(g1543
g2
Ntp1622
Rp1623
(dp1624
g17
g1621
sg19
(lp1625
g1555
asg42
I00
sg43
Nsg1555
g0
(g120
g2
Ntp1626
Rp1627
(dp1628
g42
I00
sg48
I01
sg49
I00
sg50
I00
sbsg49
I00
sg139
g162
sg141
I55
sg142
g1621
sbsVDTGeometryESModule
p1629
g0
(g1543
g2
Ntp1630
Rp1631
(dp1632
g17
g1629
sg19
(lp1633
g1548
ag1549
aVDDDetector
p1634
ag1550
ag637
aVattribute
p1635
aVvalue
p1636
ag1555
asg42
I00
sg43
Nsg1548
g0
(g120
g2
Ntp1637
Rp1638
(dp1639
g42
I00
sg48
I01
sg49
I01
sg50
I00
sbsg49
I01
sg1549
g0
(g120
g2
Ntp1640
Rp1641
(dp1642
g42
I00
sg48
I01
sg49
I00
sg50
I00
sbsg1634
g0
(cFWCore.ParameterSet.Types
ESInputTag
p1643
g2
Ntp1644
Rp1645
(dp1646
g42
I00
sg48
I01
sg49
I00
sV_ESInputTag__moduleLabel
p1647
g59
sV_ESInputTag__data
p1648
g59
sbsg1550
g0
(g44
g2
Ntp1649
Rp1650
(dp1651
g42
I00
sg48
I01
sg49
I00
sg50
g59
sbsg637
g0
(g44
g2
Ntp1652
Rp1653
(dp1654
g42
I00
sg48
I01
sg49
I00
sg50
g59
sbsg1635
g0
(g44
g2
Ntp1655
Rp1656
(dp1657
g42
I00
sg48
I01
sg49
I00
sg50
VMuStructure
p1658
sbsg1636
g0
(g44
g2
Ntp1659
Rp1660
(dp1661
g42
I00
sg48
I01
sg49
I00
sg50
VMuonBarrelDT
p1662
sbsg1555
g0
(g120
g2
Ntp1663
Rp1664
(dp1665
g42
I00
sg48
I01
sg49
I00
sg50
I01
sbsg139
g162
sg141
I55
sg142
g1629
sbsVEcalBarrelGeometryFromDBEP
p1666
g0
(g1543
g2
Ntp1667
Rp1668
(dp1669
g17
g1666
sg19
(lp1670
g1555
asg42
I00
sg43
Nsg1555
g0
(g120
g2
Ntp1671
Rp1672
(dp1673
g42
I00
sg48
I01
sg49
I01
sg50
I01
sbsg49
I01
sg139
g162
sg141
I55
sg142
g1666
sbsVEcalElectronicsMappingBuilder
p1674
g0
(g1543
g2
Ntp1675
Rp1676
(dp1677
g17
g1674
sg19
(lp1678
sg42
I00
sg43
Nsg49
I00
sg139
g162
sg141
I55
sg142
g1674
sbsVEcalEndcapGeometryFromDBEP
p1679
g0
(g1543
g2
Ntp1680
Rp1681
(dp1682
g17
g1679
sg19
(lp1683
g1555
asg42
I00
sg43
Nsg1555
g0
(g120
g2
Ntp1684
Rp1685
(dp1686
g42
I00
sg48
I01
sg49
I01
sg50
I01
sbsg49
I01
sg139
g162
sg141
I55
sg142
g1679
sbsVEcalPreshowerGeometryFromDBEP
p1687
g0
(g1543
g2
Ntp1688
Rp1689
(dp1690
g17
g1687
sg19
(lp1691
g1555
asg42
I00
sg43
Nsg1555
g0
(g120
g2
Ntp1692
Rp1693
(dp1694
g42
I00
sg48
I01
sg49
I01
sg50
I01
sbsg49
I01
sg139
g162
sg141
I55
sg142
g1687
sbsVEcalTrigTowerConstituentsMapBuilder
p1695
g0
(g1543
g2
Ntp1696
Rp1697
(dp1698
g17
g1695
sg19
(lp1699
VMapFile
p1700
asg42
I00
sg43
Nsg1700
g0
(g44
g2
Ntp1701
Rp1702
(dp1703
g42
I00
sg48
I00
sg49
I00
sg50
VGeometry/EcalMapping/data/EndCap_TTMap.txt
p1704
sbsg49
I00
sg139
g162
sg141
I55
sg142
g1695
sbsVGlobalTrackingGeometryESProducer
p1705
g0
(g1543
g2
Ntp1706
Rp1707
(dp1708
g17
g1705
sg19
(lp1709
sg42
I00
sg43
Nsg49
I00
sg139
g162
sg141
I55
sg142
g1705
sbsVHcalAlignmentEP
p1710
g0
(g1543
g2
Ntp1711
Rp1712
(dp1713
g17
g1710
sg19
(lp1714
sg42
I00
sg43
Nsg49
I00
sg139
g162
sg141
I55
sg142
g1710
sbsVHcalGeometryFromDBEP
p1715
g0
(g1543
g2
Ntp1716
Rp1717
(dp1718
g17
g1715
sg19
(lp1719
g1555
asg42
I00
sg43
Nsg1555
g0
(g120
g2
Ntp1720
Rp1721
(dp1722
g42
I00
sg48
I01
sg49
I01
sg50
I01
sbsg49
I01
sg139
g162
sg141
I55
sg142
g1715
sbsVMuonDetLayerGeometryESProducer
p1723
g0
(g1543
g2
Ntp1724
Rp1725
(dp1726
g17
g1723
sg19
(lp1727
sg42
I00
sg43
Nsg49
I00
sg139
g162
sg141
I55
sg142
g1723
sbsVRPCGeometryESModule
p1728
g0
(g1543
g2
Ntp1729
Rp1730
(dp1731
g17
g1728
sg19
(lp1732
g1548
ag1549
asg42
I00
sg43
Nsg1548
g0
(g120
g2
Ntp1733
Rp1734
(dp1735
g42
I00
sg48
I00
sg49
I00
sg50
I00
sbsg49
I00
sg1549
g0
(g120
g2
Ntp1736
Rp1737
(dp1738
g42
I00
sg48
I00
sg49
I00
sg50
I00
sbsg139
g162
sg141
I55
sg142
g1728
sbsVTrackerRecoGeometryESProducer
p1739
g0
(g1543
g2
Ntp1740
Rp1741
(dp1742
g17
g1739
sg19
(lp1743
VusePhase2Stacks
p1744
asg42
I00
sg43
Nsg1744
g0
(g120
g2
Ntp1745
Rp1746
(dp1747
g42
I00
sg48
I01
sg49
I00
sg50
I00
sbsg49
I00
sg139
g162
sg141
I55
sg142
g1739
sbsVZdcGeometryFromDBEP
p1748
g0
(g1543
g2
Ntp1749
Rp1750
(dp1751
g17
g1748
sg19
(lp1752
g1555
asg42
I00
sg43
Nsg1555
g0
(g120
g2
Ntp1753
Rp1754
(dp1755
g42
I00
sg48
I01
sg49
I00
sg50
I00
sbsg49
I00
sg139
g162
sg141
I55
sg142
g1748
sbsVfakeForIdealAlignment
p1756
g0
(g1543
g2
Ntp1757
Rp1758
(dp1759
g17
VFakeAlignmentProducer
p1760
sg19
(lp1761
g637
asg42
I00
sg43
Nsg637
g0
(g44
g2
Ntp1762
Rp1763
(dp1764
g42
I00
sg48
I01
sg49
I01
sg50
VfakeForIdeal
p1765
sbsg49
I01
sg139
V/cvmfs/cms.cern.ch/el9_amd64_gcc11/cms/cmssw/CMSSW_13_3_0_pre2/src/Alignment/CommonAlignmentProducer/python/fakeForIdealAlignmentProducer_cfi.py
p1766
sg141
I5
sg142
g1756
sbsVhcalDDDRecConstants
p1767
g0
(g1543
g2
Ntp1768
Rp1769
(dp1770
g17
VHcalDDDRecConstantsESModule
p1771
sg19
(lp1772
g637
asg42
I00
sg43
Nsg637
g0
(g44
g2
Ntp1773
Rp1774
(dp1775
g42
I00
sg48
I01
sg49
I00
sg50
g59
sbsg49
I00
sg139
g162
sg141
I55
sg142
g1767
sbsVhcalDDDSimConstants
p1776
g0
(g1543
g2
Ntp1777
Rp1778
(dp1779
g17
VHcalDDDSimConstantsESModule
p1780
sg19
(lp1781
g637
asg42
I00
sg43
Nsg637
g0
(g44
g2
Ntp1782
Rp1783
(dp1784
g42
I00
sg48
I01
sg49
I00
sg50
g59
sbsg49
I00
sg139
g162
sg141
I55
sg142
g1776
sbsVhcalTopologyIdeal
p1785
g0
(g1543
g2
Ntp1786
Rp1787
(dp1788
g17
VHcalTopologyIdealEP
p1789
sg19
(lp1790
VExclude
p1791
aVMergePosition
p1792
ag637
asg42
I00
sg43
Nsg1791
g0
(g44
g2
Ntp1793
Rp1794
(dp1795
g42
I00
sg48
I00
sg49
I00
sg50
g59
sbsg49
I00
sg1792
g0
(g120
g2
Ntp1796
Rp1797
(dp1798
g42
I00
sg48
I00
sg49
I00
sg50
I00
sbsg637
g0
(g44
g2
Ntp1799
Rp1800
(dp1801
g42
I00
sg48
I01
sg49
I00
sg50
g59
sbsg139
g162
sg141
I55
sg142
g1785
sbsVidealForDigiCSCGeometry
p1802
g0
(g1543
g2
Ntp1803
Rp1804
(dp1805
g17
g1542
sg19
(lp1806
g1548
ag1549
ag1550
ag637
ag1551
ag1552
ag1553
ag1554
ag1555
ag1556
asg42
I00
sg43
Nsg1548
g0
(g120
g2
Ntp1807
Rp1808
(dp1809
g42
I00
sg48
I01
sg49
I00
sg50
I00
sbsg49
I01
sg1549
g0
(g120
g2
Ntp1810
Rp1811
(dp1812
g42
I00
sg48
I01
sg49
I00
sg50
I00
sbsg1550
g0
(g44
g2
Ntp1813
Rp1814
(dp1815
g42
I00
sg48
I01
sg49
I01
sg50
g1765
sbsg637
g0
(g44
g2
Ntp1816
Rp1817
(dp1818
g42
I00
sg48
I01
sg49
I01
sg50
VidealForDigi
p1819
sbsg1551
g0
(g120
g2
Ntp1820
Rp1821
(dp1822
g42
I00
sg48
I01
sg49
I00
sg50
I01
sbsg1552
g0
(g120
g2
Ntp1823
Rp1824
(dp1825
g42
I00
sg48
I01
sg49
I00
sg50
I00
sbsg1553
g0
(g120
g2
Ntp1826
Rp1827
(dp1828
g42
I00
sg48
I01
sg49
I01
sg50
I00
sbsg1554
g0
(g120
g2
Ntp1829
Rp1830
(dp1831
g42
I00
sg48
I01
sg49
I00
sg50
I00
sbsg1555
g0
(g120
g2
Ntp1832
Rp1833
(dp1834
g42
I00
sg48
I01
sg49
I01
sg50
I00
sbsg1556
g0
(g120
g2
Ntp1835
Rp1836
(dp1837
g42
I00
sg48
I00
sg49
I00
sg50
I00
sbsg139
V/cvmfs/cms.cern.ch/el9_amd64_gcc11/cms/cmssw/CMSSW_13_3_0_pre2/src/Geometry/CSCGeometryBuilder/python/idealForDigiCscGeometryDB_cff.py
p1838
sg141
I8
sg142
g1802
sbsVidealForDigiDTGeometry
p1839
g0
(g1543
g2
Ntp1840
Rp1841
(dp1842
g17
g1629
sg19
(lp1843
g1548
ag1549
ag1634
ag1550
ag637
ag1635
ag1636
ag1555
asg42
I00
sg43
Nsg1548
g0
(g120
g2
Ntp1844
Rp1845
(dp1846
g42
I00
sg48
I01
sg49
I01
sg50
I00
sbsg49
I01
sg1549
g0
(g120
g2
Ntp1847
Rp1848
(dp1849
g42
I00
sg48
I01
sg49
I00
sg50
I00
sbsg1634
g0
(g1643
g2
Ntp1850
Rp1851
(dp1852
g42
I00
sg48
I01
sg49
I00
sg1647
g59
sg1648
g59
sbsg1550
g0
(g44
g2
Ntp1853
Rp1854
(dp1855
g42
I00
sg48
I01
sg49
I01
sg50
g1765
sbsg637
g0
(g44
g2
Ntp1856
Rp1857
(dp1858
g42
I00
sg48
I01
sg49
I01
sg50
g1819
sbsg1635
g0
(g44
g2
Ntp1859
Rp1860
(dp1861
g42
I00
sg48
I01
sg49
I00
sg50
g1658
sbsg1636
g0
(g44
g2
Ntp1862
Rp1863
(dp1864
g42
I00
sg48
I01
sg49
I00
sg50
g1662
sbsg1555
g0
(g120
g2
Ntp1865
Rp1866
(dp1867
g42
I00
sg48
I01
sg49
I01
sg50
I00
sbsg139
V/cvmfs/cms.cern.ch/el9_amd64_gcc11/cms/cmssw/CMSSW_13_3_0_pre2/src/Geometry/DTGeometryBuilder/python/idealForDigiDtGeometryDB_cff.py
p1868
sg141
I8
sg142
g1839
sbsVidealForDigiTrackerGeometry
p1869
g0
(g1543
g2
Ntp1870
Rp1871
(dp1872
g17
VTrackerDigiGeometryESModule
p1873
sg19
(lp1874
g637
ag1548
ag1555
ag1550
asg42
I00
sg43
Nsg637
g0
(g44
g2
Ntp1875
Rp1876
(dp1877
g42
I00
sg48
I01
sg49
I01
sg50
g1819
sbsg49
I01
sg1548
g0
(g120
g2
Ntp1878
Rp1879
(dp1880
g42
I00
sg48
I01
sg49
I00
sg50
I00
sbsg1555
g0
(g120
g2
Ntp1881
Rp1882
(dp1883
g42
I00
sg48
I01
sg49
I01
sg50
I00
sbsg1550
g0
(g44
g2
Ntp1884
Rp1885
(dp1886
g42
I00
sg48
I01
sg49
I01
sg50
g1765
sbsg139
V/cvmfs/cms.cern.ch/el9_amd64_gcc11/cms/cmssw/CMSSW_13_3_0_pre2/src/Geometry/TrackerGeometryBuilder/python/idealForDigiTrackerGeometryDB_cff.py
p1887
sg141
I8
sg142
g1869
sbsVmuonGeometryConstants
p1888
g0
(g1543
g2
Ntp1889
Rp1890
(dp1891
g17
VMuonGeometryConstantsESModule
p1892
sg19
(lp1893
g1549
ag637
asg42
I00
sg43
Nsg1549
g0
(g120
g2
Ntp1894
Rp1895
(dp1896
g42
I00
sg48
I01
sg49
I00
sg50
I01
sbsg49
I01
sg637
g0
(g44
g2
Ntp1897
Rp1898
(dp1899
g42
I00
sg48
I01
sg49
I00
sg50
g59
sbsg139
g162
sg141
I55
sg142
g1888
sbsVtrackerGeometryDB
p1900
g0
(g1543
g2
Ntp1901
Rp1902
(dp1903
g17
g1873
sg19
(lp1904
g637
ag1548
ag1555
ag1550
asg42
I00
sg43
Nsg637
g0
(g44
g2
Ntp1905
Rp1906
(dp1907
g42
I00
sg48
I01
sg49
I00
sg50
g59
sbsg49
I00
sg1548
g0
(g120
g2
Ntp1908
Rp1909
(dp1910
g42
I00
sg48
I01
sg49
I00
sg50
I00
sbsg1555
g0
(g120
g2
Ntp1911
Rp1912
(dp1913
g42
I00
sg48
I01
sg49
I00
sg50
I01
sbsg1550
g0
(g44
g2
Ntp1914
Rp1915
(dp1916
g42
I00
sg48
I01
sg49
I00
sg50
g59
sbsg139
g162
sg141
I55
sg142
g1900
sbsVtrackerNumberingGeometryDB
p1917
g0
(g1543
g2
Ntp1918
Rp1919
(dp1920
g17
VTrackerGeometricDetESModule
p1921
sg19
(lp1922
g1548
ag1549
ag637
asg42
I00
sg43
Nsg1548
g0
(g120
g2
Ntp1923
Rp1924
(dp1925
g42
I00
sg48
I01
sg49
I00
sg50
I00
sbsg49
I00
sg1549
g0
(g120
g2
Ntp1926
Rp1927
(dp1928
g42
I00
sg48
I01
sg49
I00
sg50
I00
sbsg637
g0
(g44
g2
Ntp1929
Rp1930
(dp1931
g42
I00
sg48
I01
sg49
I00
sg50
g59
sbsg139
g162
sg141
I55
sg142
g1917
sbsVtrackerTopology
p1932
g0
(g1543
g2
Ntp1933
Rp1934
(dp1935
g17
VTrackerTopologyEP
p1936
sg19
(lp1937
g637
asg42
I00
sg43
Nsg637
g0
(g44
g2
Ntp1938
Rp1939
(dp1940
g42
I00
sg48
I01
sg49
I00
sg50
g59
sbsg49
I00
sg139
g162
sg141
I55
sg142
g1932
sbsVGEMGeometryESModule
p1941
g0
(g1543
g2
Ntp1942
Rp1943
(dp1944
g17
g1941
sg19
(lp1945
g1548
ag1549
ag637
ag1550
ag1555
asg42
I00
sg43
Nsg1548
g0
(g120
g2
Ntp1946
Rp1947
(dp1948
g42
I00
sg48
I01
sg49
I00
sg50
I00
sbsg49
I01
sg1549
g0
(g120
g2
Ntp1949
Rp1950
(dp1951
g42
I00
sg48
I01
sg49
I00
sg50
I00
sbsg637
g0
(g44
g2
Ntp1952
Rp1953
(dp1954
g42
I00
sg48
I01
sg49
I00
sg50
g59
sbsg1550
g0
(g44
g2
Ntp1955
Rp1956
(dp1957
g42
I00
sg48
I01
sg49
I00
sg50
g59
sbsg1555
g0
(g120
g2
Ntp1958
Rp1959
(dp1960
g42
I00
sg48
I01
sg49
I01
sg50
I01
sbsg139
g162
sg141
I55
sg142
g1941
sbsVParabolicParametrizedMagneticFieldProducer
p1961
g0
(g1543
g2
Ntp1962
Rp1963
(dp1964
g17
VAutoParametrizedMagneticFieldProducer
p1965
sg19
(lp1966
Vversion
p1967
aVlabel
p1968
aVvalueOverride
p1969
asg42
I00
sg43
Nsg1967
g0
(g44
g2
Ntp1970
Rp1971
(dp1972
g42
I00
sg48
I01
sg49
I00
sg50
VParabolic
p1973
sbsg49
I01
sg1968
g0
(g44
g2
Ntp1974
Rp1975
(dp1976
g42
I00
sg48
I00
sg49
I01
sg50
VParabolicMf
p1977
sbsg1969
g0
(g310
g2
Ntp1978
Rp1979
(dp1980
g42
I00
sg48
I01
sg49
I00
sg50
I-1
sbsg139
g162
sg141
I55
sg142
g1961
sbsVVolumeBasedMagneticFieldESProducer
p1981
g0
(g1543
g2
Ntp1982
Rp1983
(dp1984
g17
VDD4hep_VolumeBasedMagneticFieldESProducerFromDB
p1985
sg19
(lp1986
g1968
aVdebugBuilder
p1987
ag1969
asg42
I00
sg43
Nsg49
I01
sg139
g162
sg141
I55
sg1968
g0
(g44
g2
Ntp1988
Rp1989
(dp1990
g42
I00
sg48
I00
sg49
I00
sg50
g59
sbsg1987
g0
(g120
g2
Ntp1991
Rp1992
(dp1993
g42
I00
sg48
I00
sg49
I00
sg50
I00
sbsg1969
g0
(g310
g2
Ntp1994
Rp1995
(dp1996
g42
I00
sg48
I01
sg49
I00
sg50
I-1
sbsg142
g1981
sbsVCastorDbProducer
p1997
g0
(g1543
g2
Ntp1998
Rp1999
(dp2000
g17
g1997
sg19
(lp2001
g637
asg42
I00
sg43
Nsg637
g0
(g44
g2
Ntp2002
Rp2003
(dp2004
g42
I00
sg48
I01
sg49
I00
sg50
g59
sbsg49
I00
sg139
g162
sg141
I55
sg142
g1997
sbsVEcalLaserCorrectionService
p2005
g0
(g1543
g2
Ntp2006
Rp2007
(dp2008
g17
g2005
sg19
(lp2009
VmaxExtrapolationTimeInSec
p2010
asg42
I00
sg43
Nsg2010
g0
(cFWCore.ParameterSet.Types
uint32
p2011
g2
Ntp2012
Rp2013
(dp2014
g42
I00
sg48
I01
sg49
I00
sg50
I0
sbsg49
I00
sg139
g162
sg141
I55
sg142
g2005
sbsVEcalLaserCorrectionServiceMC
p2015
g0
(g1543
g2
Ntp2016
Rp2017
(dp2018
g17
g2015
sg19
(lp2019
g637
asg42
I00
sg43
Nsg637
g0
(g44
g2
Ntp2020
Rp2021
(dp2022
g42
I00
sg48
I01
sg49
I00
sg50
g59
sbsg49
I00
sg139
g162
sg141
I55
sg142
g2015
sbsVSiStripRecHitMatcherESProducer
p2023
g0
(g1543
g2
Ntp2024
Rp2025
(dp2026
g17
g2023
sg19
(lp2027
VComponentName
p2028
aVNSigmaInside
p2029
aVPreFilter
p2030
asg42
I00
sg43
Nsg2028
g0
(g44
g2
Ntp2031
Rp2032
(dp2033
g42
I00
sg48
I01
sg49
I00
sg50
VStandardMatcher
p2034
sbsg49
I00
sg2029
g0
(g78
g2
Ntp2035
Rp2036
(dp2037
g42
I00
sg48
I01
sg49
I00
sg50
F3.0
sbsg2030
g0
(g120
g2
Ntp2038
Rp2039
(dp2040
g42
I00
sg48
I01
sg49
I00
sg50
I00
sbsg139
g162
sg141
I55
sg142
g2023
sbsVStripCPEfromTrackAngleESProducer
p2041
g0
(g1543
g2
Ntp2042
Rp2043
(dp2044
g17
VStripCPEESProducer
p2045
sg19
(lp2046
g2028
aVComponentType
p2047
aVparameters
p2048
asg42
I00
sg43
Nsg2028
g0
(g44
g2
Ntp2049
Rp2050
(dp2051
g42
I00
sg48
I01
sg49
I01
sg50
VStripCPEfromTrackAngle
p2052
sbsg49
I00
sg2047
g0
(g44
g2
Ntp2053
Rp2054
(dp2055
g42
I00
sg48
I01
sg49
I01
sg50
g2052
sbsg2048
g0
(g223
g2
Ntp2056
Rp2057
(dp2058
g42
I00
sg48
I01
sg49
I00
sg19
(lp2059
VmLC_P0
p2060
aVmLC_P1
p2061
aVmLC_P2
p2062
aVmTIB_P0
p2063
aVmTIB_P1
p2064
aVmTOB_P0
p2065
aVmTOB_P1
p2066
aVmTID_P0
p2067
aVmTID_P1
p2068
aVmTEC_P0
p2069
aVmTEC_P1
p2070
aVuseLegacyError
p2071
aVmaxChgOneMIP
p2072
asg43
Nsg2060
g0
(g78
g2
Ntp2073
Rp2074
(dp2075
g42
I00
sg48
I01
sg49
I00
sg50
F-0.326
sbsg2061
g0
(g78
g2
Ntp2076
Rp2077
(dp2078
g42
I00
sg48
I01
sg49
I00
sg50
F0.618
sbsg2062
g0
(g78
g2
Ntp2079
Rp2080
(dp2081
g42
I00
sg48
I01
sg49
I00
sg50
F0.3
sbsg2063
g0
(g78
g2
Ntp2082
Rp2083
(dp2084
g42
I00
sg48
I01
sg49
I00
sg50
F-0.742
sbsg2064
g0
(g78
g2
Ntp2085
Rp2086
(dp2087
g42
I00
sg48
I01
sg49
I00
sg50
F0.202
sbsg2065
g0
(g78
g2
Ntp2088
Rp2089
(dp2090
g42
I00
sg48
I01
sg49
I00
sg50
F-1.026
sbsg2066
g0
(g78
g2
Ntp2091
Rp2092
(dp2093
g42
I00
sg48
I01
sg49
I00
sg50
F0.253
sbsg2067
g0
(g78
g2
Ntp2094
Rp2095
(dp2096
g42
I00
sg48
I01
sg49
I00
sg50
F-1.427
sbsg2068
g0
(g78
g2
Ntp2097
Rp2098
(dp2099
g42
I00
sg48
I01
sg49
I00
sg50
F0.433
sbsg2069
g0
(g78
g2
Ntp2100
Rp2101
(dp2102
g42
I00
sg48
I01
sg49
I00
sg50
F-1.885
sbsg2070
g0
(g78
g2
Ntp2103
Rp2104
(dp2105
g42
I00
sg48
I01
sg49
I00
sg50
F0.471
sbsg2071
g0
(g120
g2
Ntp2106
Rp2107
(dp2108
g42
I00
sg48
I01
sg49
I00
sg50
I00
sbsg2072
g0
(g78
g2
Ntp2109
Rp2110
(dp2111
g42
I00
sg48
I01
sg49
I00
sg50
F6000.0
sbsbsg139
V/cvmfs/cms.cern.ch/el9_amd64_gcc11/cms/cmssw/CMSSW_13_3_0_pre2/src/RecoLocalTracker/SiStripRecHitConverter/python/StripCPEfromTrackAngle_cfi.py
p2112
sg141
I4
sg142
g2041
sbsVctppsBeamParametersFromLHCInfoESSource
p2113
g0
(g1543
g2
Ntp2114
Rp2115
(dp2116
g17
VCTPPSBeamParametersFromLHCInfoESSource
p2117
sg19
(lp2118
VlhcInfoLabel
p2119
aVbeamDivX45
p2120
aVbeamDivY45
p2121
aVbeamDivX56
p2122
aVbeamDivY56
p2123
aVvtxOffsetX45
p2124
aVvtxOffsetY45
p2125
aVvtxOffsetZ45
p2126
aVvtxOffsetX56
p2127
aVvtxOffsetY56
p2128
aVvtxOffsetZ56
p2129
aVvtxStddevX
p2130
aVvtxStddevY
p2131
aVvtxStddevZ
p2132
ag637
asg42
I00
sg43
Nsg2119
g0
(g44
g2
Ntp2133
Rp2134
(dp2135
g42
I00
sg48
I01
sg49
I00
sg50
g59
sbsg49
I00
sg2120
g0
(g78
g2
Ntp2136
Rp2137
(dp2138
g42
I00
sg48
I01
sg49
I00
sg50
F0.1
sbsg2121
g0
(g78
g2
Ntp2139
Rp2140
(dp2141
g42
I00
sg48
I01
sg49
I00
sg50
F0.1
sbsg2122
g0
(g78
g2
Ntp2142
Rp2143
(dp2144
g42
I00
sg48
I01
sg49
I00
sg50
F0.1
sbsg2123
g0
(g78
g2
Ntp2145
Rp2146
(dp2147
g42
I00
sg48
I01
sg49
I00
sg50
F0.1
sbsg2124
g0
(g78
g2
Ntp2148
Rp2149
(dp2150
g42
I00
sg48
I01
sg49
I00
sg50
F0.01
sbsg2125
g0
(g78
g2
Ntp2151
Rp2152
(dp2153
g42
I00
sg48
I01
sg49
I00
sg50
F0.01
sbsg2126
g0
(g78
g2
Ntp2154
Rp2155
(dp2156
g42
I00
sg48
I01
sg49
I00
sg50
F0.01
sbsg2127
g0
(g78
g2
Ntp2157
Rp2158
(dp2159
g42
I00
sg48
I01
sg49
I00
sg50
F0.01
sbsg2128
g0
(g78
g2
Ntp2160
Rp2161
(dp2162
g42
I00
sg48
I01
sg49
I00
sg50
F0.01
sbsg2129
g0
(g78
g2
Ntp2163
Rp2164
(dp2165
g42
I00
sg48
I01
sg49
I00
sg50
F0.01
sbsg2130
g0
(g78
g2
Ntp2166
Rp2167
(dp2168
g42
I00
sg48
I01
sg49
I00
sg50
F0.02
sbsg2131
g0
(g78
g2
Ntp2169
Rp2170
(dp2171
g42
I00
sg48
I01
sg49
I00
sg50
F0.02
sbsg2132
g0
(g78
g2
Ntp2172
Rp2173
(dp2174
g42
I00
sg48
I01
sg49
I00
sg50
F0.02
sbsg637
g0
(g44
g2
Ntp2175
Rp2176
(dp2177
g42
I00
sg48
I01
sg49
I00
sg50
g59
sbsg139
g162
sg141
I55
sg142
g2113
sbsVctppsInterpolatedOpticalFunctionsESSource
p2178
g0
(g1543
g2
Ntp2179
Rp2180
(dp2181
g17
VCTPPSInterpolatedOpticalFunctionsESSource
p2182
sg19
(lp2183
g2119
aVopticsLabel
p2184
ag637
asg42
I00
sg43
Nsg2119
g0
(g44
g2
Ntp2185
Rp2186
(dp2187
g42
I00
sg48
I01
sg49
I00
sg50
g59
sbsg49
I01
sg2184
g0
(g44
g2
Ntp2188
Rp2189
(dp2190
g42
I00
sg48
I01
sg49
I00
sg50
g59
sbsg637
g0
(g44
g2
Ntp2191
Rp2192
(dp2193
g42
I00
sg48
I01
sg49
I00
sg50
g59
sbsg139
g162
sg141
I55
sg142
g2178
sbsVhcal_db_producer
p2194
g0
(g1543
g2
Ntp2195
Rp2196
(dp2197
g17
VHcalDbProducer
p2198
sg19
(lp2199
Vdump
p2200
aVfile
p2201
asg42
I00
sg43
Nsg2200
g0
(g92
g93
(lp2202
g59
atp2203
Rp2204
(dp2205
g42
I00
sg48
I00
sg49
I00
sg103
I1
sbsg49
I00
sg2201
g0
(g44
g2
Ntp2206
Rp2207
(dp2208
g42
I00
sg48
I00
sg49
I00
sg50
g59
sbsg139
g162
sg141
I55
sg142
g2194
sbsVmultipleScatteringParametrisationMakerESProducer
p2209
g0
(g1543
g2
Ntp2210
Rp2211
(dp2212
g17
VMultipleScatteringParametrisationMakerESProducer
p2213
sg19
(lp2214
g637
asg42
I00
sg43
Nsg637
g0
(g44
g2
Ntp2215
Rp2216
(dp2217
g42
I00
sg48
I01
sg49
I00
sg50
g59
sbsg49
I00
sg139
g162
sg141
I55
sg142
g2209
sbsVsiPixelQualityESProducer
p2218
g0
(g1543
g2
Ntp2219
Rp2220
(dp2221
g17
VSiPixelQualityESProducer
p2222
sg19
(lp2223
VsiPixelQualityLabel
p2224
aVsiPixelQualityLabel_RawToDigi
p2225
aVListOfRecordToMerge
p2226
ag637
asg42
I00
sg43
Nsg2224
g0
(g44
g2
Ntp2227
Rp2228
(dp2229
g42
I00
sg48
I01
sg49
I00
sg50
g59
sbsg49
I01
sg2225
g0
(g44
g2
Ntp2230
Rp2231
(dp2232
g42
I00
sg48
I01
sg49
I00
sg50
g59
sbsg2226
g0
(g605
g93
(lp2233
g0
(g223
g2
Ntp2234
Rp2235
(dp2236
g42
I00
sg48
I01
sg49
I00
sg19
(lp2237
Vrecord
p2238
aVtag
p2239
asg43
Nsg2238
g0
(g44
g2
Ntp2240
Rp2241
(dp2242
g42
I00
sg48
I01
sg49
I00
sg50
VSiPixelQualityFromDbRcd
p2243
sbsg2239
g0
(g44
g2
Ntp2244
Rp2245
(dp2246
g42
I00
sg48
I01
sg49
I00
sg50
g59
sbsbag0
(g223
g2
Ntp2247
Rp2248
(dp2249
g42
I00
sg48
I01
sg49
I00
sg19
(lp2250
g2238
ag2239
asg43
Nsg2238
g0
(g44
g2
Ntp2251
Rp2252
(dp2253
g42
I00
sg48
I01
sg49
I00
sg50
VSiPixelDetVOffRcd
p2254
sbsg2239
g0
(g44
g2
Ntp2255
Rp2256
(dp2257
g42
I00
sg48
I01
sg49
I00
sg50
g59
sbsbatp2258
Rp2259
(dp2260
g42
I00
sg48
I01
sg49
I00
sg103
I1
sbsg637
g0
(g44
g2
Ntp2261
Rp2262
(dp2263
g42
I00
sg48
I01
sg49
I00
sg50
g59
sbsg139
g162
sg141
I55
sg142
g2218
sbsVsiStripBackPlaneCorrectionDepESProducer
p2264
g0
(g1543
g2
Ntp2265
Rp2266
(dp2267
g17
VSiStripBackPlaneCorrectionDepESProducer
p2268
sg19
(lp2269
VLatencyRecord
p2270
aVBackPlaneCorrectionPeakMode
p2271
aVBackPlaneCorrectionDeconvMode
p2272
asg42
I00
sg43
Nsg2270
g0
(g223
g2
Ntp2273
Rp2274
(dp2275
g42
I00
sg48
I01
sg49
I00
sg19
(lp2276
g2238
ag1968
asg43
Nsg2238
g0
(g44
g2
Ntp2277
Rp2278
(dp2279
g42
I00
sg48
I01
sg49
I00
sg50
VSiStripLatencyRcd
p2280
sbsg1968
g0
(g44
g2
Ntp2281
Rp2282
(dp2283
g42
I00
sg48
I00
sg49
I00
sg50
g59
sbsbsg49
I00
sg2271
g0
(g223
g2
Ntp2284
Rp2285
(dp2286
g42
I00
sg48
I01
sg49
I00
sg19
(lp2287
g2238
ag1968
asg43
Nsg2238
g0
(g44
g2
Ntp2288
Rp2289
(dp2290
g42
I00
sg48
I01
sg49
I00
sg50
VSiStripBackPlaneCorrectionRcd
p2291
sbsg1968
g0
(g44
g2
Ntp2292
Rp2293
(dp2294
g42
I00
sg48
I00
sg49
I00
sg50
Vpeak
p2295
sbsbsg2272
g0
(g223
g2
Ntp2296
Rp2297
(dp2298
g42
I00
sg48
I01
sg49
I00
sg19
(lp2299
g2238
ag1968
asg43
Nsg2238
g0
(g44
g2
Ntp2300
Rp2301
(dp2302
g42
I00
sg48
I01
sg49
I00
sg50
g2291
sbsg1968
g0
(g44
g2
Ntp2303
Rp2304
(dp2305
g42
I00
sg48
I00
sg49
I00
sg50
Vdeconvolution
p2306
sbsbsg139
g162
sg141
I55
sg142
g2264
sbsVsiStripGainESProducer
p2307
g0
(g1543
g2
Ntp2308
Rp2309
(dp2310
g17
VSiStripGainESProducer
p2311
sg19
(lp2312
g637
aVprintDebug
p2313
aVAutomaticNormalization
p2314
aVAPVGain
p2315
asg42
I00
sg43
Nsg637
g0
(g44
g2
Ntp2316
Rp2317
(dp2318
g42
I00
sg48
I01
sg49
I00
sg50
g59
sbsg49
I00
sg2313
g0
(g120
g2
Ntp2319
Rp2320
(dp2321
g42
I00
sg48
I00
sg49
I00
sg50
I00
sbsg2314
g0
(g120
g2
Ntp2322
Rp2323
(dp2324
g42
I00
sg48
I01
sg49
I00
sg50
I00
sbsg2315
g0
(g605
g93
(lp2325
g0
(g223
g2
Ntp2326
Rp2327
(dp2328
g42
I00
sg48
I01
sg49
I00
sg19
(lp2329
VRecord
p2330
aVLabel
p2331
aVNormalizationFactor
p2332
asg43
Nsg2330
g0
(g44
g2
Ntp2333
Rp2334
(dp2335
g42
I00
sg48
I01
sg49
I00
sg50
VSiStripApvGainRcd
p2336
sbsg2331
g0
(g44
g2
Ntp2337
Rp2338
(dp2339
g42
I00
sg48
I00
sg49
I00
sg50
g59
sbsg2332
g0
(g78
g2
Ntp2340
Rp2341
(dp2342
g42
I00
sg48
I00
sg49
I00
sg50
F1.0
sbsbag0
(g223
g2
Ntp2343
Rp2344
(dp2345
g42
I00
sg48
I01
sg49
I00
sg19
(lp2346
g2330
ag2331
ag2332
asg43
Nsg2330
g0
(g44
g2
Ntp2347
Rp2348
(dp2349
g42
I00
sg48
I01
sg49
I00
sg50
VSiStripApvGain2Rcd
p2350
sbsg2331
g0
(g44
g2
Ntp2351
Rp2352
(dp2353
g42
I00
sg48
I00
sg49
I00
sg50
g59
sbsg2332
g0
(g78
g2
Ntp2354
Rp2355
(dp2356
g42
I00
sg48
I00
sg49
I00
sg50
F1.0
sbsbatp2357
Rp2358
(dp2359
g42
I00
sg48
I01
sg49
I00
sg103
I1
sbsg139
g162
sg141
I55
sg142
g2307
sbsVsiStripLorentzAngleDepESProducer
p2360
g0
(g1543
g2
Ntp2361
Rp2362
(dp2363
g17
VSiStripLorentzAngleDepESProducer
p2364
sg19
(lp2365
g2270
aVLorentzAnglePeakMode
p2366
aVLorentzAngleDeconvMode
p2367
asg42
I00
sg43
Nsg2270
g0
(g223
g2
Ntp2368
Rp2369
(dp2370
g42
I00
sg48
I01
sg49
I00
sg19
(lp2371
g2238
ag1968
asg43
Nsg2238
g0
(g44
g2
Ntp2372
Rp2373
(dp2374
g42
I00
sg48
I01
sg49
I00
sg50
g2280
sbsg1968
g0
(g44
g2
Ntp2375
Rp2376
(dp2377
g42
I00
sg48
I00
sg49
I00
sg50
g59
sbsbsg49
I00
sg2366
g0
(g223
g2
Ntp2378
Rp2379
(dp2380
g42
I00
sg48
I01
sg49
I00
sg19
(lp2381
g2238
ag1968
asg43
Nsg2238
g0
(g44
g2
Ntp2382
Rp2383
(dp2384
g42
I00
sg48
I01
sg49
I00
sg50
VSiStripLorentzAngleRcd
p2385
sbsg1968
g0
(g44
g2
Ntp2386
Rp2387
(dp2388
g42
I00
sg48
I00
sg49
I00
sg50
g2295
sbsbsg2367
g0
(g223
g2
Ntp2389
Rp2390
(dp2391
g42
I00
sg48
I01
sg49
I00
sg19
(lp2392
g2238
ag1968
asg43
Nsg2238
g0
(g44
g2
Ntp2393
Rp2394
(dp2395
g42
I00
sg48
I01
sg49
I00
sg50
g2385
sbsg1968
g0
(g44
g2
Ntp2396
Rp2397
(dp2398
g42
I00
sg48
I00
sg49
I00
sg50
g2306
sbsbsg139
g162
sg141
I55
sg142
g2360
sbsVsiStripQualityESProducer
p2399
g0
(g1543
g2
Ntp2400
Rp2401
(dp2402
g17
VSiStripQualityESProducer
p2403
sg19
(lp2404
g637
ag2226
aVReduceGranularity
p2405
aVThresholdForReducedGranularity
p2406
aVPrintDebugOutput
p2407
aVUseEmptyRunInfo
p2408
asg42
I00
sg43
Nsg637
g0
(g44
g2
Ntp2409
Rp2410
(dp2411
g42
I00
sg48
I01
sg49
I00
sg50
g59
sbsg49
I01
sg2226
g0
(g605
g93
(lp2412
g0
(g223
g2
Ntp2413
Rp2414
(dp2415
g42
I00
sg48
I01
sg49
I00
sg19
(lp2416
g2238
ag2239
asg43
Nsg2238
g0
(g44
g2
Ntp2417
Rp2418
(dp2419
g42
I00
sg48
I01
sg49
I00
sg50
VSiStripDetVOffRcd
p2420
sbsg2239
g0
(g44
g2
Ntp2421
Rp2422
(dp2423
g42
I00
sg48
I01
sg49
I00
sg50
g59
sbsbag0
(g223
g2
Ntp2424
Rp2425
(dp2426
g42
I00
sg48
I01
sg49
I00
sg19
(lp2427
g2238
ag2239
asg43
Nsg2238
g0
(g44
g2
Ntp2428
Rp2429
(dp2430
g42
I00
sg48
I01
sg49
I00
sg50
VSiStripDetCablingRcd
p2431
sbsg2239
g0
(g44
g2
Ntp2432
Rp2433
(dp2434
g42
I00
sg48
I01
sg49
I00
sg50
g59
sbsbag0
(g223
g2
Ntp2435
Rp2436
(dp2437
g42
I00
sg48
I01
sg49
I00
sg19
(lp2438
g2238
ag2239
asg43
Nsg2238
g0
(g44
g2
Ntp2439
Rp2440
(dp2441
g42
I00
sg48
I01
sg49
I00
sg50
VRunInfoRcd
p2442
sbsg2239
g0
(g44
g2
Ntp2443
Rp2444
(dp2445
g42
I00
sg48
I01
sg49
I00
sg50
g59
sbsbag0
(g223
g2
Ntp2446
Rp2447
(dp2448
g42
I00
sg48
I01
sg49
I00
sg19
(lp2449
g2238
ag2239
asg43
Nsg2238
g0
(g44
g2
Ntp2450
Rp2451
(dp2452
g42
I00
sg48
I01
sg49
I00
sg50
VSiStripBadChannelRcd
p2453
sbsg2239
g0
(g44
g2
Ntp2454
Rp2455
(dp2456
g42
I00
sg48
I01
sg49
I00
sg50
g59
sbsbag0
(g223
g2
Ntp2457
Rp2458
(dp2459
g42
I00
sg48
I01
sg49
I00
sg19
(lp2460
g2238
ag2239
asg43
Nsg2238
g0
(g44
g2
Ntp2461
Rp2462
(dp2463
g42
I00
sg48
I01
sg49
I00
sg50
VSiStripBadFiberRcd
p2464
sbsg2239
g0
(g44
g2
Ntp2465
Rp2466
(dp2467
g42
I00
sg48
I01
sg49
I00
sg50
g59
sbsbag0
(g223
g2
Ntp2468
Rp2469
(dp2470
g42
I00
sg48
I01
sg49
I00
sg19
(lp2471
g2238
ag2239
asg43
Nsg2238
g0
(g44
g2
Ntp2472
Rp2473
(dp2474
g42
I00
sg48
I01
sg49
I00
sg50
VSiStripBadModuleRcd
p2475
sbsg2239
g0
(g44
g2
Ntp2476
Rp2477
(dp2478
g42
I00
sg48
I01
sg49
I00
sg50
g59
sbsbag0
(g223
g2
Ntp2479
Rp2480
(dp2481
g42
I00
sg48
I01
sg49
I00
sg19
(lp2482
g2238
ag2239
asg43
Nsg2238
g0
(g44
g2
Ntp2483
Rp2484
(dp2485
g42
I00
sg48
I01
sg49
I00
sg50
VSiStripBadStripRcd
p2486
sbsg2239
g0
(g44
g2
Ntp2487
Rp2488
(dp2489
g42
I00
sg48
I01
sg49
I00
sg50
g59
sbsbatp2490
Rp2491
(dp2492
g42
I00
sg48
I01
sg49
I00
sg103
I1
sbsg2405
g0
(g120
g2
Ntp2493
Rp2494
(dp2495
g42
I00
sg48
I01
sg49
I00
sg50
I00
sbsg2406
g0
(g78
g2
Ntp2496
Rp2497
(dp2498
g42
I00
sg48
I01
sg49
I00
sg50
F0.3
sbsg2407
g0
(g120
g2
Ntp2499
Rp2500
(dp2501
g42
I00
sg48
I01
sg49
I00
sg50
I00
sbsg2408
g0
(g120
g2
Ntp2502
Rp2503
(dp2504
g42
I00
sg48
I01
sg49
I00
sg50
I00
sbsg139
g162
sg141
I55
sg142
g2399
sbsVsistripconn
p2505
g0
(g1543
g2
Ntp2506
Rp2507
(dp2508
g17
VSiStripConnectivity
p2509
sg19
(lp2510
sg42
I00
sg43
Nsg49
I00
sg139
g162
sg141
I55
sg142
g2505
sbsVstripCPEESProducer
p2511
g0
(g1543
g2
Ntp2512
Rp2513
(dp2514
g17
g2045
sg19
(lp2515
g2028
ag2047
ag2048
asg42
I00
sg43
Nsg2028
g0
(g44
g2
Ntp2516
Rp2517
(dp2518
g42
I00
sg48
I01
sg49
I00
sg50
VstripCPE
p2519
sbsg49
I00
sg2047
g0
(g44
g2
Ntp2520
Rp2521
(dp2522
g42
I00
sg48
I01
sg49
I00
sg50
VSimpleStripCPE
p2523
sbsg2048
g0
(g223
g2
Ntp2524
Rp2525
(dp2526
g42
I00
sg48
I01
sg49
I00
sg19
(lp2527
sg43
Nsbsg139
g162
sg141
I55
sg142
g2511
sbssV_Process__esprefers
p2528
(dp2529
Ves_prefer_hcalHardcode
p2530
g0
(cFWCore.ParameterSet.Modules
ESPrefer
p2531
g2
Ntp2532
Rp2533
(dp2534
g17
g806
sg19
(lp2535
sg42
I00
sg43
Nsg49
I00
sg139
g162
sg141
I91
sV_targetLabel
p2536
g802
sg142
g2530
sbssV_Process__aliases
p2537
(dp2538
sV_Process__psets
p2539
(dp2540
Voptions
p2541
g0
(g223
g2
Ntp2542
Rp2543
(dp2544
g42
I00
sg48
I00
sg49
I00
sg19
(lp2545
VnumberOfThreads
p2546
aVnumberOfStreams
p2547
aVnumberOfConcurrentRuns
p2548
aVnumberOfConcurrentLuminosityBlocks
p2549
aVeventSetup
p2550
aVaccelerators
p2551
aVwantSummary
p2552
aVfileMode
p2553
aVforceEventSetupCacheClearOnNewRun
p2554
aVthrowIfIllegalParameter
p2555
aVprintDependencies
p2556
aVdeleteNonConsumedUnscheduledModules
p2557
aVsizeOfStackForThreadsInKB
p2558
aVRethrow
p2559
aVSkipEvent
p2560
aVFailPath
p2561
aVIgnoreCompletely
p2562
aVcanDeleteEarly
p2563
aVholdsReferencesToDeleteEarly
p2564
aVmodulesToIgnoreForDeleteEarly
p2565
aVdumpOptions
p2566
aVallowUnscheduled
p2567
aVemptyRunLumiMode
p2568
aVmakeTriggerResults
p2569
asg43
Nsg2546
g0
(g2011
g2
Ntp2570
Rp2571
(dp2572
g42
I00
sg48
I00
sg49
I00
sg50
I1
sbsg2547
g0
(g2011
g2
Ntp2573
Rp2574
(dp2575
g42
I00
sg48
I00
sg49
I00
sg50
I0
sbsg2548
g0
(g2011
g2
Ntp2576
Rp2577
(dp2578
g42
I00
sg48
I00
sg49
I00
sg50
I1
sbsg2549
g0
(g2011
g2
Ntp2579
Rp2580
(dp2581
g42
I00
sg48
I00
sg49
I00
sg50
I0
sbsg2550
g0
(g223
g2
Ntp2582
Rp2583
(dp2584
g42
I00
sg48
I00
sg49
I00
sg19
(lp2585
VnumberOfConcurrentIOVs
p2586
aVforceNumberOfConcurrentIOVs
p2587
asg43
Nsg2586
g0
(g2011
g2
Ntp2588
Rp2589
(dp2590
g42
I00
sg48
I00
sg49
I00
sg50
I0
sbsg2587
g0
(g223
g2
Ntp2591
Rp2592
(dp2593
g42
I00
sg48
I00
sg49
I00
sg19
(lp2594
sg43
g0
(cFWCore.ParameterSet.Types
_RequiredParameter
p2595
g2
Ntp2596
Rp2597
(dp2598
g42
I00
sg48
I00
sg49
I00
sg137
g2011
sg138
Nsbsbsbsg2551
g0
(g92
g93
(lp2599
V*
p2600
atp2601
Rp2602
(dp2603
g42
I00
sg48
I00
sg49
I00
sg103
I1
sbsg2552
g0
(g120
g2
Ntp2604
Rp2605
(dp2606
g42
I00
sg48
I00
sg49
I00
sg50
I00
sbsg2553
g0
(g44
g2
Ntp2607
Rp2608
(dp2609
g42
I00
sg48
I00
sg49
I00
sg50
VFULLMERGE
p2610
sbsg2554
g0
(g120
g2
Ntp2611
Rp2612
(dp2613
g42
I00
sg48
I00
sg49
I00
sg50
I00
sbsg2555
g0
(g120
g2
Ntp2614
Rp2615
(dp2616
g42
I00
sg48
I00
sg49
I00
sg50
I01
sbsg2556
g0
(g120
g2
Ntp2617
Rp2618
(dp2619
g42
I00
sg48
I00
sg49
I00
sg50
I00
sbsg2557
g0
(g120
g2
Ntp2620
Rp2621
(dp2622
g42
I00
sg48
I00
sg49
I00
sg50
I01
sbsg2558
g0
(g133
g2
Ntp2623
Rp2624
(dp2625
g42
I00
sg48
I00
sg49
I00
sg137
g2011
sg138
Nsbsg2559
g0
(g92
g93
(lp2626
tp2627
Rp2628
(dp2629
g42
I00
sg48
I00
sg49
I00
sg103
I1
sbsg2560
g0
(g92
g93
(lp2630
tp2631
Rp2632
(dp2633
g42
I00
sg48
I00
sg49
I00
sg103
I1
sbsg2561
g0
(g92
g93
(lp2634
tp2635
Rp2636
(dp2637
g42
I00
sg48
I00
sg49
I00
sg103
I1
sbsg2562
g0
(g92
g93
(lp2638
tp2639
Rp2640
(dp2641
g42
I00
sg48
I00
sg49
I00
sg103
I1
sbsg2563
g0
(g92
g93
(lp2642
tp2643
Rp2644
(dp2645
g42
I00
sg48
I00
sg49
I00
sg103
I1
sbsg2564
g0
(g605
g93
(lp2646
tp2647
Rp2648
(dp2649
g42
I00
sg48
I00
sg49
I00
sg103
I1
sbsg2565
g0
(g92
g93
(lp2650
tp2651
Rp2652
(dp2653
g42
I00
sg48
I00
sg49
I00
sg103
I1
sbsg2566
g0
(g120
g2
Ntp2654
Rp2655
(dp2656
g42
I00
sg48
I00
sg49
I00
sg50
I00
sbsg2567
g0
(cFWCore.ParameterSet.Types
_ObsoleteParameter
p2657
g2
Ntp2658
Rp2659
(dp2660
g42
I00
sg48
I00
sg49
I00
sg137
g120
sg138
Nsbsg2568
g0
(g2657
g2
Ntp2661
Rp2662
(dp2663
g42
I00
sg48
I00
sg49
I00
sg137
g44
sg138
Nsbsg2569
g0
(g2657
g2
Ntp2664
Rp2665
(dp2666
g42
I00
sg48
I00
sg49
I00
sg137
g120
sg138
Nsbsg142
g2541
sbsVmaxLuminosityBlocks
p2667
g0
(g223
g2
Ntp2668
Rp2669
(dp2670
g42
I00
sg48
I00
sg49
I00
sg19
(lp2671
Vinput
p2672
asg43
Nsg2672
g0
(g310
g2
Ntp2673
Rp2674
(dp2675
g42
I00
sg48
I00
sg49
I00
sg50
I-1
sbsg142
g2667
sbsVCondDB
p2676
g0
(g223
g2
Ntp2677
Rp2678
(dp2679
g42
I00
sg48
I01
sg49
I00
sg19
(lp2680
g558
ag559
asg43
Nsg558
g0
(g223
g2
Ntp2681
Rp2682
(dp2683
g42
I00
sg48
I01
sg49
I00
sg19
(lp2684
g574
ag575
ag576
ag577
ag578
asg43
Nsg574
g0
(g44
g2
Ntp2685
Rp2686
(dp2687
g42
I00
sg48
I00
sg49
I00
sg50
g59
sbsg575
g0
(g310
g2
Ntp2688
Rp2689
(dp2690
g42
I00
sg48
I00
sg49
I00
sg50
I0
sbsg576
g0
(g44
g2
Ntp2691
Rp2692
(dp2693
g42
I00
sg48
I00
sg49
I00
sg50
g59
sbsg577
g0
(g310
g2
Ntp2694
Rp2695
(dp2696
g42
I00
sg48
I00
sg49
I00
sg50
I0
sbsg578
g0
(g310
g2
Ntp2697
Rp2698
(dp2699
g42
I00
sg48
I00
sg49
I00
sg50
I0
sbsbsg559
g0
(g44
g2
Ntp2700
Rp2701
(dp2702
g42
I00
sg48
I01
sg49
I00
sg50
g59
sbsg142
g2676
sbsg816
g868
sVmaxEvents
p2703
g0
(g223
g2
Ntp2704
Rp2705
(dp2706
g42
I00
sg48
I00
sg49
I01
sg19
(lp2707
g2672
ag495
asg43
Nsg2672
g0
(g133
g2
Ntp2708
Rp2709
(dp2710
g42
I00
sg48
I00
sg49
I00
sg137
g310
sg138
g0
(g310
g2
Ntp2711
Rp2712
(dp2713
g42
I00
sg48
I00
sg49
I00
sg50
I-1
sbsbsg495
g0
(g133
g2
Ntp2714
Rp2715
(dp2716
g42
I00
sg48
I00
sg49
I00
sg137
g0
(cFWCore.ParameterSet.Types
_AllowedParameterTypes
p2717
g2
Ntp2718
Rp2719
(dp2720
V_AllowedParameterTypes__types
p2721
(g310
g223
tp2722
sV_default
p2723
NsV__name__
p2724
Vallowed(cms.int32,cms.PSet)
p2725
sbsg138
Nsbsg142
g2703
sbsVNANOAODEventContent
p2726
g0
(g223
g2
Ntp2727
Rp2728
(dp2729
g42
I00
sg48
I01
sg49
I00
sg19
(lp2730
g205
aVcompressionLevel
p2731
aVcompressionAlgorithm
p2732
asg43
Nsg205
g221
sg2731
g0
(g310
g2
Ntp2733
Rp2734
(dp2735
g42
I00
sg48
I00
sg49
I00
sg50
I9
sbsg2732
g0
(g44
g2
Ntp2736
Rp2737
(dp2738
g42
I00
sg48
I00
sg49
I00
sg50
VLZMA
p2739
sbsg142
g2726
sbsVNANOAODGENEventContent
p2740
g0
(g223
g2
Ntp2741
Rp2742
(dp2743
g42
I00
sg48
I01
sg49
I00
sg19
(lp2744
g2731
ag2732
ag205
asg43
Nsg2731
g0
(g310
g2
Ntp2745
Rp2746
(dp2747
g42
I00
sg48
I00
sg49
I00
sg50
I9
sbsg2732
g0
(g44
g2
Ntp2748
Rp2749
(dp2750
g42
I00
sg48
I00
sg49
I00
sg50
g2739
sbsg205
g0
(g92
g93
(lp2751
g212
ag213
ag215
ag216
ag217
atp2752
Rp2753
(dp2754
g42
I00
sg48
I00
sg49
I00
sg103
I1
sbsg142
g2740
sbsVNANOAODSIMEventContent
p2755
g0
(g223
g2
Ntp2756
Rp2757
(dp2758
g42
I00
sg48
I01
sg49
I00
sg19
(lp2759
g205
ag2731
ag2732
asg43
Nsg205
g0
(g92
g93
(lp2760
g212
ag213
ag214
ag215
ag216
ag217
atp2761
Rp2762
(dp2763
g42
I00
sg48
I00
sg49
I00
sg103
I1
sbsg2731
g0
(g310
g2
Ntp2764
Rp2765
(dp2766
g42
I00
sg48
I00
sg49
I00
sg50
I9
sbsg2732
g0
(g44
g2
Ntp2767
Rp2768
(dp2769
g42
I00
sg48
I00
sg49
I00
sg50
g2739
sbsg142
g2755
sbsVNanoAODEDMEventContent
p2770
g0
(g223
g2
Ntp2771
Rp2772
(dp2773
g42
I00
sg48
I01
sg49
I00
sg19
(lp2774
g205
asg43
Nsg205
g0
(g92
g93
(lp2775
g212
ag213
ag214
ag215
ag216
ag217
atp2776
Rp2777
(dp2778
g42
I00
sg48
I00
sg49
I00
sg103
I1
sbsg142
g2770
sbssV_Process__vpsets
p2779
(dp2780
sV_cloneToObjectDict
p2781
(dp2782
L139986933907360L
g2543
sL139986920867968L
g0
(g223
g2
Ntp2783
Rp2784
(dp2785
g42
I00
sg48
I00
sg49
I00
sg19
(lp2786
g2672
ag495
asg43
Nsg2672
g0
(g133
g2
Ntp2787
Rp2788
(dp2789
g42
I00
sg48
I00
sg49
I00
sg137
g310
sg138
Nsbsg495
g0
(g133
g2
Ntp2790
Rp2791
(dp2792
g42
I00
sg48
I00
sg49
I00
sg137
g0
(g2717
g2
Ntp2793
Rp2794
(dp2795
g2721
(g310
g223
tp2796
sg2723
Nsg2724
Vallowed(cms.int32,cms.PSet)
p2797
sbsg138
Nsbsg142
NsbsL139986920867920L
g2669
sL139986919945024L
g1545
sL139986923503680L
g1589
sL139986934403136L
g1605
sL139986923505456L
g1610
sL139986923507184L
g1618
sL139986930236720L
g1623
sL139986919906704L
g1631
sL139986923504688L
g1668
sL139986934406640L
g1676
sL139986923505216L
g1681
sL139986923504976L
g1689
sL139986934406352L
g1697
sL139986934406064L
g1707
sL139986923506560L
g1712
sL139986923505984L
g1717
sL139986934406976L
g1725
sL139986919944496L
g1730
sL139986919945984L
g1741
sL139986930235424L
g1750
sL139986930236864L
g532
sL139986920946368L
g1758
sL139986920944880L
g1769
sL139986920944688L
g1778
sL139986923503824L
g1787
sL139986930234752L
g1804
sL139986920947472L
g1841
sL139986930235616L
g1871
sL139986934406256L
g1890
sL139986934404048L
g1902
sL139986919905408L
g1919
sL139986934404480L
g1934
sL139986922166784L
g1943
sL139986931595440L
g1963
sL139986931595200L
g1983
sL139986922267888L
g1999
sL139986920060816L
g2678
sL139986931596544L
g2007
sL139986931596064L
g2017
sL139986920062160L
g554
sL139986922267984L
g868
sL139986922268464L
g634
sL139986917149088L
g2025
sL139986917148224L
g2043
sL139986916677520L
g2115
sL139986916678048L
g2180
sL139986917059024L
g804
sL139986917059264L
g2533
sL139986930110080L
g2196
sL139986916653424L
g2211
sL139986916653616L
g2220
sL139986917108752L
g2266
sL139986917107072L
g2309
sL139986917107840L
g2362
sL139986916651840L
g2401
sL139986923762016L
g2507
sL139986917147168L
g2513
sL139986916679536L
g15
sL139986916700320L
g2705
sL139986932321968L
g171
sL139986916701232L
g2728
sL139986916702528L
g2742
sL139986916701136L
g2757
sL139986916701376L
g2772
sL139986916700896L
g200
sL139986916700944L
g192
ssV_Process__InExtendCall
p2798
I00
sV_Process__partialschedules
p2799
(dp2800
sV_Process__isStrict
p2801
I00
sV_Process__modifiers
p2802
(g0
(cFWCore.ParameterSet.Config
ModifierChain
p2803
g2
Ntp2804
Rp2805
(dp2806
V_ModifierChain__chosen
p2807
I01
sV_ModifierChain__chain
p2808
(g0
(g2803
g2
Ntp2809
Rp2810
(dp2811
g2807
I01
sg2808
(g0
(g2803
g2
Ntp2812
Rp2813
(dp2814
g2807
I01
sg2808
(g0
(g2803
g2
Ntp2815
Rp2816
(dp2817
g2807
I01
sg2808
(g0
(cFWCore.ParameterSet.Config
Modifier
p2818
g2
Ntp2819
Rp2820
(dp2821
V_Modifier__processModifiers
p2822
(lp2823
sV_Modifier__chosen
p2824
I01
sbg0
(g2818
g2
Ntp2825
Rp2826
(dp2827
g2822
(lp2828
sg2824
I01
sbg0
(g2818
g2
Ntp2829
Rp2830
(dp2831
g2822
(lp2832
sg2824
I01
sbg0
(g2818
g2
Ntp2833
Rp2834
(dp2835
g2822
(lp2836
sg2824
I01
sbg0
(g2818
g2
Ntp2837
Rp2838
(dp2839
g2822
(lp2840
sg2824
I01
sbtp2841
sbg0
(g2818
g2
Ntp2842
Rp2843
(dp2844
g2822
(lp2845
sg2824
I01
sbg0
(g2818
g2
Ntp2846
Rp2847
(dp2848
g2822
(lp2849
sg2824
I01
sbg0
(g2818
g2
Ntp2850
Rp2851
(dp2852
g2822
(lp2853
sg2824
I01
sbg0
(g2818
g2
Ntp2854
Rp2855
(dp2856
g2822
(lp2857
sg2824
I01
sbg0
(g2818
g2
Ntp2858
Rp2859
(dp2860
g2822
(lp2861
sg2824
I01
sbg0
(g2818
g2
Ntp2862
Rp2863
(dp2864
g2822
(lp2865
sg2824
I01
sbg0
(g2818
g2
Ntp2866
Rp2867
(dp2868
g2822
(lp2869
sg2824
I01
sbg0
(g2803
g2
Ntp2870
Rp2871
(dp2872
g2807
I01
sg2808
(g0
(g2818
g2
Ntp2873
Rp2874
(dp2875
g2822
(lp2876
sg2824
I01
sbg0
(g2818
g2
Ntp2877
Rp2878
(dp2879
g2822
(lp2880
sg2824
I01
sbg0
(g2818
g2
Ntp2881
Rp2882
(dp2883
g2822
(lp2884
sg2824
I01
sbg0
(g2818
g2
Ntp2885
Rp2886
(dp2887
g2822
(lp2888
sg2824
I01
sbg0
(g2818
g2
Ntp2889
Rp2890
(dp2891
g2822
(lp2892
sg2824
I01
sbg0
(g2818
g2
Ntp2893
Rp2894
(dp2895
g2822
(lp2896
sg2824
I01
sbtp2897
sbg0
(g2818
g2
Ntp2898
Rp2899
(dp2900
g2822
(lp2901
sg2824
I01
sbtp2902
sbg0
(g2818
g2
Ntp2903
Rp2904
(dp2905
g2822
(lp2906
sg2824
I01
sbg0
(g2818
g2
Ntp2907
Rp2908
(dp2909
g2822
(lp2910
sg2824
I01
sbg0
(g2818
g2
Ntp2911
Rp2912
(dp2913
g2822
(lp2914
sg2824
I01
sbg0
(g2818
g2
Ntp2915
Rp2916
(dp2917
g2822
(lp2918
sg2824
I01
sbg0
(g2818
g2
Ntp2919
Rp2920
(dp2921
g2822
(lp2922
sg2824
I01
sbg0
(g2818
g2
Ntp2923
Rp2924
(dp2925
g2822
(lp2926
sg2824
I01
sbg0
(g2818
g2
Ntp2927
Rp2928
(dp2929
g2822
(lp2930
sg2824
I01
sbg0
(g2818
g2
Ntp2931
Rp2932
(dp2933
g2822
(lp2934
sg2824
I01
sbg0
(g2818
g2
Ntp2935
Rp2936
(dp2937
g2822
(lp2938
sg2824
I01
sbtp2939
sbg0
(g2818
g2
Ntp2940
Rp2941
(dp2942
g2822
(lp2943
sg2824
I01
sbg0
(g2818
g2
Ntp2944
Rp2945
(dp2946
g2822
(lp2947
sg2824
I01
sbg0
(g2818
g2
Ntp2948
Rp2949
(dp2950
g2822
(lp2951
sg2824
I01
sbg0
(g2818
g2
Ntp2952
Rp2953
(dp2954
g2822
(lp2955
sg2824
I01
sbg0
(g2818
g2
Ntp2956
Rp2957
(dp2958
g2822
(lp2959
sg2824
I01
sbg0
(g2818
g2
Ntp2960
Rp2961
(dp2962
g2822
(lp2963
sg2824
I01
sbg0
(g2818
g2
Ntp2964
Rp2965
(dp2966
g2822
(lp2967
sg2824
I01
sbg0
(g2818
g2
Ntp2968
Rp2969
(dp2970
g2822
(lp2971
sg2824
I01
sbg0
(g2818
g2
Ntp2972
Rp2973
(dp2974
g2822
(lp2975
sg2824
I01
sbtp2976
sbtp2977
sV_Process__accelerators
p2978
(dp2979
sg2541
g2543
sg2667
g2669
sg280
g283
sg1542
g1545
sg1587
g1589
sg1603
g1605
sg1608
g1610
sg1616
g1618
sg1621
g1623
sg1629
g1631
sg1666
g1668
sg1674
g1676
sg1679
g1681
sg1687
g1689
sg1695
g1697
sg1705
g1707
sg1710
g1712
sg1715
g1717
sg1723
g1725
sg1728
g1730
sg1739
g1741
sg1748
g1750
sg529
g532
sg1756
g1758
sg1767
g1769
sg1776
g1778
sg1785
g1787
sg1802
g1804
sg1839
g1841
sg1869
g1871
sg1888
g1890
sg1900
g1902
sg1917
g1919
sg1932
g1934
sg1941
g1943
sg1961
g1963
sg1981
g1983
sg1997
g1999
sg2676
g2678
sg2005
g2007
sg2015
g2017
sg552
g554
sg816
g868
sg632
g634
sg2023
g2025
sg2041
g2043
sg2113
g2115
sg2178
g2180
sg802
g804
sg2530
g2533
sg2194
g2196
sg2209
g2211
sg2218
g2220
sg2264
g2266
sg2307
g2309
sg2360
g2362
sg2399
g2401
sg2505
g2507
sg2511
g2513
sg12
g15
sg2703
g2705
sVsource
p2980
g148
sg150
g148
sg189
g171
sg2726
g2728
sg2740
g2742
sg2755
g2757
sg2770
g2772
sg233
g200
sg185
g192
sVschedule
p2981
g240
sb.