ccopy_reg
_reconstructor
p0
(cFWCore.ParameterSet.Config
Process
p1
c__builtin__
object
p2
Ntp3
Rp4
(dp5
V_Process__name
p6
VRPCTnP
p7
sV_Process__filters
p8
(dp9
sV_Process__producers
p10
(dp11
VmuRPCTnPFlatTableProducer
p12
g0
(cFWCore.ParameterSet.Modules
EDProducer
p13
g2
Ntp14
Rp15
(dp16
V_TypedParameterizable__type
p17
VMuRPCTnPFlatTableProducer
p18
sV_Parameterizable__parameterNames
p19
(lp20
Vname
p21
aVprimaryVertexCollectionTag
p22
aVtriggerResultsTag
p23
aVtriggerEventTag
p24
aVmuonCollectionTag
p25
aVrpcRecHitCollectionTag
p26
aVtagMuonMinPt
p27
aVtagMuonMaxAbsEta
p28
aVtagMuonIdType
p29
aVtagMuonMaxRelIso
p30
aVtagMuonTriggerMatchingPaths
p31
aVtagMuonTriggerMatchingMaxDeltaR
p32
aVtagMuonTriggerMatchingMaxDeltaPtRel
p33
aVprobeMuonMinPt
p34
aVprobeMuonMaxAbsEta
p35
aVprobeMuonIdType
p36
aVdimuonCheckOppositeSign
p37
aVdimuonMinDeltaR
p38
aVdimuonMinMass
p39
aVdimuonMaxMass
p40
aVmightGet
p41
asV_isFrozen
p42
I00
sV_Parameterizable__validator
p43
Nsg21
g0
(cFWCore.ParameterSet.Types
string
p44
g2
Ntp45
Rp46
(dp47
g42
I00
sV_ParameterTypeBase__isTracked
p48
I01
sV_isModified
p49
I00
sV_value
p50
VrpcTnP
p51
sbsg49
I01
sg22
g0
(cFWCore.ParameterSet.Types
InputTag
p52
g2
Ntp53
Rp54
(dp55
g42
I00
sg48
I01
sg49
I00
sV_InputTag__moduleLabel
p56
VofflinePrimaryVertices
p57
sV_InputTag__productInstance
p58
V
p59
sV_InputTag__processName
p60
g59
sbsg23
g0
(g52
g2
Ntp61
Rp62
(dp63
g42
I00
sg48
I01
sg49
I00
sg56
VTriggerResults
p64
sg58
g59
sg60
VHLT
p65
sbsg24
g0
(g52
g2
Ntp66
Rp67
(dp68
g42
I00
sg48
I01
sg49
I00
sg56
VhltTriggerSummaryAOD
p69
sg58
g59
sg60
g65
sbsg25
g0
(g52
g2
Ntp70
Rp71
(dp72
g42
I00
sg48
I01
sg49
I00
sg56
Vmuons
p73
sg58
g59
sg60
g59
sbsg26
g0
(g52
g2
Ntp74
Rp75
(dp76
g42
I00
sg48
I01
sg49
I00
sg56
VrpcRecHits
p77
sg58
g59
sg60
g59
sbsg27
g0
(cFWCore.ParameterSet.Types
double
p78
g2
Ntp79
Rp80
(dp81
g42
I00
sg48
I01
sg49
I00
sg50
I30
sbsg28
g0
(g78
g2
Ntp82
Rp83
(dp84
g42
I00
sg48
I01
sg49
I00
sg50
F2.4
sbsg29
g0
(g44
g2
Ntp85
Rp86
(dp87
g42
I00
sg48
I01
sg49
I00
sg50
Vtight
p88
sbsg30
g0
(g78
g2
Ntp89
Rp90
(dp91
g42
I00
sg48
I01
sg49
I00
sg50
F0.25
sbsg31
g0
(cFWCore.ParameterSet.Types
vstring
p92
c__builtin__
list
p93
(lp94
VHLT_IsoMu24
p95
aVHLT_IsoMu27
p96
aVHLT_IsoMu30
p97
aVHLT_Mu50
p98
aVHLT_Mu55
p99
atp100
Rp101
(dp102
g42
I00
sg48
I01
sg49
I01
sV_nPerLine
p103
I1
sbsg32
g0
(g78
g2
Ntp104
Rp105
(dp106
g42
I00
sg48
I01
sg49
I00
sg50
F0.1
sbsg33
g0
(g78
g2
Ntp107
Rp108
(dp109
g42
I00
sg48
I01
sg49
I00
sg50
F0.5
sbsg34
g0
(g78
g2
Ntp110
Rp111
(dp112
g42
I00
sg48
I01
sg49
I00
sg50
I10
sbsg35
g0
(g78
g2
Ntp113
Rp114
(dp115
g42
I00
sg48
I01
sg49
I00
sg50
F2.1
sbsg36
g0
(g44
g2
Ntp116
Rp117
(dp118
g42
I00
sg48
I01
sg49
I00
sg50
Vtracker
p119
sbsg37
g0
(cFWCore.ParameterSet.Types
bool
p120
g2
Ntp121
Rp122
(dp123
g42
I00
sg48
I01
sg49
I00
sg50
I01
sbsg38
g0
(g78
g2
Ntp124
Rp125
(dp126
g42
I00
sg48
I01
sg49
I00
sg50
F0.1
sbsg39
g0
(g78
g2
Ntp127
Rp128
(dp129
g42
I00
sg48
I01
sg49
I00
sg50
I70
sbsg40
g0
(g78
g2
Ntp130
Rp131
(dp132
g42
I00
sg48
I01
sg49
I00
sg50
I110
sbsg41
g0
(cFWCore.ParameterSet.Types
_OptionalParameter
p133
g2
Ntp134
Rp135
(dp136
g42
I00
sg48
I00
sg49
I00
sV_ProxyParameter__type
p137
g92
sV_ProxyParameter__value
p138
NsbsV_filename
p139
V/afs/cern.ch/user/j/joshin/public/Efficiency/CMSSW_14_1_0_pre7/cfipython/el9_amd64_gcc12/DPGAnalysis/MuonTools/MuRPCTnPFlatTableProducer.py
p140
sV_lineNumber
p141
I4
sV_Labelable__label
p142
g12
sbssV_Process__switchproducers
p143
(dp144
sV_Process__source
p145
g0
(cFWCore.ParameterSet.Modules
Source
p146
g2
Ntp147
Rp148
(dp149
g17
VPoolSource
p150
sg19
(lp151
VfileNames
p152
aVsecondaryFileNames
p153
aVinputCommands
p154
asg42
I00
sg43
Nsg152
g0
(g92
g93
(lp155
tp156
Rp157
(dp158
g42
I00
sg48
I00
sg49
I00
sg103
I1
sbsg49
I00
sg153
g0
(g92
g93
(lp159
tp160
Rp161
(dp162
g42
I00
sg48
I00
sg49
I00
sg103
I1
sbsg154
g0
(g92
g93
(lp163
Vkeep *
p164
aVdrop TotemFEDInfos_totemT2Digis_TotemT2_RECO
p165
aVdrop TotemT2DigiedmNewDetSetVector_totemT2Digis_TotemT2_RECO
p166
aVdrop TotemVFATStatusedmDetSetVector_totemT2Digis_TotemT2_RECO
p167
aVdrop floatBXVector_gtStage2Digis_CICADAScore_RECO
p168
atp169
Rp170
(dp171
g42
I00
sg48
I00
sg49
I00
sg103
I1
sbsg139
V/cvmfs/cms.cern.ch/el9_amd64_gcc12/cms/cmssw/CMSSW_14_1_0_pre7/src/FWCore/ParameterSet/python/Modules.py
p172
sg141
I195
sbsV_Process__looper
p173
NsV_Process__subProcesses
p174
(lp175
sV_Process__schedule
p176
g0
(cFWCore.ParameterSet.SequenceTypes
Schedule
p177
g93
(lp178
g0
(cFWCore.ParameterSet.SequenceTypes
Path
p179
g2
Ntp180
Rp181
(dp182
g42
I00
sV_seq
p183
g0
(cFWCore.ParameterSet.SequenceTypes
_SequenceCollection
p184
g2
Ntp185
Rp186
(dp187
V_collection
p188
(lp189
g15
asbsg49
I00
sV_tasks
p190
g0
(cFWCore.ParameterSet.OrderedSet
OrderedSet
p191
g2
Ntp192
Rp193
(dp194
Vend
p195
(lp196
Nag196
ag196
asVmap
p197
(dp198
sbsg142
VrpcTnPPath
p199
sbag0
(cFWCore.ParameterSet.SequenceTypes
EndPath
p200
g2
Ntp201
Rp202
(dp203
g42
I00
sg183
g0
(g184
g2
Ntp204
Rp205
(dp206
g188
(lp207
g0
(cFWCore.ParameterSet.Modules
OutputModule
p208
g2
Ntp209
Rp210
(dp211
g17
VNanoAODOutputModule
p212
sg19
(lp213
VfileName
p214
aVoutputCommands
p215
aVSelectEvents
p216
asg42
I00
sg43
Nsg214
g0
(g44
g2
Ntp217
Rp218
(dp219
g42
I00
sg48
I00
sg49
I00
sg50
Voutput.root
p220
sbsg49
I00
sg215
g0
(g92
g93
(lp221
Vdrop *
p222
aVkeep nanoaodFlatTable_*Table_*_*
p223
aVkeep edmTriggerResults_*_*_*
p224
aVkeep String_*_genModel_*
p225
aVkeep nanoaodMergeableCounterTable_*Table_*_*
p226
aVkeep nanoaodUniqueString_nanoMetadata_*_*
p227
aVkeep nanoaodFlatTable_*_*_*
p228
aVdrop edmTriggerResults_*_*_*
p229
atp230
Rp231
(dp232
g42
I00
sg48
I00
sg49
I00
sg103
I1
sbsg216
g0
(cFWCore.ParameterSet.Types
PSet
p233
g2
Ntp234
Rp235
(dp236
g42
I00
sg48
I00
sg49
I00
sg19
(lp237
g216
asg43
Nsg216
g0
(g92
g93
(lp238
g199
atp239
Rp240
(dp241
g42
I00
sg48
I01
sg49
I00
sg103
I1
sbsbsg139
V/afs/cern.ch/user/j/joshin/public/Efficiency/CMSSW_14_1_0_pre7/src/RPCDPGAnalysis/NanoAODTnP/test/muRPCTnPFlatTableProducer_cfg.py
p242
sg141
I52
sg142
Vout
p243
sbasbsg49
I00
sg190
g0
(g191
g2
Ntp244
Rp245
(dp246
g195
(lp247
Nag247
ag247
asg197
(dp248
sbsg142
g195
sbatp249
Rp250
(dp251
g42
I00
sg48
I01
sg49
I00
sg190
g0
(g191
g2
Ntp252
Rp253
(dp254
g195
(lp255
Nag255
ag255
asg197
(dp256
sbsbsV_Process__analyzers
p257
(dp258
sV_Process__outputmodules
p259
(dp260
g243
g210
ssV_Process__paths
p261
g0
(cFWCore.ParameterSet.DictTypes
SortedKeysDict
p262
c__builtin__
dict
p263
(dp264
g199
g181
stp265
Rp266
(dp267
Vlist
p268
(lp269
g199
asbsV_Process__endpaths
p270
g0
(g262
g263
(dp271
g195
g202
stp272
Rp273
(dp274
g268
(lp275
g195
asbsV_Process__finalpaths
p276
g0
(g262
g263
(dp277
tp278
Rp279
(dp280
g268
(lp281
sbsV_Process__sequences
p282
(dp283
sV_Process__tasks
p284
(dp285
sV_Process__conditionaltasks
p286
(dp287
sV_Process__services
p288
(dp289
VMessageLogger
p290
g0
(cFWCore.ParameterSet.Modules
Service
p291
g2
Ntp292
Rp293
(dp294
g17
g290
sg19
(lp295
VsuppressWarning
p296
aVsuppressFwkInfo
p297
aVsuppressInfo
p298
aVsuppressDebug
p299
aVdebugModules
p300
aVcout
p301
aVdefault
p302
aVcerr
p303
aVfiles
p304
asg42
I00
sg43
g0
(g133
g2
Ntp305
Rp306
(dp307
g42
I00
sg48
I00
sg49
I00
sg137
g0
(cFWCore.ParameterSet.Types
_PSetTemplate
p308
g2
Ntp309
Rp310
(dp311
V_pset
p312
g0
(g233
g2
Ntp313
Rp314
(dp315
g42
I00
sg48
I01
sg49
I00
sg19
(lp316
VreportEvery
p317
aVlimit
p318
aVtimespan
p319
asg43
Nsg317
g0
(cFWCore.ParameterSet.Types
int32
p320
g2
Ntp321
Rp322
(dp323
g42
I00
sg48
I00
sg49
I00
sg50
I1
sbsg318
g0
(g133
g2
Ntp324
Rp325
(dp326
g42
I00
sg48
I00
sg49
I00
sg137
g320
sg138
Nsbsg319
g0
(g133
g2
Ntp327
Rp328
(dp329
g42
I00
sg48
I00
sg49
I00
sg137
g320
sg138
Nsbsbsbsg138
Nsbsg296
g0
(g92
g93
(lp330
tp331
Rp332
(dp333
g42
I00
sg48
I00
sg49
I00
sg103
I1
sbsg49
I00
sg297
g0
(g92
g93
(lp334
tp335
Rp336
(dp337
g42
I00
sg48
I00
sg49
I00
sg103
I1
sbsg298
g0
(g92
g93
(lp338
tp339
Rp340
(dp341
g42
I00
sg48
I00
sg49
I00
sg103
I1
sbsg299
g0
(g92
g93
(lp342
tp343
Rp344
(dp345
g42
I00
sg48
I00
sg49
I00
sg103
I1
sbsg300
g0
(g92
g93
(lp346
tp347
Rp348
(dp349
g42
I00
sg48
I00
sg49
I00
sg103
I1
sbsg301
g0
(g233
g2
Ntp350
Rp351
(dp352
g42
I00
sg48
I00
sg49
I00
sg19
(lp353
VnoLineBreaks
p354
aVnoTimeStamps
p355
aVlineLength
p356
aVthreshold
p357
aVstatisticsThreshold
p358
aVenableStatistics
p359
aVresetStatistics
p360
aVenable
p361
asg43
g306
sg354
g0
(g133
g2
Ntp362
Rp363
(dp364
g42
I00
sg48
I00
sg49
I00
sg137
g120
sg138
Nsbsg355
g0
(g133
g2
Ntp365
Rp366
(dp367
g42
I00
sg48
I00
sg49
I00
sg137
g120
sg138
Nsbsg356
g0
(g133
g2
Ntp368
Rp369
(dp370
g42
I00
sg48
I00
sg49
I00
sg137
g320
sg138
Nsbsg357
g0
(g133
g2
Ntp371
Rp372
(dp373
g42
I00
sg48
I00
sg49
I00
sg137
g44
sg138
Nsbsg358
g0
(g133
g2
Ntp374
Rp375
(dp376
g42
I00
sg48
I00
sg49
I00
sg137
g44
sg138
Nsbsg359
g0
(g120
g2
Ntp377
Rp378
(dp379
g42
I00
sg48
I00
sg49
I00
sg50
I00
sbsg360
g0
(g120
g2
Ntp380
Rp381
(dp382
g42
I00
sg48
I00
sg49
I00
sg50
I00
sbsg361
g0
(g120
g2
Ntp383
Rp384
(dp385
g42
I00
sg48
I00
sg49
I00
sg50
I00
sbsbsg302
g0
(g233
g2
Ntp386
Rp387
(dp388
g42
I00
sg48
I00
sg49
I00
sg19
(lp389
g317
ag318
ag319
ag354
ag355
ag356
ag357
ag358
asg43
g306
sg317
g0
(g320
g2
Ntp390
Rp391
(dp392
g42
I00
sg48
I00
sg49
I00
sg50
I1
sbsg318
g0
(g133
g2
Ntp393
Rp394
(dp395
g42
I00
sg48
I00
sg49
I00
sg137
g320
sg138
Nsbsg319
g0
(g133
g2
Ntp396
Rp397
(dp398
g42
I00
sg48
I00
sg49
I00
sg137
g320
sg138
Nsbsg354
g0
(g120
g2
Ntp399
Rp400
(dp401
g42
I00
sg48
I00
sg49
I00
sg50
I00
sbsg355
g0
(g120
g2
Ntp402
Rp403
(dp404
g42
I00
sg48
I00
sg49
I00
sg50
I00
sbsg356
g0
(g320
g2
Ntp405
Rp406
(dp407
g42
I00
sg48
I00
sg49
I00
sg50
I80
sbsg357
g0
(g44
g2
Ntp408
Rp409
(dp410
g42
I00
sg48
I00
sg49
I00
sg50
VINFO
p411
sbsg358
g0
(g44
g2
Ntp412
Rp413
(dp414
g42
I00
sg48
I00
sg49
I00
sg50
g411
sbsbsg303
g0
(g233
g2
Ntp415
Rp416
(dp417
g42
I00
sg48
I00
sg49
I00
sg19
(lp418
g354
ag355
ag356
ag357
ag358
ag361
ag359
ag360
ag411
aVFwkReport
p419
ag302
aVRoot_NoDictionary
p420
aVFwkSummary
p421
asg43
g306
sg354
g0
(g133
g2
Ntp422
Rp423
(dp424
g42
I00
sg48
I00
sg49
I00
sg137
g120
sg138
Nsbsg355
g0
(g120
g2
Ntp425
Rp426
(dp427
g42
I00
sg48
I00
sg49
I00
sg50
I00
sbsg356
g0
(g133
g2
Ntp428
Rp429
(dp430
g42
I00
sg48
I00
sg49
I00
sg137
g320
sg138
Nsbsg357
g0
(g44
g2
Ntp431
Rp432
(dp433
g42
I00
sg48
I00
sg49
I00
sg50
g411
sbsg358
g0
(g44
g2
Ntp434
Rp435
(dp436
g42
I00
sg48
I00
sg49
I00
sg50
VWARNING
p437
sbsg361
g0
(g120
g2
Ntp438
Rp439
(dp440
g42
I00
sg48
I00
sg49
I00
sg50
I01
sbsg359
g0
(g120
g2
Ntp441
Rp442
(dp443
g42
I00
sg48
I00
sg49
I00
sg50
I00
sbsg360
g0
(g120
g2
Ntp444
Rp445
(dp446
g42
I00
sg48
I00
sg49
I00
sg50
I00
sbsg411
g0
(g233
g2
Ntp447
Rp448
(dp449
g42
I00
sg48
I00
sg49
I00
sg19
(lp450
g318
asg43
Nsg318
g0
(g320
g2
Ntp451
Rp452
(dp453
g42
I00
sg48
I00
sg49
I00
sg50
I0
sbsbsg419
g0
(g233
g2
Ntp454
Rp455
(dp456
g42
I00
sg48
I00
sg49
I00
sg19
(lp457
g317
ag318
asg43
Nsg317
g0
(g320
g2
Ntp458
Rp459
(dp460
g42
I00
sg48
I00
sg49
I00
sg50
I1
sbsg318
g0
(g320
g2
Ntp461
Rp462
(dp463
g42
I00
sg48
I00
sg49
I00
sg50
I10000000
sbsbsg302
g0
(g233
g2
Ntp464
Rp465
(dp466
g42
I00
sg48
I00
sg49
I00
sg19
(lp467
g318
asg43
Nsg318
g0
(g320
g2
Ntp468
Rp469
(dp470
g42
I00
sg48
I00
sg49
I00
sg50
I10000000
sbsbsg420
g0
(g233
g2
Ntp471
Rp472
(dp473
g42
I00
sg48
I00
sg49
I00
sg19
(lp474
g318
asg43
Nsg318
g0
(g320
g2
Ntp475
Rp476
(dp477
g42
I00
sg48
I00
sg49
I00
sg50
I0
sbsbsg421
g0
(g233
g2
Ntp478
Rp479
(dp480
g42
I00
sg48
I00
sg49
I00
sg19
(lp481
g317
ag318
asg43
Nsg317
g0
(g320
g2
Ntp482
Rp483
(dp484
g42
I00
sg48
I00
sg49
I00
sg50
I1
sbsg318
g0
(g320
g2
Ntp485
Rp486
(dp487
g42
I00
sg48
I00
sg49
I00
sg50
I10000000
sbsbsbsg304
g0
(g233
g2
Ntp488
Rp489
(dp490
g42
I00
sg48
I00
sg49
I00
sg19
(lp491
sg43
g0
(g133
g2
Ntp492
Rp493
(dp494
g42
I00
sg48
I00
sg49
I00
sg137
g0
(g308
g2
Ntp495
Rp496
(dp497
g312
g0
(g233
g2
Ntp498
Rp499
(dp500
g42
I00
sg48
I01
sg49
I00
sg19
(lp501
g354
ag355
ag356
ag357
ag358
ag359
ag360
aVfilename
p502
aVextension
p503
aVoutput
p504
asg43
g306
sg354
g0
(g133
g2
Ntp505
Rp506
(dp507
g42
I00
sg48
I00
sg49
I00
sg137
g120
sg138
Nsbsg355
g0
(g133
g2
Ntp508
Rp509
(dp510
g42
I00
sg48
I00
sg49
I00
sg137
g120
sg138
Nsbsg356
g0
(g133
g2
Ntp511
Rp512
(dp513
g42
I00
sg48
I00
sg49
I00
sg137
g320
sg138
Nsbsg357
g0
(g133
g2
Ntp514
Rp515
(dp516
g42
I00
sg48
I00
sg49
I00
sg137
g44
sg138
Nsbsg358
g0
(g133
g2
Ntp517
Rp518
(dp519
g42
I00
sg48
I00
sg49
I00
sg137
g44
sg138
Nsbsg359
g0
(g120
g2
Ntp520
Rp521
(dp522
g42
I00
sg48
I00
sg49
I00
sg50
I00
sbsg360
g0
(g120
g2
Ntp523
Rp524
(dp525
g42
I00
sg48
I00
sg49
I00
sg50
I00
sbsg502
g0
(g133
g2
Ntp526
Rp527
(dp528
g42
I00
sg48
I00
sg49
I00
sg137
g44
sg138
Nsbsg503
g0
(g133
g2
Ntp529
Rp530
(dp531
g42
I00
sg48
I00
sg49
I00
sg137
g44
sg138
Nsbsg504
g0
(g133
g2
Ntp532
Rp533
(dp534
g42
I00
sg48
I00
sg49
I00
sg137
g44
sg138
Nsbsbsbsg138
Nsbsbsg139
g172
sg141
I13
sV_inProcess
p535
I00
sbssV_Process__essources
p536
(dp537
Veegeom
p538
g0
(cFWCore.ParameterSet.Modules
ESSource
p539
g2
Ntp540
Rp541
(dp542
g17
VEmptyESSource
p543
sg19
(lp544
VrecordName
p545
aViovIsRunNotTime
p546
aVfirstValid
p547
asg42
I00
sg43
Nsg545
g0
(g44
g2
Ntp548
Rp549
(dp550
g42
I00
sg48
I01
sg49
I00
sg50
VEcalMappingRcd
p551
sbsg49
I00
sg546
g0
(g120
g2
Ntp552
Rp553
(dp554
g42
I00
sg48
I01
sg49
I00
sg50
I01
sbsg547
g0
(cFWCore.ParameterSet.Types
vuint32
p555
g93
(lp556
I1
atp557
Rp558
(dp559
g42
I00
sg48
I01
sg49
I00
sbsg139
V/cvmfs/cms.cern.ch/el9_amd64_gcc12/cms/cmssw/CMSSW_14_1_0_pre7/src/Geometry/EcalMapping/python/EcalMappingRecord_cfi.py
p560
sg141
I3
sg142
g538
sbsVGlobalTag
p561
g0
(g539
g2
Ntp562
Rp563
(dp564
g17
VPoolDBESSource
p565
sg19
(lp566
VDBParameters
p567
aVconnect
p568
aVglobaltag
p569
aVsnapshotTime
p570
aVtoGet
p571
aVDumpStat
p572
aVReconnectEachRun
p573
aVRefreshAlways
p574
aVRefreshEachRun
p575
aVRefreshOpenIOVs
p576
aVpfnPostfix
p577
aVpfnPrefix
p578
asg42
I00
sg43
Nsg567
g0
(g233
g2
Ntp579
Rp580
(dp581
g42
I00
sg48
I01
sg49
I00
sg19
(lp582
VauthenticationPath
p583
aVauthenticationSystem
p584
aVsecurity
p585
aVmessageLevel
p586
aVconnectionTimeout
p587
asg43
Nsg583
g0
(g44
g2
Ntp588
Rp589
(dp590
g42
I00
sg48
I00
sg49
I00
sg50
g59
sbsg584
g0
(g320
g2
Ntp591
Rp592
(dp593
g42
I00
sg48
I00
sg49
I00
sg50
I0
sbsg585
g0
(g44
g2
Ntp594
Rp595
(dp596
g42
I00
sg48
I00
sg49
I00
sg50
g59
sbsg586
g0
(g320
g2
Ntp597
Rp598
(dp599
g42
I00
sg48
I00
sg49
I00
sg50
I0
sbsg587
g0
(g320
g2
Ntp600
Rp601
(dp602
g42
I00
sg48
I00
sg49
I00
sg50
I0
sbsbsg49
I01
sg568
g0
(g44
g2
Ntp603
Rp604
(dp605
g42
I00
sg48
I01
sg49
I00
sg50
Vfrontier://FrontierProd/CMS_CONDITIONS
p606
sbsg569
g0
(g44
g2
Ntp607
Rp608
(dp609
g42
I00
sg48
I01
sg49
I01
sg50
V140X_dataRun3_v4
p610
sbsg570
g0
(g44
g2
Ntp611
Rp612
(dp613
g42
I00
sg48
I01
sg49
I00
sg50
g59
sbsg571
g0
(cFWCore.ParameterSet.Types
VPSet
p614
g93
(lp615
tp616
Rp617
(dp618
g42
I00
sg48
I01
sg49
I00
sg103
I1
sbsg572
g0
(g120
g2
Ntp619
Rp620
(dp621
g42
I00
sg48
I00
sg49
I00
sg50
I00
sbsg573
g0
(g120
g2
Ntp622
Rp623
(dp624
g42
I00
sg48
I00
sg49
I00
sg50
I00
sbsg574
g0
(g120
g2
Ntp625
Rp626
(dp627
g42
I00
sg48
I00
sg49
I00
sg50
I00
sbsg575
g0
(g120
g2
Ntp628
Rp629
(dp630
g42
I00
sg48
I00
sg49
I00
sg50
I00
sbsg576
g0
(g120
g2
Ntp631
Rp632
(dp633
g42
I00
sg48
I00
sg49
I00
sg50
I00
sbsg577
g0
(g44
g2
Ntp634
Rp635
(dp636
g42
I00
sg48
I00
sg49
I00
sg50
g59
sbsg578
g0
(g44
g2
Ntp637
Rp638
(dp639
g42
I00
sg48
I00
sg49
I00
sg50
g59
sbsg139
V/cvmfs/cms.cern.ch/el9_amd64_gcc12/cms/cmssw/CMSSW_14_1_0_pre7/src/CondCore/ESSources/python/CondDBESSource_cfi.py
p640
sg141
I8
sg142
g561
sbsVHcalTimeSlewEP
p641
g0
(g539
g2
Ntp642
Rp643
(dp644
g17
g641
sg19
(lp645
VappendToDataLabel
p646
aVtimeSlewParametersM2
p647
aVtimeSlewParametersM3
p648
asg42
I00
sg43
Nsg646
g0
(g44
g2
Ntp649
Rp650
(dp651
g42
I00
sg48
I01
sg49
I00
sg50
VHBHE
p652
sbsg49
I00
sg647
g0
(g614
g93
(lp653
g0
(g233
g2
Ntp654
Rp655
(dp656
g42
I00
sg48
I01
sg49
I00
sg19
(lp657
Vtzero
p658
aVslope
p659
aVtmax
p660
asg43
Nsg658
g0
(g78
g2
Ntp661
Rp662
(dp663
g42
I00
sg48
I01
sg49
I00
sg50
F23.960177
sbsg659
g0
(g78
g2
Ntp664
Rp665
(dp666
g42
I00
sg48
I01
sg49
I00
sg50
F-3.178648
sbsg660
g0
(g78
g2
Ntp667
Rp668
(dp669
g42
I00
sg48
I01
sg49
I00
sg50
F16.0
sbsbag0
(g233
g2
Ntp670
Rp671
(dp672
g42
I00
sg48
I01
sg49
I00
sg19
(lp673
g658
ag659
ag660
asg43
Nsg658
g0
(g78
g2
Ntp674
Rp675
(dp676
g42
I00
sg48
I01
sg49
I00
sg50
F11.977461
sbsg659
g0
(g78
g2
Ntp677
Rp678
(dp679
g42
I00
sg48
I01
sg49
I00
sg50
F-1.5610227
sbsg660
g0
(g78
g2
Ntp680
Rp681
(dp682
g42
I00
sg48
I01
sg49
I00
sg50
F10.0
sbsbag0
(g233
g2
Ntp683
Rp684
(dp685
g42
I00
sg48
I01
sg49
I00
sg19
(lp686
g658
ag659
ag660
asg43
Nsg658
g0
(g78
g2
Ntp687
Rp688
(dp689
g42
I00
sg48
I01
sg49
I00
sg50
F9.109694
sbsg659
g0
(g78
g2
Ntp690
Rp691
(dp692
g42
I00
sg48
I01
sg49
I00
sg50
F-1.075824
sbsg660
g0
(g78
g2
Ntp693
Rp694
(dp695
g42
I00
sg48
I01
sg49
I00
sg50
F6.25
sbsbatp696
Rp697
(dp698
g42
I00
sg48
I01
sg49
I00
sg103
I1
sbsg648
g0
(g614
g93
(lp699
g0
(g233
g2
Ntp700
Rp701
(dp702
g42
I00
sg48
I01
sg49
I00
sg19
(lp703
Vcap
p704
aVtspar0
p705
aVtspar1
p706
aVtspar2
p707
aVtspar0_siPM
p708
aVtspar1_siPM
p709
aVtspar2_siPM
p710
asg43
Nsg704
g0
(g78
g2
Ntp711
Rp712
(dp713
g42
I00
sg48
I01
sg49
I00
sg50
F6.0
sbsg705
g0
(g78
g2
Ntp714
Rp715
(dp716
g42
I00
sg48
I01
sg49
I00
sg50
F12.2999
sbsg706
g0
(g78
g2
Ntp717
Rp718
(dp719
g42
I00
sg48
I01
sg49
I00
sg50
F-2.19142
sbsg707
g0
(g78
g2
Ntp720
Rp721
(dp722
g42
I00
sg48
I01
sg49
I00
sg50
F0.0
sbsg708
g0
(g78
g2
Ntp723
Rp724
(dp725
g42
I00
sg48
I01
sg49
I00
sg50
F0.0
sbsg709
g0
(g78
g2
Ntp726
Rp727
(dp728
g42
I00
sg48
I01
sg49
I00
sg50
F0.0
sbsg710
g0
(g78
g2
Ntp729
Rp730
(dp731
g42
I00
sg48
I01
sg49
I00
sg50
F0.0
sbsbag0
(g233
g2
Ntp732
Rp733
(dp734
g42
I00
sg48
I01
sg49
I00
sg19
(lp735
g704
ag705
ag706
ag707
ag708
ag709
ag710
asg43
Nsg704
g0
(g78
g2
Ntp736
Rp737
(dp738
g42
I00
sg48
I01
sg49
I00
sg50
F6.0
sbsg705
g0
(g78
g2
Ntp739
Rp740
(dp741
g42
I00
sg48
I01
sg49
I00
sg50
F15.5
sbsg706
g0
(g78
g2
Ntp742
Rp743
(dp744
g42
I00
sg48
I01
sg49
I00
sg50
F-3.2
sbsg707
g0
(g78
g2
Ntp745
Rp746
(dp747
g42
I00
sg48
I01
sg49
I00
sg50
F32.0
sbsg708
g0
(g78
g2
Ntp748
Rp749
(dp750
g42
I00
sg48
I01
sg49
I00
sg50
F0.0
sbsg709
g0
(g78
g2
Ntp751
Rp752
(dp753
g42
I00
sg48
I01
sg49
I00
sg50
F0.0
sbsg710
g0
(g78
g2
Ntp754
Rp755
(dp756
g42
I00
sg48
I01
sg49
I00
sg50
F0.0
sbsbag0
(g233
g2
Ntp757
Rp758
(dp759
g42
I00
sg48
I01
sg49
I00
sg19
(lp760
g704
ag705
ag706
ag707
ag708
ag709
ag710
asg43
Nsg704
g0
(g78
g2
Ntp761
Rp762
(dp763
g42
I00
sg48
I01
sg49
I00
sg50
F6.0
sbsg705
g0
(g78
g2
Ntp764
Rp765
(dp766
g42
I00
sg48
I01
sg49
I00
sg50
F12.2999
sbsg706
g0
(g78
g2
Ntp767
Rp768
(dp769
g42
I00
sg48
I01
sg49
I00
sg50
F-2.19142
sbsg707
g0
(g78
g2
Ntp770
Rp771
(dp772
g42
I00
sg48
I01
sg49
I00
sg50
F0.0
sbsg708
g0
(g78
g2
Ntp773
Rp774
(dp775
g42
I00
sg48
I01
sg49
I00
sg50
F0.0
sbsg709
g0
(g78
g2
Ntp776
Rp777
(dp778
g42
I00
sg48
I01
sg49
I00
sg50
F0.0
sbsg710
g0
(g78
g2
Ntp779
Rp780
(dp781
g42
I00
sg48
I01
sg49
I00
sg50
F0.0
sbsbag0
(g233
g2
Ntp782
Rp783
(dp784
g42
I00
sg48
I01
sg49
I00
sg19
(lp785
g704
ag705
ag706
ag707
ag708
ag709
ag710
asg43
Nsg704
g0
(g78
g2
Ntp786
Rp787
(dp788
g42
I00
sg48
I01
sg49
I00
sg50
F6.0
sbsg705
g0
(g78
g2
Ntp789
Rp790
(dp791
g42
I00
sg48
I01
sg49
I00
sg50
F12.2999
sbsg706
g0
(g78
g2
Ntp792
Rp793
(dp794
g42
I00
sg48
I01
sg49
I00
sg50
F-2.19142
sbsg707
g0
(g78
g2
Ntp795
Rp796
(dp797
g42
I00
sg48
I01
sg49
I00
sg50
F0.0
sbsg708
g0
(g78
g2
Ntp798
Rp799
(dp800
g42
I00
sg48
I01
sg49
I00
sg50
F0.0
sbsg709
g0
(g78
g2
Ntp801
Rp802
(dp803
g42
I00
sg48
I01
sg49
I00
sg50
F0.0
sbsg710
g0
(g78
g2
Ntp804
Rp805
(dp806
g42
I00
sg48
I01
sg49
I00
sg50
F0.0
sbsbatp807
Rp808
(dp809
g42
I00
sg48
I01
sg49
I00
sg103
I1
sbsg139
V/cvmfs/cms.cern.ch/el9_amd64_gcc12/cms/cmssw/CMSSW_14_1_0_pre7/src/CalibCalorimetry/HcalPlugins/python/HcalTimeSlew_cff.py
p810
sg141
I3
sg142
g641
sbsVes_hardcode
p811
g0
(g539
g2
Ntp812
Rp813
(dp814
g17
VHcalHardcodeCalibrations
p815
sg19
(lp816
g571
aViLumi
p817
aVHBRecalibration
p818
aVHBreCalibCutoff
p819
aVHBmeanenergies
p820
aVHERecalibration
p821
aVHEreCalibCutoff
p822
aVHEmeanenergies
p823
aVHFRecalibration
p824
aVHFRecalParameterBlock
p825
aVGainWidthsForTrigPrims
p826
aVuseHBUpgrade
p827
aVuseHEUpgrade
p828
aVuseHFUpgrade
p829
aVuseHOUpgrade
p830
aVtestHFQIE10
p831
aVtestHEPlan1
p832
aVkillHE
p833
aVuseLayer0Weight
p834
aVuseIeta18depth1
p835
aVhb
p836
aVhe
p837
aVhf
p838
aVho
p839
aVhbUpgrade
p840
aVheUpgrade
p841
aVhfUpgrade
p842
aVSiPMCharacteristics
p843
asg42
I00
sg43
Nsg571
g0
(g92
g93
(lp844
VGainWidths
p845
atp846
Rp847
(dp848
g42
I00
sg48
I00
sg49
I00
sg103
I1
sbsg49
I01
sg817
g0
(g78
g2
Ntp849
Rp850
(dp851
g42
I00
sg48
I01
sg49
I00
sg50
F-1.0
sbsg818
g0
(g120
g2
Ntp852
Rp853
(dp854
g42
I00
sg48
I01
sg49
I00
sg50
I00
sbsg819
g0
(g78
g2
Ntp855
Rp856
(dp857
g42
I00
sg48
I01
sg49
I00
sg50
F100.0
sbsg820
g0
(cFWCore.ParameterSet.Types
FileInPath
p858
g2
Ntp859
Rp860
(dp861
g42
I00
sg48
I01
sg49
I00
sg50
VCalibCalorimetry/HcalPlugins/data/meanenergiesHB.txt
p862
sbsg821
g0
(g120
g2
Ntp863
Rp864
(dp865
g42
I00
sg48
I01
sg49
I00
sg50
I00
sbsg822
g0
(g78
g2
Ntp866
Rp867
(dp868
g42
I00
sg48
I01
sg49
I00
sg50
F100.0
sbsg823
g0
(g858
g2
Ntp869
Rp870
(dp871
g42
I00
sg48
I01
sg49
I00
sg50
VCalibCalorimetry/HcalPlugins/data/meanenergiesHE.txt
p872
sbsg824
g0
(g120
g2
Ntp873
Rp874
(dp875
g42
I00
sg48
I01
sg49
I00
sg50
I00
sbsg825
g0
(g233
g2
Ntp876
Rp877
(dp878
g42
I00
sg48
I01
sg49
I00
sg19
(lp879
VHFdepthOneParameterA
p880
aVHFdepthOneParameterB
p881
aVHFdepthTwoParameterA
p882
aVHFdepthTwoParameterB
p883
asg43
Nsg880
g0
(cFWCore.ParameterSet.Types
vdouble
p884
g93
(lp885
F0.004123
aF0.00602
aF0.008201
aF0.010489
aF0.013379
aF0.016997
aF0.021464
aF0.027371
aF0.034195
aF0.044807
aF0.058939
aF0.125497
atp886
Rp887
(dp888
g42
I00
sg48
I01
sg49
I00
sbsg881
g0
(g884
g93
(lp889
F-4e-06
aF-2e-06
aF0.0
aF4e-06
aF1.5e-05
aF2.6e-05
aF6.3e-05
aF8.4e-05
aF0.00016
aF0.000107
aF0.000425
aF0.000209
atp890
Rp891
(dp892
g42
I00
sg48
I01
sg49
I00
sbsg882
g0
(g884
g93
(lp893
F0.002861
aF0.004168
aF0.0064
aF0.008388
aF0.011601
aF0.014425
aF0.018633
aF0.023232
aF0.028274
aF0.035447
aF0.051579
aF0.086593
atp894
Rp895
(dp896
g42
I00
sg48
I01
sg49
I00
sbsg883
g0
(g884
g93
(lp897
F-2e-06
aF-0.0
aF-7e-06
aF-6e-06
aF-2e-06
aF1e-06
aF1.9e-05
aF3.1e-05
aF6.7e-05
aF1.2e-05
aF0.000157
aF-3e-06
atp898
Rp899
(dp900
g42
I00
sg48
I01
sg49
I00
sbsg142
g825
sbsg826
g0
(g120
g2
Ntp901
Rp902
(dp903
g42
I00
sg48
I01
sg49
I00
sg50
I00
sbsg827
g0
(g120
g2
Ntp904
Rp905
(dp906
g42
I00
sg48
I01
sg49
I00
sg50
I01
sbsg828
g0
(g120
g2
Ntp907
Rp908
(dp909
g42
I00
sg48
I01
sg49
I00
sg50
I01
sbsg829
g0
(g120
g2
Ntp910
Rp911
(dp912
g42
I00
sg48
I01
sg49
I00
sg50
I01
sbsg830
g0
(g120
g2
Ntp913
Rp914
(dp915
g42
I00
sg48
I01
sg49
I00
sg50
I01
sbsg831
g0
(g120
g2
Ntp916
Rp917
(dp918
g42
I00
sg48
I01
sg49
I00
sg50
I00
sbsg832
g0
(g120
g2
Ntp919
Rp920
(dp921
g42
I00
sg48
I01
sg49
I00
sg50
I00
sbsg833
g0
(g120
g2
Ntp922
Rp923
(dp924
g42
I00
sg48
I01
sg49
I00
sg50
I00
sbsg834
g0
(g120
g2
Ntp925
Rp926
(dp927
g42
I00
sg48
I01
sg49
I00
sg50
I01
sbsg835
g0
(g120
g2
Ntp928
Rp929
(dp930
g42
I00
sg48
I01
sg49
I00
sg50
I00
sbsg836
g0
(g233
g2
Ntp931
Rp932
(dp933
g42
I00
sg48
I01
sg49
I00
sg19
(lp934
Vpedestal
p935
aVpedestalWidth
p936
aVgain
p937
aVgainWidth
p938
aVzsThreshold
p939
aVqieType
p940
aVqieOffset
p941
aVqieSlope
p942
aVmcShape
p943
aVrecoShape
p944
aVphotoelectronsToAnalog
p945
aVdarkCurrent
p946
aVnoiseCorrelation
p947
aVnoiseThreshold
p948
aVseedThreshold
p949
aVdoRadiationDamage
p950
asg43
Nsg935
g0
(g78
g2
Ntp951
Rp952
(dp953
g42
I00
sg48
I01
sg49
I00
sg50
F3.285
sbsg936
g0
(g78
g2
Ntp954
Rp955
(dp956
g42
I00
sg48
I01
sg49
I00
sg50
F0.809
sbsg937
g0
(g884
g93
(lp957
F0.19
atp958
Rp959
(dp960
g42
I00
sg48
I01
sg49
I00
sbsg938
g0
(g884
g93
(lp961
F0.0
atp962
Rp963
(dp964
g42
I00
sg48
I01
sg49
I00
sbsg939
g0
(g320
g2
Ntp965
Rp966
(dp967
g42
I00
sg48
I01
sg49
I00
sg50
I8
sbsg940
g0
(g320
g2
Ntp968
Rp969
(dp970
g42
I00
sg48
I01
sg49
I00
sg50
I0
sbsg941
g0
(g884
g93
(lp971
F-0.49
aF1.8
aF7.2
aF37.9
atp972
Rp973
(dp974
g42
I00
sg48
I01
sg49
I00
sbsg942
g0
(g884
g93
(lp975
F0.912
aF0.917
aF0.922
aF0.923
atp976
Rp977
(dp978
g42
I00
sg48
I01
sg49
I00
sbsg943
g0
(g320
g2
Ntp979
Rp980
(dp981
g42
I00
sg48
I01
sg49
I00
sg50
I125
sbsg944
g0
(g320
g2
Ntp982
Rp983
(dp984
g42
I00
sg48
I01
sg49
I00
sg50
I105
sbsg945
g0
(g78
g2
Ntp985
Rp986
(dp987
g42
I00
sg48
I01
sg49
I00
sg50
F0.3305
sbsg946
g0
(g884
g93
(lp988
F0.0
atp989
Rp990
(dp991
g42
I00
sg48
I01
sg49
I00
sbsg947
g0
(g884
g93
(lp992
F0.0
atp993
Rp994
(dp995
g42
I00
sg48
I01
sg49
I00
sbsg948
g0
(g78
g2
Ntp996
Rp997
(dp998
g42
I00
sg48
I01
sg49
I00
sg50
F0.0
sbsg949
g0
(g78
g2
Ntp999
Rp1000
(dp1001
g42
I00
sg48
I01
sg49
I00
sg50
F0.1
sbsg950
g0
(g120
g2
Ntp1002
Rp1003
(dp1004
g42
I00
sg48
I01
sg49
I00
sg50
I00
sbsbsg837
g0
(g233
g2
Ntp1005
Rp1006
(dp1007
g42
I00
sg48
I01
sg49
I00
sg19
(lp1008
g935
ag936
ag937
ag938
ag939
ag940
ag941
ag942
ag943
ag944
ag945
ag946
ag947
ag948
ag949
ag950
asg43
Nsg935
g0
(g78
g2
Ntp1009
Rp1010
(dp1011
g42
I00
sg48
I01
sg49
I00
sg50
F3.163
sbsg936
g0
(g78
g2
Ntp1012
Rp1013
(dp1014
g42
I00
sg48
I01
sg49
I00
sg50
F0.9698
sbsg937
g0
(g884
g93
(lp1015
F0.23
atp1016
Rp1017
(dp1018
g42
I00
sg48
I01
sg49
I00
sbsg938
g0
(g884
g93
(lp1019
I0
atp1020
Rp1021
(dp1022
g42
I00
sg48
I01
sg49
I00
sbsg939
g0
(g320
g2
Ntp1023
Rp1024
(dp1025
g42
I00
sg48
I01
sg49
I00
sg50
I9
sbsg940
g0
(g320
g2
Ntp1026
Rp1027
(dp1028
g42
I00
sg48
I01
sg49
I00
sg50
I0
sbsg941
g0
(g884
g93
(lp1029
F-0.38
aF2.0
aF7.6
aF39.6
atp1030
Rp1031
(dp1032
g42
I00
sg48
I01
sg49
I00
sbsg942
g0
(g884
g93
(lp1033
F0.912
aF0.916
aF0.92
aF0.922
atp1034
Rp1035
(dp1036
g42
I00
sg48
I01
sg49
I00
sbsg943
g0
(g320
g2
Ntp1037
Rp1038
(dp1039
g42
I00
sg48
I01
sg49
I00
sg50
I125
sbsg944
g0
(g320
g2
Ntp1040
Rp1041
(dp1042
g42
I00
sg48
I01
sg49
I00
sg50
I105
sbsg945
g0
(g78
g2
Ntp1043
Rp1044
(dp1045
g42
I00
sg48
I01
sg49
I00
sg50
F0.3305
sbsg946
g0
(g884
g93
(lp1046
F0.0
atp1047
Rp1048
(dp1049
g42
I00
sg48
I01
sg49
I00
sbsg947
g0
(g884
g93
(lp1050
F0.0
atp1051
Rp1052
(dp1053
g42
I00
sg48
I01
sg49
I00
sbsg948
g0
(g78
g2
Ntp1054
Rp1055
(dp1056
g42
I00
sg48
I01
sg49
I00
sg50
F0.0
sbsg949
g0
(g78
g2
Ntp1057
Rp1058
(dp1059
g42
I00
sg48
I01
sg49
I00
sg50
F0.1
sbsg950
g0
(g120
g2
Ntp1060
Rp1061
(dp1062
g42
I00
sg48
I01
sg49
I00
sg50
I00
sbsbsg838
g0
(g233
g2
Ntp1063
Rp1064
(dp1065
g42
I00
sg48
I01
sg49
I00
sg19
(lp1066
g935
ag936
ag937
ag938
ag939
ag940
ag941
ag942
ag943
ag944
ag945
ag946
ag947
ag948
ag949
ag950
asg43
Nsg935
g0
(g78
g2
Ntp1067
Rp1068
(dp1069
g42
I00
sg48
I01
sg49
I00
sg50
F9.354
sbsg936
g0
(g78
g2
Ntp1070
Rp1071
(dp1072
g42
I00
sg48
I01
sg49
I00
sg50
F2.516
sbsg937
g0
(g884
g93
(lp1073
F0.14
aF0.135
atp1074
Rp1075
(dp1076
g42
I00
sg48
I01
sg49
I00
sbsg938
g0
(g884
g93
(lp1077
F0.0
aF0.0
atp1078
Rp1079
(dp1080
g42
I00
sg48
I01
sg49
I00
sbsg939
g0
(g320
g2
Ntp1081
Rp1082
(dp1083
g42
I00
sg48
I01
sg49
I00
sg50
I-9999
sbsg940
g0
(g320
g2
Ntp1084
Rp1085
(dp1086
g42
I00
sg48
I01
sg49
I00
sg50
I0
sbsg941
g0
(g884
g93
(lp1087
F-0.87
aF1.4
aF7.8
aF-29.6
atp1088
Rp1089
(dp1090
g42
I00
sg48
I01
sg49
I00
sbsg942
g0
(g884
g93
(lp1091
F0.359
aF0.358
aF0.36
aF0.367
atp1092
Rp1093
(dp1094
g42
I00
sg48
I01
sg49
I00
sbsg943
g0
(g320
g2
Ntp1095
Rp1096
(dp1097
g42
I00
sg48
I01
sg49
I00
sg50
I301
sbsg944
g0
(g320
g2
Ntp1098
Rp1099
(dp1100
g42
I00
sg48
I01
sg49
I00
sg50
I301
sbsg945
g0
(g78
g2
Ntp1101
Rp1102
(dp1103
g42
I00
sg48
I01
sg49
I00
sg50
F0.0
sbsg946
g0
(g884
g93
(lp1104
F0.0
atp1105
Rp1106
(dp1107
g42
I00
sg48
I01
sg49
I00
sbsg947
g0
(g884
g93
(lp1108
F0.0
atp1109
Rp1110
(dp1111
g42
I00
sg48
I01
sg49
I00
sbsg948
g0
(g78
g2
Ntp1112
Rp1113
(dp1114
g42
I00
sg48
I01
sg49
I00
sg50
F0.0
sbsg949
g0
(g78
g2
Ntp1115
Rp1116
(dp1117
g42
I00
sg48
I01
sg49
I00
sg50
F0.1
sbsg950
g0
(g120
g2
Ntp1118
Rp1119
(dp1120
g42
I00
sg48
I01
sg49
I00
sg50
I00
sbsbsg839
g0
(g233
g2
Ntp1121
Rp1122
(dp1123
g42
I00
sg48
I01
sg49
I00
sg19
(lp1124
g935
ag936
ag937
ag938
ag939
ag940
ag941
ag942
ag943
ag944
ag945
ag946
ag947
ag948
ag949
ag950
asg43
Nsg935
g0
(g78
g2
Ntp1125
Rp1126
(dp1127
g42
I00
sg48
I01
sg49
I00
sg50
F12.06
sbsg936
g0
(g78
g2
Ntp1128
Rp1129
(dp1130
g42
I00
sg48
I01
sg49
I00
sg50
F0.6285
sbsg937
g0
(g884
g93
(lp1131
F0.006
aF0.0087
atp1132
Rp1133
(dp1134
g42
I00
sg48
I01
sg49
I00
sbsg938
g0
(g884
g93
(lp1135
F0.0
aF0.0
atp1136
Rp1137
(dp1138
g42
I00
sg48
I01
sg49
I00
sbsg939
g0
(g320
g2
Ntp1139
Rp1140
(dp1141
g42
I00
sg48
I01
sg49
I00
sg50
I24
sbsg940
g0
(g320
g2
Ntp1142
Rp1143
(dp1144
g42
I00
sg48
I01
sg49
I00
sg50
I0
sbsg941
g0
(g884
g93
(lp1145
F-0.44
aF1.4
aF7.1
aF38.5
atp1146
Rp1147
(dp1148
g42
I00
sg48
I01
sg49
I00
sbsg942
g0
(g884
g93
(lp1149
F0.907
aF0.915
aF0.92
aF0.921
atp1150
Rp1151
(dp1152
g42
I00
sg48
I01
sg49
I00
sbsg943
g0
(g320
g2
Ntp1153
Rp1154
(dp1155
g42
I00
sg48
I01
sg49
I00
sg50
I201
sbsg944
g0
(g320
g2
Ntp1156
Rp1157
(dp1158
g42
I00
sg48
I01
sg49
I00
sg50
I201
sbsg945
g0
(g78
g2
Ntp1159
Rp1160
(dp1161
g42
I00
sg48
I01
sg49
I00
sg50
F4.0
sbsg946
g0
(g884
g93
(lp1162
F0.0
atp1163
Rp1164
(dp1165
g42
I00
sg48
I01
sg49
I00
sbsg947
g0
(g884
g93
(lp1166
F0.0
atp1167
Rp1168
(dp1169
g42
I00
sg48
I01
sg49
I00
sbsg948
g0
(g78
g2
Ntp1170
Rp1171
(dp1172
g42
I00
sg48
I01
sg49
I00
sg50
F0.0
sbsg949
g0
(g78
g2
Ntp1173
Rp1174
(dp1175
g42
I00
sg48
I01
sg49
I00
sg50
F0.1
sbsg950
g0
(g120
g2
Ntp1176
Rp1177
(dp1178
g42
I00
sg48
I01
sg49
I00
sg50
I00
sbsbsg840
g0
(g233
g2
Ntp1179
Rp1180
(dp1181
g42
I00
sg48
I01
sg49
I00
sg19
(lp1182
g935
ag936
ag937
ag938
ag939
ag940
ag941
ag942
ag943
ag944
ag945
ag946
ag947
ag948
ag949
ag950
aVradiationDamage
p1183
asg43
Nsg935
g0
(g78
g2
Ntp1184
Rp1185
(dp1186
g42
I00
sg48
I01
sg49
I00
sg50
F17.3
sbsg936
g0
(g78
g2
Ntp1187
Rp1188
(dp1189
g42
I00
sg48
I01
sg49
I00
sg50
F1.5
sbsg937
g0
(g884
g93
(lp1190
F0.0006252
atp1191
Rp1192
(dp1193
g42
I00
sg48
I01
sg49
I00
sbsg938
g0
(g884
g93
(lp1194
I0
atp1195
Rp1196
(dp1197
g42
I00
sg48
I01
sg49
I00
sbsg939
g0
(g320
g2
Ntp1198
Rp1199
(dp1200
g42
I00
sg48
I01
sg49
I00
sg50
I16
sbsg940
g0
(g320
g2
Ntp1201
Rp1202
(dp1203
g42
I00
sg48
I01
sg49
I00
sg50
I2
sbsg941
g0
(g884
g93
(lp1204
F0.0
aF0.0
aF0.0
aF0.0
atp1205
Rp1206
(dp1207
g42
I00
sg48
I01
sg49
I00
sbsg942
g0
(g884
g93
(lp1208
F0.05376
aF0.05376
aF0.05376
aF0.05376
atp1209
Rp1210
(dp1211
g42
I00
sg48
I01
sg49
I00
sbsg943
g0
(g320
g2
Ntp1212
Rp1213
(dp1214
g42
I00
sg48
I01
sg49
I00
sg50
I206
sbsg944
g0
(g320
g2
Ntp1215
Rp1216
(dp1217
g42
I00
sg48
I01
sg49
I00
sg50
I208
sbsg945
g0
(g78
g2
Ntp1218
Rp1219
(dp1220
g42
I00
sg48
I01
sg49
I00
sg50
F40.0
sbsg946
g0
(g884
g93
(lp1221
F0.01
aF0.015
atp1222
Rp1223
(dp1224
g42
I00
sg48
I01
sg49
I00
sbsg947
g0
(g884
g93
(lp1225
F0.26
aF0.254
atp1226
Rp1227
(dp1228
g42
I00
sg48
I01
sg49
I00
sbsg948
g0
(g78
g2
Ntp1229
Rp1230
(dp1231
g42
I00
sg48
I01
sg49
I00
sg50
F0.0
sbsg949
g0
(g78
g2
Ntp1232
Rp1233
(dp1234
g42
I00
sg48
I01
sg49
I00
sg50
F0.1
sbsg950
g0
(g120
g2
Ntp1235
Rp1236
(dp1237
g42
I00
sg48
I01
sg49
I00
sg50
I01
sbsg1183
g0
(g233
g2
Ntp1238
Rp1239
(dp1240
g42
I00
sg48
I01
sg49
I00
sg19
(lp1241
VtemperatureBase
p1242
aVtemperatureNew
p1243
aVintlumiOffset
p1244
aVdepVsTemp
p1245
aVintlumiToNeutrons
p1246
aVdepVsNeutrons
p1247
asg43
Nsg1242
g0
(g78
g2
Ntp1248
Rp1249
(dp1250
g42
I00
sg48
I01
sg49
I00
sg50
I20
sbsg1243
g0
(g78
g2
Ntp1251
Rp1252
(dp1253
g42
I00
sg48
I01
sg49
I00
sg50
I-5
sbsg1244
g0
(g78
g2
Ntp1254
Rp1255
(dp1256
g42
I00
sg48
I01
sg49
I00
sg50
I150
sbsg1245
g0
(g78
g2
Ntp1257
Rp1258
(dp1259
g42
I00
sg48
I01
sg49
I00
sg50
F0.0631
sbsg1246
g0
(g78
g2
Ntp1260
Rp1261
(dp1262
g42
I00
sg48
I01
sg49
I00
sg50
F367000000.0
sbsg1247
g0
(g884
g93
(lp1263
F5.543e-10
aF8.012e-10
atp1264
Rp1265
(dp1266
g42
I00
sg48
I01
sg49
I00
sbsbsbsg841
g0
(g233
g2
Ntp1267
Rp1268
(dp1269
g42
I00
sg48
I01
sg49
I00
sg19
(lp1270
g935
ag936
ag937
ag938
ag939
ag940
ag941
ag942
ag943
ag944
ag945
ag946
ag947
ag948
ag949
ag950
ag1183
asg43
Nsg935
g0
(g78
g2
Ntp1271
Rp1272
(dp1273
g42
I00
sg48
I01
sg49
I00
sg50
F17.3
sbsg936
g0
(g78
g2
Ntp1274
Rp1275
(dp1276
g42
I00
sg48
I01
sg49
I00
sg50
F1.5
sbsg937
g0
(g884
g93
(lp1277
F0.0006252
atp1278
Rp1279
(dp1280
g42
I00
sg48
I01
sg49
I00
sbsg938
g0
(g884
g93
(lp1281
I0
atp1282
Rp1283
(dp1284
g42
I00
sg48
I01
sg49
I00
sbsg939
g0
(g320
g2
Ntp1285
Rp1286
(dp1287
g42
I00
sg48
I01
sg49
I00
sg50
I16
sbsg940
g0
(g320
g2
Ntp1288
Rp1289
(dp1290
g42
I00
sg48
I01
sg49
I00
sg50
I2
sbsg941
g0
(g884
g93
(lp1291
F0.0
aF0.0
aF0.0
aF0.0
atp1292
Rp1293
(dp1294
g42
I00
sg48
I01
sg49
I00
sbsg942
g0
(g884
g93
(lp1295
F0.05376
aF0.05376
aF0.05376
aF0.05376
atp1296
Rp1297
(dp1298
g42
I00
sg48
I01
sg49
I00
sbsg943
g0
(g320
g2
Ntp1299
Rp1300
(dp1301
g42
I00
sg48
I01
sg49
I00
sg50
I206
sbsg944
g0
(g320
g2
Ntp1302
Rp1303
(dp1304
g42
I00
sg48
I01
sg49
I00
sg50
I208
sbsg945
g0
(g78
g2
Ntp1305
Rp1306
(dp1307
g42
I00
sg48
I01
sg49
I00
sg50
F40.0
sbsg946
g0
(g884
g93
(lp1308
F0.01
aF0.015
atp1309
Rp1310
(dp1311
g42
I00
sg48
I01
sg49
I00
sbsg947
g0
(g884
g93
(lp1312
F0.26
aF0.254
atp1313
Rp1314
(dp1315
g42
I00
sg48
I01
sg49
I00
sbsg948
g0
(g78
g2
Ntp1316
Rp1317
(dp1318
g42
I00
sg48
I01
sg49
I00
sg50
F0.0
sbsg949
g0
(g78
g2
Ntp1319
Rp1320
(dp1321
g42
I00
sg48
I01
sg49
I00
sg50
F0.1
sbsg950
g0
(g120
g2
Ntp1322
Rp1323
(dp1324
g42
I00
sg48
I01
sg49
I00
sg50
I01
sbsg1183
g0
(g233
g2
Ntp1325
Rp1326
(dp1327
g42
I00
sg48
I01
sg49
I00
sg19
(lp1328
g1242
ag1243
ag1244
ag1245
ag1246
ag1247
asg43
Nsg1242
g0
(g78
g2
Ntp1329
Rp1330
(dp1331
g42
I00
sg48
I01
sg49
I00
sg50
I20
sbsg1243
g0
(g78
g2
Ntp1332
Rp1333
(dp1334
g42
I00
sg48
I01
sg49
I00
sg50
I5
sbsg1244
g0
(g78
g2
Ntp1335
Rp1336
(dp1337
g42
I00
sg48
I01
sg49
I00
sg50
I75
sbsg1245
g0
(g78
g2
Ntp1338
Rp1339
(dp1340
g42
I00
sg48
I01
sg49
I00
sg50
F0.0631
sbsg1246
g0
(g78
g2
Ntp1341
Rp1342
(dp1343
g42
I00
sg48
I01
sg49
I00
sg50
F29200000.0
sbsg1247
g0
(g884
g93
(lp1344
F5.543e-10
aF8.012e-10
atp1345
Rp1346
(dp1347
g42
I00
sg48
I01
sg49
I00
sbsbsbsg842
g0
(g233
g2
Ntp1348
Rp1349
(dp1350
g42
I00
sg48
I01
sg49
I00
sg19
(lp1351
g935
ag936
ag937
ag938
ag939
ag940
ag941
ag942
ag943
ag944
ag945
ag946
ag947
ag948
ag949
ag950
asg43
Nsg935
g0
(g78
g2
Ntp1352
Rp1353
(dp1354
g42
I00
sg48
I01
sg49
I00
sg50
F13.33
sbsg936
g0
(g78
g2
Ntp1355
Rp1356
(dp1357
g42
I00
sg48
I01
sg49
I00
sg50
F3.33
sbsg937
g0
(g884
g93
(lp1358
F0.14
aF0.135
atp1359
Rp1360
(dp1361
g42
I00
sg48
I01
sg49
I00
sbsg938
g0
(g884
g93
(lp1362
F0.0
aF0.0
atp1363
Rp1364
(dp1365
g42
I00
sg48
I01
sg49
I00
sbsg939
g0
(g320
g2
Ntp1366
Rp1367
(dp1368
g42
I00
sg48
I01
sg49
I00
sg50
I-9999
sbsg940
g0
(g320
g2
Ntp1369
Rp1370
(dp1371
g42
I00
sg48
I01
sg49
I00
sg50
I1
sbsg941
g0
(g884
g93
(lp1372
F0.0697
aF-0.7405
aF12.38
aF-671.9
atp1373
Rp1374
(dp1375
g42
I00
sg48
I01
sg49
I00
sbsg942
g0
(g884
g93
(lp1376
F0.297
aF0.298
aF0.298
aF0.313
atp1377
Rp1378
(dp1379
g42
I00
sg48
I01
sg49
I00
sbsg943
g0
(g320
g2
Ntp1380
Rp1381
(dp1382
g42
I00
sg48
I01
sg49
I00
sg50
I301
sbsg944
g0
(g320
g2
Ntp1383
Rp1384
(dp1385
g42
I00
sg48
I01
sg49
I00
sg50
I301
sbsg945
g0
(g78
g2
Ntp1386
Rp1387
(dp1388
g42
I00
sg48
I01
sg49
I00
sg50
F0.0
sbsg946
g0
(g884
g93
(lp1389
F0.0
atp1390
Rp1391
(dp1392
g42
I00
sg48
I01
sg49
I00
sbsg947
g0
(g884
g93
(lp1393
F0.0
atp1394
Rp1395
(dp1396
g42
I00
sg48
I01
sg49
I00
sbsg948
g0
(g78
g2
Ntp1397
Rp1398
(dp1399
g42
I00
sg48
I01
sg49
I00
sg50
F0.0
sbsg949
g0
(g78
g2
Ntp1400
Rp1401
(dp1402
g42
I00
sg48
I01
sg49
I00
sg50
F0.1
sbsg950
g0
(g120
g2
Ntp1403
Rp1404
(dp1405
g42
I00
sg48
I01
sg49
I00
sg50
I00
sbsbsg843
g0
(g614
g93
(lp1406
g0
(g233
g2
Ntp1407
Rp1408
(dp1409
g42
I00
sg48
I01
sg49
I00
sg19
(lp1410
Vpixels
p1411
aVcrosstalk
p1412
aVnonlin1
p1413
aVnonlin2
p1414
aVnonlin3
p1415
asg43
Nsg1411
g0
(g320
g2
Ntp1416
Rp1417
(dp1418
g42
I00
sg48
I01
sg49
I00
sg50
I36000
sbsg1412
g0
(g78
g2
Ntp1419
Rp1420
(dp1421
g42
I00
sg48
I01
sg49
I00
sg50
F0.0
sbsg1413
g0
(g78
g2
Ntp1422
Rp1423
(dp1424
g42
I00
sg48
I01
sg49
I00
sg50
F1.0
sbsg1414
g0
(g78
g2
Ntp1425
Rp1426
(dp1427
g42
I00
sg48
I01
sg49
I00
sg50
F0.0
sbsg1415
g0
(g78
g2
Ntp1428
Rp1429
(dp1430
g42
I00
sg48
I01
sg49
I00
sg50
F0.0
sbsbag0
(g233
g2
Ntp1431
Rp1432
(dp1433
g42
I00
sg48
I01
sg49
I00
sg19
(lp1434
g1411
ag1412
ag1413
ag1414
ag1415
asg43
Nsg1411
g0
(g320
g2
Ntp1435
Rp1436
(dp1437
g42
I00
sg48
I01
sg49
I00
sg50
I2500
sbsg1412
g0
(g78
g2
Ntp1438
Rp1439
(dp1440
g42
I00
sg48
I01
sg49
I00
sg50
F0.0
sbsg1413
g0
(g78
g2
Ntp1441
Rp1442
(dp1443
g42
I00
sg48
I01
sg49
I00
sg50
F1.0
sbsg1414
g0
(g78
g2
Ntp1444
Rp1445
(dp1446
g42
I00
sg48
I01
sg49
I00
sg50
F0.0
sbsg1415
g0
(g78
g2
Ntp1447
Rp1448
(dp1449
g42
I00
sg48
I01
sg49
I00
sg50
F0.0
sbsbag0
(g233
g2
Ntp1450
Rp1451
(dp1452
g42
I00
sg48
I01
sg49
I00
sg19
(lp1453
g1411
ag1412
ag1413
ag1414
ag1415
asg43
Nsg1411
g0
(g320
g2
Ntp1454
Rp1455
(dp1456
g42
I00
sg48
I01
sg49
I00
sg50
I27370
sbsg1412
g0
(g78
g2
Ntp1457
Rp1458
(dp1459
g42
I00
sg48
I01
sg49
I00
sg50
F0.17
sbsg1413
g0
(g78
g2
Ntp1460
Rp1461
(dp1462
g42
I00
sg48
I01
sg49
I00
sg50
F1.00985
sbsg1414
g0
(g78
g2
Ntp1463
Rp1464
(dp1465
g42
I00
sg48
I01
sg49
I00
sg50
F7.84089e-06
sbsg1415
g0
(g78
g2
Ntp1466
Rp1467
(dp1468
g42
I00
sg48
I01
sg49
I00
sg50
F2.86282e-10
sbsbag0
(g233
g2
Ntp1469
Rp1470
(dp1471
g42
I00
sg48
I01
sg49
I00
sg19
(lp1472
g1411
ag1412
ag1413
ag1414
ag1415
asg43
Nsg1411
g0
(g320
g2
Ntp1473
Rp1474
(dp1475
g42
I00
sg48
I01
sg49
I00
sg50
I38018
sbsg1412
g0
(g78
g2
Ntp1476
Rp1477
(dp1478
g42
I00
sg48
I01
sg49
I00
sg50
F0.196
sbsg1413
g0
(g78
g2
Ntp1479
Rp1480
(dp1481
g42
I00
sg48
I01
sg49
I00
sg50
F1.00546
sbsg1414
g0
(g78
g2
Ntp1482
Rp1483
(dp1484
g42
I00
sg48
I01
sg49
I00
sg50
F6.40239e-06
sbsg1415
g0
(g78
g2
Ntp1485
Rp1486
(dp1487
g42
I00
sg48
I01
sg49
I00
sg50
F1.27011e-10
sbsbag0
(g233
g2
Ntp1488
Rp1489
(dp1490
g42
I00
sg48
I01
sg49
I00
sg19
(lp1491
g1411
ag1412
ag1413
ag1414
ag1415
asg43
Nsg1411
g0
(g320
g2
Ntp1492
Rp1493
(dp1494
g42
I00
sg48
I01
sg49
I00
sg50
I27370
sbsg1412
g0
(g78
g2
Ntp1495
Rp1496
(dp1497
g42
I00
sg48
I01
sg49
I00
sg50
F0.17
sbsg1413
g0
(g78
g2
Ntp1498
Rp1499
(dp1500
g42
I00
sg48
I01
sg49
I00
sg50
F1.00985
sbsg1414
g0
(g78
g2
Ntp1501
Rp1502
(dp1503
g42
I00
sg48
I01
sg49
I00
sg50
F7.84089e-06
sbsg1415
g0
(g78
g2
Ntp1504
Rp1505
(dp1506
g42
I00
sg48
I01
sg49
I00
sg50
F2.86282e-10
sbsbag0
(g233
g2
Ntp1507
Rp1508
(dp1509
g42
I00
sg48
I01
sg49
I00
sg19
(lp1510
g1411
ag1412
ag1413
ag1414
ag1415
asg43
Nsg1411
g0
(g320
g2
Ntp1511
Rp1512
(dp1513
g42
I00
sg48
I01
sg49
I00
sg50
I38018
sbsg1412
g0
(g78
g2
Ntp1514
Rp1515
(dp1516
g42
I00
sg48
I01
sg49
I00
sg50
F0.196
sbsg1413
g0
(g78
g2
Ntp1517
Rp1518
(dp1519
g42
I00
sg48
I01
sg49
I00
sg50
F1.00546
sbsg1414
g0
(g78
g2
Ntp1520
Rp1521
(dp1522
g42
I00
sg48
I01
sg49
I00
sg50
F6.40239e-06
sbsg1415
g0
(g78
g2
Ntp1523
Rp1524
(dp1525
g42
I00
sg48
I01
sg49
I00
sg50
F1.27011e-10
sbsbag0
(g233
g2
Ntp1526
Rp1527
(dp1528
g42
I00
sg48
I01
sg49
I00
sg19
(lp1529
g1411
ag1412
ag1413
ag1414
ag1415
asg43
Nsg1411
g0
(g320
g2
Ntp1530
Rp1531
(dp1532
g42
I00
sg48
I01
sg49
I00
sg50
I0
sbsg1412
g0
(g78
g2
Ntp1533
Rp1534
(dp1535
g42
I00
sg48
I01
sg49
I00
sg50
F0.0
sbsg1413
g0
(g78
g2
Ntp1536
Rp1537
(dp1538
g42
I00
sg48
I01
sg49
I00
sg50
F1.0
sbsg1414
g0
(g78
g2
Ntp1539
Rp1540
(dp1541
g42
I00
sg48
I01
sg49
I00
sg50
F0.0
sbsg1415
g0
(g78
g2
Ntp1542
Rp1543
(dp1544
g42
I00
sg48
I01
sg49
I00
sg50
F0.0
sbsbatp1545
Rp1546
(dp1547
g42
I00
sg48
I01
sg49
I00
sg103
I1
sbsg139
V/cvmfs/cms.cern.ch/el9_amd64_gcc12/cms/cmssw/CMSSW_14_1_0_pre7/src/CalibCalorimetry/HcalPlugins/python/Hcal_Conditions_forGlobalTag_cff.py
p1548
sg141
I16
sg142
g811
sbssV_Process__esproducers
p1549
(dp1550
VCSCGeometryESModule
p1551
g0
(cFWCore.ParameterSet.Modules
ESProducer
p1552
g2
Ntp1553
Rp1554
(dp1555
g17
g1551
sg19
(lp1556
VfromDDD
p1557
aVfromDD4hep
p1558
aValignmentsLabel
p1559
ag646
aVuseRealWireGeometry
p1560
aVuseOnlyWiresInME1a
p1561
aVuseGangedStripsInME1a
p1562
aVuseCentreTIOffsets
p1563
aVapplyAlignment
p1564
aVdebugV
p1565
asg42
I00
sg43
Nsg1557
g0
(g120
g2
Ntp1566
Rp1567
(dp1568
g42
I00
sg48
I01
sg49
I00
sg50
I00
sbsg49
I01
sg1558
g0
(g120
g2
Ntp1569
Rp1570
(dp1571
g42
I00
sg48
I01
sg49
I00
sg50
I00
sbsg1559
g0
(g44
g2
Ntp1572
Rp1573
(dp1574
g42
I00
sg48
I01
sg49
I00
sg50
g59
sbsg646
g0
(g44
g2
Ntp1575
Rp1576
(dp1577
g42
I00
sg48
I01
sg49
I00
sg50
g59
sbsg1560
g0
(g120
g2
Ntp1578
Rp1579
(dp1580
g42
I00
sg48
I01
sg49
I00
sg50
I01
sbsg1561
g0
(g120
g2
Ntp1581
Rp1582
(dp1583
g42
I00
sg48
I01
sg49
I00
sg50
I00
sbsg1562
g0
(g120
g2
Ntp1584
Rp1585
(dp1586
g42
I00
sg48
I01
sg49
I01
sg50
I00
sbsg1563
g0
(g120
g2
Ntp1587
Rp1588
(dp1589
g42
I00
sg48
I01
sg49
I00
sg50
I00
sbsg1564
g0
(g120
g2
Ntp1590
Rp1591
(dp1592
g42
I00
sg48
I01
sg49
I00
sg50
I01
sbsg1565
g0
(g120
g2
Ntp1593
Rp1594
(dp1595
g42
I00
sg48
I00
sg49
I00
sg50
I00
sbsg139
g172
sg141
I55
sg142
g1551
sbsVCaloGeometryBuilder
p1596
g0
(g1552
g2
Ntp1597
Rp1598
(dp1599
g17
g1596
sg19
(lp1600
VSelectedCalos
p1601
asg42
I00
sg43
Nsg1601
g0
(g92
g93
(lp1602
VHCAL
p1603
aVZDC
p1604
aVEcalBarrel
p1605
aVEcalEndcap
p1606
aVEcalPreshower
p1607
aVTOWER
p1608
atp1609
Rp1610
(dp1611
g42
I00
sg48
I01
sg49
I01
sg103
I1
sbsg49
I01
sg139
g172
sg141
I55
sg142
g1596
sbsVCaloTopologyBuilder
p1612
g0
(g1552
g2
Ntp1613
Rp1614
(dp1615
g17
g1612
sg19
(lp1616
sg42
I00
sg43
Nsg49
I00
sg139
g172
sg141
I55
sg142
g1612
sbsVCaloTowerGeometryFromDBEP
p1617
g0
(g1552
g2
Ntp1618
Rp1619
(dp1620
g17
g1617
sg19
(lp1621
g1564
asg42
I00
sg43
Nsg1564
g0
(g120
g2
Ntp1622
Rp1623
(dp1624
g42
I00
sg48
I01
sg49
I00
sg50
I00
sbsg49
I00
sg139
g172
sg141
I55
sg142
g1617
sbsVCaloTowerTopologyEP
p1625
g0
(g1552
g2
Ntp1626
Rp1627
(dp1628
g17
g1625
sg19
(lp1629
g646
asg42
I00
sg43
Nsg646
g0
(g44
g2
Ntp1630
Rp1631
(dp1632
g42
I00
sg48
I01
sg49
I00
sg50
g59
sbsg49
I00
sg139
g172
sg141
I55
sg142
g1625
sbsVCastorGeometryFromDBEP
p1633
g0
(g1552
g2
Ntp1634
Rp1635
(dp1636
g17
g1633
sg19
(lp1637
g1564
asg42
I00
sg43
Nsg1564
g0
(g120
g2
Ntp1638
Rp1639
(dp1640
g42
I00
sg48
I01
sg49
I00
sg50
I00
sbsg49
I00
sg139
g172
sg141
I55
sg142
g1633
sbsVDTGeometryESModule
p1641
g0
(g1552
g2
Ntp1642
Rp1643
(dp1644
g17
g1641
sg19
(lp1645
g1557
ag1558
aVDDDetector
p1646
ag1559
ag646
aVattribute
p1647
aVvalue
p1648
ag1564
asg42
I00
sg43
Nsg1557
g0
(g120
g2
Ntp1649
Rp1650
(dp1651
g42
I00
sg48
I01
sg49
I01
sg50
I00
sbsg49
I01
sg1558
g0
(g120
g2
Ntp1652
Rp1653
(dp1654
g42
I00
sg48
I01
sg49
I00
sg50
I00
sbsg1646
g0
(cFWCore.ParameterSet.Types
ESInputTag
p1655
g2
Ntp1656
Rp1657
(dp1658
g42
I00
sg48
I01
sg49
I00
sV_ESInputTag__moduleLabel
p1659
g59
sV_ESInputTag__data
p1660
g59
sbsg1559
g0
(g44
g2
Ntp1661
Rp1662
(dp1663
g42
I00
sg48
I01
sg49
I00
sg50
g59
sbsg646
g0
(g44
g2
Ntp1664
Rp1665
(dp1666
g42
I00
sg48
I01
sg49
I00
sg50
g59
sbsg1647
g0
(g44
g2
Ntp1667
Rp1668
(dp1669
g42
I00
sg48
I01
sg49
I00
sg50
VMuStructure
p1670
sbsg1648
g0
(g44
g2
Ntp1671
Rp1672
(dp1673
g42
I00
sg48
I01
sg49
I00
sg50
VMuonBarrelDT
p1674
sbsg1564
g0
(g120
g2
Ntp1675
Rp1676
(dp1677
g42
I00
sg48
I01
sg49
I00
sg50
I01
sbsg139
g172
sg141
I55
sg142
g1641
sbsVEcalBarrelGeometryFromDBEP
p1678
g0
(g1552
g2
Ntp1679
Rp1680
(dp1681
g17
g1678
sg19
(lp1682
g1564
asg42
I00
sg43
Nsg1564
g0
(g120
g2
Ntp1683
Rp1684
(dp1685
g42
I00
sg48
I01
sg49
I01
sg50
I01
sbsg49
I01
sg139
g172
sg141
I55
sg142
g1678
sbsVEcalElectronicsMappingBuilder
p1686
g0
(g1552
g2
Ntp1687
Rp1688
(dp1689
g17
g1686
sg19
(lp1690
sg42
I00
sg43
Nsg49
I00
sg139
g172
sg141
I55
sg142
g1686
sbsVEcalEndcapGeometryFromDBEP
p1691
g0
(g1552
g2
Ntp1692
Rp1693
(dp1694
g17
g1691
sg19
(lp1695
g1564
asg42
I00
sg43
Nsg1564
g0
(g120
g2
Ntp1696
Rp1697
(dp1698
g42
I00
sg48
I01
sg49
I01
sg50
I01
sbsg49
I01
sg139
g172
sg141
I55
sg142
g1691
sbsVEcalPreshowerGeometryFromDBEP
p1699
g0
(g1552
g2
Ntp1700
Rp1701
(dp1702
g17
g1699
sg19
(lp1703
g1564
asg42
I00
sg43
Nsg1564
g0
(g120
g2
Ntp1704
Rp1705
(dp1706
g42
I00
sg48
I01
sg49
I01
sg50
I01
sbsg49
I01
sg139
g172
sg141
I55
sg142
g1699
sbsVEcalTrigTowerConstituentsMapBuilder
p1707
g0
(g1552
g2
Ntp1708
Rp1709
(dp1710
g17
g1707
sg19
(lp1711
VMapFile
p1712
asg42
I00
sg43
Nsg1712
g0
(g44
g2
Ntp1713
Rp1714
(dp1715
g42
I00
sg48
I00
sg49
I00
sg50
VGeometry/EcalMapping/data/EndCap_TTMap.txt
p1716
sbsg49
I00
sg139
g172
sg141
I55
sg142
g1707
sbsVGlobalTrackingGeometryESProducer
p1717
g0
(g1552
g2
Ntp1718
Rp1719
(dp1720
g17
g1717
sg19
(lp1721
sg42
I00
sg43
Nsg49
I00
sg139
g172
sg141
I55
sg142
g1717
sbsVHcalAlignmentEP
p1722
g0
(g1552
g2
Ntp1723
Rp1724
(dp1725
g17
g1722
sg19
(lp1726
sg42
I00
sg43
Nsg49
I00
sg139
g172
sg141
I55
sg142
g1722
sbsVHcalGeometryFromDBEP
p1727
g0
(g1552
g2
Ntp1728
Rp1729
(dp1730
g17
g1727
sg19
(lp1731
g1564
asg42
I00
sg43
Nsg1564
g0
(g120
g2
Ntp1732
Rp1733
(dp1734
g42
I00
sg48
I01
sg49
I01
sg50
I01
sbsg49
I01
sg139
g172
sg141
I55
sg142
g1727
sbsVMuonDetLayerGeometryESProducer
p1735
g0
(g1552
g2
Ntp1736
Rp1737
(dp1738
g17
g1735
sg19
(lp1739
sg42
I00
sg43
Nsg49
I00
sg139
g172
sg141
I55
sg142
g1735
sbsVRPCGeometryESModule
p1740
g0
(g1552
g2
Ntp1741
Rp1742
(dp1743
g17
g1740
sg19
(lp1744
g1557
ag1558
asg42
I00
sg43
Nsg1557
g0
(g120
g2
Ntp1745
Rp1746
(dp1747
g42
I00
sg48
I00
sg49
I00
sg50
I00
sbsg49
I00
sg1558
g0
(g120
g2
Ntp1748
Rp1749
(dp1750
g42
I00
sg48
I00
sg49
I00
sg50
I00
sbsg139
g172
sg141
I55
sg142
g1740
sbsVTrackerAdditionalParametersPerDet
p1751
g0
(g1552
g2
Ntp1752
Rp1753
(dp1754
g17
VTrackerAdditionalParametersPerDetESModule
p1755
sg19
(lp1756
g646
asg42
I00
sg43
Nsg646
g0
(g44
g2
Ntp1757
Rp1758
(dp1759
g42
I00
sg48
I01
sg49
I00
sg50
g59
sbsg49
I00
sg139
g172
sg141
I55
sg142
g1751
sbsVTrackerRecoGeometryESProducer
p1760
g0
(g1552
g2
Ntp1761
Rp1762
(dp1763
g17
g1760
sg19
(lp1764
VusePhase2Stacks
p1765
asg42
I00
sg43
Nsg1765
g0
(g120
g2
Ntp1766
Rp1767
(dp1768
g42
I00
sg48
I01
sg49
I00
sg50
I00
sbsg49
I00
sg139
g172
sg141
I55
sg142
g1760
sbsVZdcGeometryFromDBEP
p1769
g0
(g1552
g2
Ntp1770
Rp1771
(dp1772
g17
g1769
sg19
(lp1773
g1564
asg42
I00
sg43
Nsg1564
g0
(g120
g2
Ntp1774
Rp1775
(dp1776
g42
I00
sg48
I01
sg49
I00
sg50
I00
sbsg49
I00
sg139
g172
sg141
I55
sg142
g1769
sbsVfakeForIdealAlignment
p1777
g0
(g1552
g2
Ntp1778
Rp1779
(dp1780
g17
VFakeAlignmentProducer
p1781
sg19
(lp1782
g646
asg42
I00
sg43
Nsg646
g0
(g44
g2
Ntp1783
Rp1784
(dp1785
g42
I00
sg48
I01
sg49
I01
sg50
VfakeForIdeal
p1786
sbsg49
I01
sg139
V/cvmfs/cms.cern.ch/el9_amd64_gcc12/cms/cmssw/CMSSW_14_1_0_pre7/src/Alignment/CommonAlignmentProducer/python/fakeForIdealAlignmentProducer_cfi.py
p1787
sg141
I5
sg142
g1777
sbsVhcalDDDRecConstants
p1788
g0
(g1552
g2
Ntp1789
Rp1790
(dp1791
g17
VHcalDDDRecConstantsESModule
p1792
sg19
(lp1793
g646
asg42
I00
sg43
Nsg646
g0
(g44
g2
Ntp1794
Rp1795
(dp1796
g42
I00
sg48
I01
sg49
I00
sg50
g59
sbsg49
I00
sg139
g172
sg141
I55
sg142
g1788
sbsVhcalDDDSimConstants
p1797
g0
(g1552
g2
Ntp1798
Rp1799
(dp1800
g17
VHcalDDDSimConstantsESModule
p1801
sg19
(lp1802
g646
asg42
I00
sg43
Nsg646
g0
(g44
g2
Ntp1803
Rp1804
(dp1805
g42
I00
sg48
I01
sg49
I00
sg50
g59
sbsg49
I00
sg139
g172
sg141
I55
sg142
g1797
sbsVhcalTopologyIdeal
p1806
g0
(g1552
g2
Ntp1807
Rp1808
(dp1809
g17
VHcalTopologyIdealEP
p1810
sg19
(lp1811
VExclude
p1812
aVMergePosition
p1813
ag646
asg42
I00
sg43
Nsg1812
g0
(g44
g2
Ntp1814
Rp1815
(dp1816
g42
I00
sg48
I00
sg49
I00
sg50
g59
sbsg49
I00
sg1813
g0
(g120
g2
Ntp1817
Rp1818
(dp1819
g42
I00
sg48
I00
sg49
I00
sg50
I00
sbsg646
g0
(g44
g2
Ntp1820
Rp1821
(dp1822
g42
I00
sg48
I01
sg49
I00
sg50
g59
sbsg139
g172
sg141
I55
sg142
g1806
sbsVidealForDigiCSCGeometry
p1823
g0
(g1552
g2
Ntp1824
Rp1825
(dp1826
g17
g1551
sg19
(lp1827
g1557
ag1558
ag1559
ag646
ag1560
ag1561
ag1562
ag1563
ag1564
ag1565
asg42
I00
sg43
Nsg1557
g0
(g120
g2
Ntp1828
Rp1829
(dp1830
g42
I00
sg48
I01
sg49
I00
sg50
I00
sbsg49
I01
sg1558
g0
(g120
g2
Ntp1831
Rp1832
(dp1833
g42
I00
sg48
I01
sg49
I00
sg50
I00
sbsg1559
g0
(g44
g2
Ntp1834
Rp1835
(dp1836
g42
I00
sg48
I01
sg49
I01
sg50
g1786
sbsg646
g0
(g44
g2
Ntp1837
Rp1838
(dp1839
g42
I00
sg48
I01
sg49
I01
sg50
VidealForDigi
p1840
sbsg1560
g0
(g120
g2
Ntp1841
Rp1842
(dp1843
g42
I00
sg48
I01
sg49
I00
sg50
I01
sbsg1561
g0
(g120
g2
Ntp1844
Rp1845
(dp1846
g42
I00
sg48
I01
sg49
I00
sg50
I00
sbsg1562
g0
(g120
g2
Ntp1847
Rp1848
(dp1849
g42
I00
sg48
I01
sg49
I01
sg50
I00
sbsg1563
g0
(g120
g2
Ntp1850
Rp1851
(dp1852
g42
I00
sg48
I01
sg49
I00
sg50
I00
sbsg1564
g0
(g120
g2
Ntp1853
Rp1854
(dp1855
g42
I00
sg48
I01
sg49
I01
sg50
I00
sbsg1565
g0
(g120
g2
Ntp1856
Rp1857
(dp1858
g42
I00
sg48
I00
sg49
I00
sg50
I00
sbsg139
V/cvmfs/cms.cern.ch/el9_amd64_gcc12/cms/cmssw/CMSSW_14_1_0_pre7/src/Geometry/CSCGeometryBuilder/python/idealForDigiCscGeometryDB_cff.py
p1859
sg141
I8
sg142
g1823
sbsVidealForDigiDTGeometry
p1860
g0
(g1552
g2
Ntp1861
Rp1862
(dp1863
g17
g1641
sg19
(lp1864
g1557
ag1558
ag1646
ag1559
ag646
ag1647
ag1648
ag1564
asg42
I00
sg43
Nsg1557
g0
(g120
g2
Ntp1865
Rp1866
(dp1867
g42
I00
sg48
I01
sg49
I01
sg50
I00
sbsg49
I01
sg1558
g0
(g120
g2
Ntp1868
Rp1869
(dp1870
g42
I00
sg48
I01
sg49
I00
sg50
I00
sbsg1646
g0
(g1655
g2
Ntp1871
Rp1872
(dp1873
g42
I00
sg48
I01
sg49
I00
sg1659
g59
sg1660
g59
sbsg1559
g0
(g44
g2
Ntp1874
Rp1875
(dp1876
g42
I00
sg48
I01
sg49
I01
sg50
g1786
sbsg646
g0
(g44
g2
Ntp1877
Rp1878
(dp1879
g42
I00
sg48
I01
sg49
I01
sg50
g1840
sbsg1647
g0
(g44
g2
Ntp1880
Rp1881
(dp1882
g42
I00
sg48
I01
sg49
I00
sg50
g1670
sbsg1648
g0
(g44
g2
Ntp1883
Rp1884
(dp1885
g42
I00
sg48
I01
sg49
I00
sg50
g1674
sbsg1564
g0
(g120
g2
Ntp1886
Rp1887
(dp1888
g42
I00
sg48
I01
sg49
I01
sg50
I00
sbsg139
V/cvmfs/cms.cern.ch/el9_amd64_gcc12/cms/cmssw/CMSSW_14_1_0_pre7/src/Geometry/DTGeometryBuilder/python/idealForDigiDtGeometryDB_cff.py
p1889
sg141
I8
sg142
g1860
sbsVidealForDigiTrackerGeometry
p1890
g0
(g1552
g2
Ntp1891
Rp1892
(dp1893
g17
VTrackerDigiGeometryESModule
p1894
sg19
(lp1895
g646
ag1557
ag1564
ag1559
asg42
I00
sg43
Nsg646
g0
(g44
g2
Ntp1896
Rp1897
(dp1898
g42
I00
sg48
I01
sg49
I01
sg50
g1840
sbsg49
I01
sg1557
g0
(g120
g2
Ntp1899
Rp1900
(dp1901
g42
I00
sg48
I01
sg49
I00
sg50
I00
sbsg1564
g0
(g120
g2
Ntp1902
Rp1903
(dp1904
g42
I00
sg48
I01
sg49
I01
sg50
I00
sbsg1559
g0
(g44
g2
Ntp1905
Rp1906
(dp1907
g42
I00
sg48
I01
sg49
I01
sg50
g1786
sbsg139
V/cvmfs/cms.cern.ch/el9_amd64_gcc12/cms/cmssw/CMSSW_14_1_0_pre7/src/Geometry/TrackerGeometryBuilder/python/idealForDigiTrackerGeometryDB_cff.py
p1908
sg141
I8
sg142
g1890
sbsVmuonGeometryConstants
p1909
g0
(g1552
g2
Ntp1910
Rp1911
(dp1912
g17
VMuonGeometryConstantsESModule
p1913
sg19
(lp1914
g1558
ag646
asg42
I00
sg43
Nsg1558
g0
(g120
g2
Ntp1915
Rp1916
(dp1917
g42
I00
sg48
I01
sg49
I00
sg50
I01
sbsg49
I01
sg646
g0
(g44
g2
Ntp1918
Rp1919
(dp1920
g42
I00
sg48
I01
sg49
I00
sg50
g59
sbsg139
g172
sg141
I55
sg142
g1909
sbsVtrackerGeometryDB
p1921
g0
(g1552
g2
Ntp1922
Rp1923
(dp1924
g17
g1894
sg19
(lp1925
g646
ag1557
ag1564
ag1559
asg42
I00
sg43
Nsg646
g0
(g44
g2
Ntp1926
Rp1927
(dp1928
g42
I00
sg48
I01
sg49
I00
sg50
g59
sbsg49
I00
sg1557
g0
(g120
g2
Ntp1929
Rp1930
(dp1931
g42
I00
sg48
I01
sg49
I00
sg50
I00
sbsg1564
g0
(g120
g2
Ntp1932
Rp1933
(dp1934
g42
I00
sg48
I01
sg49
I00
sg50
I01
sbsg1559
g0
(g44
g2
Ntp1935
Rp1936
(dp1937
g42
I00
sg48
I01
sg49
I00
sg50
g59
sbsg139
g172
sg141
I55
sg142
g1921
sbsVtrackerNumberingGeometryDB
p1938
g0
(g1552
g2
Ntp1939
Rp1940
(dp1941
g17
VTrackerGeometricDetESModule
p1942
sg19
(lp1943
g1557
ag1558
ag646
asg42
I00
sg43
Nsg1557
g0
(g120
g2
Ntp1944
Rp1945
(dp1946
g42
I00
sg48
I01
sg49
I00
sg50
I00
sbsg49
I00
sg1558
g0
(g120
g2
Ntp1947
Rp1948
(dp1949
g42
I00
sg48
I01
sg49
I00
sg50
I00
sbsg646
g0
(g44
g2
Ntp1950
Rp1951
(dp1952
g42
I00
sg48
I01
sg49
I00
sg50
g59
sbsg139
g172
sg141
I55
sg142
g1938
sbsVtrackerTopology
p1953
g0
(g1552
g2
Ntp1954
Rp1955
(dp1956
g17
VTrackerTopologyEP
p1957
sg19
(lp1958
g646
asg42
I00
sg43
Nsg646
g0
(g44
g2
Ntp1959
Rp1960
(dp1961
g42
I00
sg48
I01
sg49
I00
sg50
g59
sbsg49
I00
sg139
g172
sg141
I55
sg142
g1953
sbsVGEMGeometryESModule
p1962
g0
(g1552
g2
Ntp1963
Rp1964
(dp1965
g17
g1962
sg19
(lp1966
g1557
ag1558
ag646
ag1559
ag1564
asg42
I00
sg43
Nsg1557
g0
(g120
g2
Ntp1967
Rp1968
(dp1969
g42
I00
sg48
I01
sg49
I00
sg50
I00
sbsg49
I01
sg1558
g0
(g120
g2
Ntp1970
Rp1971
(dp1972
g42
I00
sg48
I01
sg49
I00
sg50
I00
sbsg646
g0
(g44
g2
Ntp1973
Rp1974
(dp1975
g42
I00
sg48
I01
sg49
I00
sg50
g59
sbsg1559
g0
(g44
g2
Ntp1976
Rp1977
(dp1978
g42
I00
sg48
I01
sg49
I00
sg50
g59
sbsg1564
g0
(g120
g2
Ntp1979
Rp1980
(dp1981
g42
I00
sg48
I01
sg49
I01
sg50
I01
sbsg139
g172
sg141
I55
sg142
g1962
sbsVParabolicParametrizedMagneticFieldProducer
p1982
g0
(g1552
g2
Ntp1983
Rp1984
(dp1985
g17
VAutoParametrizedMagneticFieldProducer
p1986
sg19
(lp1987
Vversion
p1988
aVlabel
p1989
aVvalueOverride
p1990
asg42
I00
sg43
Nsg1988
g0
(g44
g2
Ntp1991
Rp1992
(dp1993
g42
I00
sg48
I01
sg49
I00
sg50
VParabolic
p1994
sbsg49
I01
sg1989
g0
(g44
g2
Ntp1995
Rp1996
(dp1997
g42
I00
sg48
I00
sg49
I01
sg50
VParabolicMf
p1998
sbsg1990
g0
(g320
g2
Ntp1999
Rp2000
(dp2001
g42
I00
sg48
I01
sg49
I00
sg50
I-1
sbsg139
g172
sg141
I55
sg142
g1982
sbsVVolumeBasedMagneticFieldESProducer
p2002
g0
(g1552
g2
Ntp2003
Rp2004
(dp2005
g17
VDD4hep_VolumeBasedMagneticFieldESProducerFromDB
p2006
sg19
(lp2007
g1989
aVdebugBuilder
p2008
ag1990
asg42
I00
sg43
Nsg49
I01
sg139
g172
sg141
I55
sg1989
g0
(g44
g2
Ntp2009
Rp2010
(dp2011
g42
I00
sg48
I00
sg49
I00
sg50
g59
sbsg2008
g0
(g120
g2
Ntp2012
Rp2013
(dp2014
g42
I00
sg48
I00
sg49
I00
sg50
I00
sbsg1990
g0
(g320
g2
Ntp2015
Rp2016
(dp2017
g42
I00
sg48
I01
sg49
I00
sg50
I-1
sbsg142
g2002
sbsVCastorDbProducer
p2018
g0
(g1552
g2
Ntp2019
Rp2020
(dp2021
g17
g2018
sg19
(lp2022
g646
asg42
I00
sg43
Nsg646
g0
(g44
g2
Ntp2023
Rp2024
(dp2025
g42
I00
sg48
I01
sg49
I00
sg50
g59
sbsg49
I00
sg139
g172
sg141
I55
sg142
g2018
sbsVEcalLaserCorrectionService
p2026
g0
(g1552
g2
Ntp2027
Rp2028
(dp2029
g17
g2026
sg19
(lp2030
VmaxExtrapolationTimeInSec
p2031
asg42
I00
sg43
Nsg2031
g0
(cFWCore.ParameterSet.Types
uint32
p2032
g2
Ntp2033
Rp2034
(dp2035
g42
I00
sg48
I01
sg49
I00
sg50
I0
sbsg49
I00
sg139
g172
sg141
I55
sg142
g2026
sbsVEcalLaserCorrectionServiceMC
p2036
g0
(g1552
g2
Ntp2037
Rp2038
(dp2039
g17
g2036
sg19
(lp2040
g646
asg42
I00
sg43
Nsg646
g0
(g44
g2
Ntp2041
Rp2042
(dp2043
g42
I00
sg48
I01
sg49
I00
sg50
g59
sbsg49
I00
sg139
g172
sg141
I55
sg142
g2036
sbsVSiStripRecHitMatcherESProducer
p2044
g0
(g1552
g2
Ntp2045
Rp2046
(dp2047
g17
g2044
sg19
(lp2048
VComponentName
p2049
aVNSigmaInside
p2050
aVPreFilter
p2051
asg42
I00
sg43
Nsg2049
g0
(g44
g2
Ntp2052
Rp2053
(dp2054
g42
I00
sg48
I01
sg49
I00
sg50
VStandardMatcher
p2055
sbsg49
I00
sg2050
g0
(g78
g2
Ntp2056
Rp2057
(dp2058
g42
I00
sg48
I01
sg49
I00
sg50
F3.0
sbsg2051
g0
(g120
g2
Ntp2059
Rp2060
(dp2061
g42
I00
sg48
I01
sg49
I00
sg50
I00
sbsg139
g172
sg141
I55
sg142
g2044
sbsVStripCPEfromTrackAngleESProducer
p2062
g0
(g1552
g2
Ntp2063
Rp2064
(dp2065
g17
VStripCPEESProducer
p2066
sg19
(lp2067
g2049
aVComponentType
p2068
aVparameters
p2069
asg42
I00
sg43
Nsg2049
g0
(g44
g2
Ntp2070
Rp2071
(dp2072
g42
I00
sg48
I01
sg49
I01
sg50
VStripCPEfromTrackAngle
p2073
sbsg49
I00
sg2068
g0
(g44
g2
Ntp2074
Rp2075
(dp2076
g42
I00
sg48
I01
sg49
I01
sg50
g2073
sbsg2069
g0
(g233
g2
Ntp2077
Rp2078
(dp2079
g42
I00
sg48
I01
sg49
I00
sg19
(lp2080
VmLC_P0
p2081
aVmLC_P1
p2082
aVmLC_P2
p2083
aVmTIB_P0
p2084
aVmTIB_P1
p2085
aVmTOB_P0
p2086
aVmTOB_P1
p2087
aVmTID_P0
p2088
aVmTID_P1
p2089
aVmTEC_P0
p2090
aVmTEC_P1
p2091
aVuseLegacyError
p2092
aVmaxChgOneMIP
p2093
asg43
Nsg2081
g0
(g78
g2
Ntp2094
Rp2095
(dp2096
g42
I00
sg48
I01
sg49
I00
sg50
F-0.326
sbsg2082
g0
(g78
g2
Ntp2097
Rp2098
(dp2099
g42
I00
sg48
I01
sg49
I00
sg50
F0.618
sbsg2083
g0
(g78
g2
Ntp2100
Rp2101
(dp2102
g42
I00
sg48
I01
sg49
I00
sg50
F0.3
sbsg2084
g0
(g78
g2
Ntp2103
Rp2104
(dp2105
g42
I00
sg48
I01
sg49
I00
sg50
F-0.742
sbsg2085
g0
(g78
g2
Ntp2106
Rp2107
(dp2108
g42
I00
sg48
I01
sg49
I00
sg50
F0.202
sbsg2086
g0
(g78
g2
Ntp2109
Rp2110
(dp2111
g42
I00
sg48
I01
sg49
I00
sg50
F-1.026
sbsg2087
g0
(g78
g2
Ntp2112
Rp2113
(dp2114
g42
I00
sg48
I01
sg49
I00
sg50
F0.253
sbsg2088
g0
(g78
g2
Ntp2115
Rp2116
(dp2117
g42
I00
sg48
I01
sg49
I00
sg50
F-1.427
sbsg2089
g0
(g78
g2
Ntp2118
Rp2119
(dp2120
g42
I00
sg48
I01
sg49
I00
sg50
F0.433
sbsg2090
g0
(g78
g2
Ntp2121
Rp2122
(dp2123
g42
I00
sg48
I01
sg49
I00
sg50
F-1.885
sbsg2091
g0
(g78
g2
Ntp2124
Rp2125
(dp2126
g42
I00
sg48
I01
sg49
I00
sg50
F0.471
sbsg2092
g0
(g120
g2
Ntp2127
Rp2128
(dp2129
g42
I00
sg48
I01
sg49
I00
sg50
I00
sbsg2093
g0
(g78
g2
Ntp2130
Rp2131
(dp2132
g42
I00
sg48
I01
sg49
I00
sg50
F6000.0
sbsbsg139
V/cvmfs/cms.cern.ch/el9_amd64_gcc12/cms/cmssw/CMSSW_14_1_0_pre7/src/RecoLocalTracker/SiStripRecHitConverter/python/StripCPEfromTrackAngle_cfi.py
p2133
sg141
I4
sg142
g2062
sbsVctppsBeamParametersFromLHCInfoESSource
p2134
g0
(g1552
g2
Ntp2135
Rp2136
(dp2137
g17
VCTPPSBeamParametersFromLHCInfoESSource
p2138
sg19
(lp2139
VlhcInfoLabel
p2140
aVlhcInfoPerLSLabel
p2141
aVlhcInfoPerFillLabel
p2142
aVuseNewLHCInfo
p2143
aVbeamDivX45
p2144
aVbeamDivY45
p2145
aVbeamDivX56
p2146
aVbeamDivY56
p2147
aVvtxOffsetX45
p2148
aVvtxOffsetY45
p2149
aVvtxOffsetZ45
p2150
aVvtxOffsetX56
p2151
aVvtxOffsetY56
p2152
aVvtxOffsetZ56
p2153
aVvtxStddevX
p2154
aVvtxStddevY
p2155
aVvtxStddevZ
p2156
ag646
asg42
I00
sg43
Nsg2140
g0
(g44
g2
Ntp2157
Rp2158
(dp2159
g42
I00
sg48
I01
sg49
I00
sg50
g59
sbsg49
I01
sg2141
g0
(g44
g2
Ntp2160
Rp2161
(dp2162
g42
I00
sg48
I01
sg49
I00
sg50
g59
sbsg2142
g0
(g44
g2
Ntp2163
Rp2164
(dp2165
g42
I00
sg48
I01
sg49
I00
sg50
g59
sbsg2143
g0
(g120
g2
Ntp2166
Rp2167
(dp2168
g42
I00
sg48
I01
sg49
I01
sg50
I01
sbsg2144
g0
(g78
g2
Ntp2169
Rp2170
(dp2171
g42
I00
sg48
I01
sg49
I00
sg50
F0.1
sbsg2145
g0
(g78
g2
Ntp2172
Rp2173
(dp2174
g42
I00
sg48
I01
sg49
I00
sg50
F0.1
sbsg2146
g0
(g78
g2
Ntp2175
Rp2176
(dp2177
g42
I00
sg48
I01
sg49
I00
sg50
F0.1
sbsg2147
g0
(g78
g2
Ntp2178
Rp2179
(dp2180
g42
I00
sg48
I01
sg49
I00
sg50
F0.1
sbsg2148
g0
(g78
g2
Ntp2181
Rp2182
(dp2183
g42
I00
sg48
I01
sg49
I00
sg50
F0.01
sbsg2149
g0
(g78
g2
Ntp2184
Rp2185
(dp2186
g42
I00
sg48
I01
sg49
I00
sg50
F0.01
sbsg2150
g0
(g78
g2
Ntp2187
Rp2188
(dp2189
g42
I00
sg48
I01
sg49
I00
sg50
F0.01
sbsg2151
g0
(g78
g2
Ntp2190
Rp2191
(dp2192
g42
I00
sg48
I01
sg49
I00
sg50
F0.01
sbsg2152
g0
(g78
g2
Ntp2193
Rp2194
(dp2195
g42
I00
sg48
I01
sg49
I00
sg50
F0.01
sbsg2153
g0
(g78
g2
Ntp2196
Rp2197
(dp2198
g42
I00
sg48
I01
sg49
I00
sg50
F0.01
sbsg2154
g0
(g78
g2
Ntp2199
Rp2200
(dp2201
g42
I00
sg48
I01
sg49
I00
sg50
F0.02
sbsg2155
g0
(g78
g2
Ntp2202
Rp2203
(dp2204
g42
I00
sg48
I01
sg49
I00
sg50
F0.02
sbsg2156
g0
(g78
g2
Ntp2205
Rp2206
(dp2207
g42
I00
sg48
I01
sg49
I00
sg50
F0.02
sbsg646
g0
(g44
g2
Ntp2208
Rp2209
(dp2210
g42
I00
sg48
I01
sg49
I00
sg50
g59
sbsg139
V/cvmfs/cms.cern.ch/el9_amd64_gcc12/cms/cmssw/CMSSW_14_1_0_pre7/src/CalibPPS/ESProducers/python/ctppsBeamParametersFromLHCInfoESSource_cfi.py
p2211
sg141
I2
sg142
g2134
sbsVctppsInterpolatedOpticalFunctionsESSource
p2212
g0
(g1552
g2
Ntp2213
Rp2214
(dp2215
g17
VCTPPSInterpolatedOpticalFunctionsESSource
p2216
sg19
(lp2217
g2140
ag2142
ag2141
aVopticsLabel
p2218
ag2143
ag646
asg42
I00
sg43
Nsg2140
g0
(g44
g2
Ntp2219
Rp2220
(dp2221
g42
I00
sg48
I01
sg49
I00
sg50
g59
sbsg49
I01
sg2142
g0
(g44
g2
Ntp2222
Rp2223
(dp2224
g42
I00
sg48
I01
sg49
I00
sg50
g59
sbsg2141
g0
(g44
g2
Ntp2225
Rp2226
(dp2227
g42
I00
sg48
I01
sg49
I00
sg50
g59
sbsg2218
g0
(g44
g2
Ntp2228
Rp2229
(dp2230
g42
I00
sg48
I01
sg49
I00
sg50
g59
sbsg2143
g0
(g120
g2
Ntp2231
Rp2232
(dp2233
g42
I00
sg48
I01
sg49
I01
sg50
I01
sbsg646
g0
(g44
g2
Ntp2234
Rp2235
(dp2236
g42
I00
sg48
I01
sg49
I00
sg50
g59
sbsg139
V/cvmfs/cms.cern.ch/el9_amd64_gcc12/cms/cmssw/CMSSW_14_1_0_pre7/src/CalibPPS/ESProducers/python/ctppsInterpolatedOpticalFunctionsESSource_cfi.py
p2237
sg141
I2
sg142
g2212
sbsVhcal_db_producer
p2238
g0
(g1552
g2
Ntp2239
Rp2240
(dp2241
g17
VHcalDbProducer
p2242
sg19
(lp2243
Vdump
p2244
aVfile
p2245
asg42
I00
sg43
Nsg2244
g0
(g92
g93
(lp2246
g59
atp2247
Rp2248
(dp2249
g42
I00
sg48
I00
sg49
I00
sg103
I1
sbsg49
I00
sg2245
g0
(g44
g2
Ntp2250
Rp2251
(dp2252
g42
I00
sg48
I00
sg49
I00
sg50
g59
sbsg139
g172
sg141
I55
sg142
g2238
sbsVmultipleScatteringParametrisationMakerESProducer
p2253
g0
(g1552
g2
Ntp2254
Rp2255
(dp2256
g17
VMultipleScatteringParametrisationMakerESProducer
p2257
sg19
(lp2258
g646
asg42
I00
sg43
Nsg646
g0
(g44
g2
Ntp2259
Rp2260
(dp2261
g42
I00
sg48
I01
sg49
I00
sg50
g59
sbsg49
I00
sg139
g172
sg141
I55
sg142
g2253
sbsVsiPixelQualityESProducer
p2262
g0
(g1552
g2
Ntp2263
Rp2264
(dp2265
g17
VSiPixelQualityESProducer
p2266
sg19
(lp2267
VsiPixelQualityFromDbLabel
p2268
aVListOfRecordToMerge
p2269
ag646
asg42
I00
sg43
Nsg2268
g0
(g44
g2
Ntp2270
Rp2271
(dp2272
g42
I00
sg48
I01
sg49
I00
sg50
g59
sbsg49
I00
sg2269
g0
(g614
g93
(lp2273
g0
(g233
g2
Ntp2274
Rp2275
(dp2276
g42
I00
sg48
I01
sg49
I00
sg19
(lp2277
Vrecord
p2278
aVtag
p2279
asg43
Nsg2278
g0
(g44
g2
Ntp2280
Rp2281
(dp2282
g42
I00
sg48
I01
sg49
I00
sg50
VSiPixelQualityFromDbRcd
p2283
sbsg2279
g0
(g44
g2
Ntp2284
Rp2285
(dp2286
g42
I00
sg48
I01
sg49
I00
sg50
g59
sbsbag0
(g233
g2
Ntp2287
Rp2288
(dp2289
g42
I00
sg48
I01
sg49
I00
sg19
(lp2290
g2278
ag2279
asg43
Nsg2278
g0
(g44
g2
Ntp2291
Rp2292
(dp2293
g42
I00
sg48
I01
sg49
I00
sg50
VSiPixelDetVOffRcd
p2294
sbsg2279
g0
(g44
g2
Ntp2295
Rp2296
(dp2297
g42
I00
sg48
I01
sg49
I00
sg50
g59
sbsbatp2298
Rp2299
(dp2300
g42
I00
sg48
I01
sg49
I00
sg103
I1
sbsg646
g0
(g44
g2
Ntp2301
Rp2302
(dp2303
g42
I00
sg48
I01
sg49
I00
sg50
g59
sbsg139
g172
sg141
I55
sg142
g2262
sbsVsiStripBackPlaneCorrectionDepESProducer
p2304
g0
(g1552
g2
Ntp2305
Rp2306
(dp2307
g17
VSiStripBackPlaneCorrectionDepESProducer
p2308
sg19
(lp2309
VLatencyRecord
p2310
aVBackPlaneCorrectionPeakMode
p2311
aVBackPlaneCorrectionDeconvMode
p2312
asg42
I00
sg43
Nsg2310
g0
(g233
g2
Ntp2313
Rp2314
(dp2315
g42
I00
sg48
I01
sg49
I00
sg19
(lp2316
g2278
ag1989
asg43
Nsg2278
g0
(g44
g2
Ntp2317
Rp2318
(dp2319
g42
I00
sg48
I01
sg49
I00
sg50
VSiStripLatencyRcd
p2320
sbsg1989
g0
(g44
g2
Ntp2321
Rp2322
(dp2323
g42
I00
sg48
I00
sg49
I00
sg50
g59
sbsbsg49
I00
sg2311
g0
(g233
g2
Ntp2324
Rp2325
(dp2326
g42
I00
sg48
I01
sg49
I00
sg19
(lp2327
g2278
ag1989
asg43
Nsg2278
g0
(g44
g2
Ntp2328
Rp2329
(dp2330
g42
I00
sg48
I01
sg49
I00
sg50
VSiStripBackPlaneCorrectionRcd
p2331
sbsg1989
g0
(g44
g2
Ntp2332
Rp2333
(dp2334
g42
I00
sg48
I00
sg49
I00
sg50
Vpeak
p2335
sbsbsg2312
g0
(g233
g2
Ntp2336
Rp2337
(dp2338
g42
I00
sg48
I01
sg49
I00
sg19
(lp2339
g2278
ag1989
asg43
Nsg2278
g0
(g44
g2
Ntp2340
Rp2341
(dp2342
g42
I00
sg48
I01
sg49
I00
sg50
g2331
sbsg1989
g0
(g44
g2
Ntp2343
Rp2344
(dp2345
g42
I00
sg48
I00
sg49
I00
sg50
Vdeconvolution
p2346
sbsbsg139
g172
sg141
I55
sg142
g2304
sbsVsiStripGainESProducer
p2347
g0
(g1552
g2
Ntp2348
Rp2349
(dp2350
g17
VSiStripGainESProducer
p2351
sg19
(lp2352
g646
aVprintDebug
p2353
aVAutomaticNormalization
p2354
aVAPVGain
p2355
asg42
I00
sg43
Nsg646
g0
(g44
g2
Ntp2356
Rp2357
(dp2358
g42
I00
sg48
I01
sg49
I00
sg50
g59
sbsg49
I00
sg2353
g0
(g120
g2
Ntp2359
Rp2360
(dp2361
g42
I00
sg48
I00
sg49
I00
sg50
I00
sbsg2354
g0
(g120
g2
Ntp2362
Rp2363
(dp2364
g42
I00
sg48
I01
sg49
I00
sg50
I00
sbsg2355
g0
(g614
g93
(lp2365
g0
(g233
g2
Ntp2366
Rp2367
(dp2368
g42
I00
sg48
I01
sg49
I00
sg19
(lp2369
VRecord
p2370
aVLabel
p2371
aVNormalizationFactor
p2372
asg43
Nsg2370
g0
(g44
g2
Ntp2373
Rp2374
(dp2375
g42
I00
sg48
I01
sg49
I00
sg50
VSiStripApvGainRcd
p2376
sbsg2371
g0
(g44
g2
Ntp2377
Rp2378
(dp2379
g42
I00
sg48
I00
sg49
I00
sg50
g59
sbsg2372
g0
(g78
g2
Ntp2380
Rp2381
(dp2382
g42
I00
sg48
I00
sg49
I00
sg50
F1.0
sbsbag0
(g233
g2
Ntp2383
Rp2384
(dp2385
g42
I00
sg48
I01
sg49
I00
sg19
(lp2386
g2370
ag2371
ag2372
asg43
Nsg2370
g0
(g44
g2
Ntp2387
Rp2388
(dp2389
g42
I00
sg48
I01
sg49
I00
sg50
VSiStripApvGain2Rcd
p2390
sbsg2371
g0
(g44
g2
Ntp2391
Rp2392
(dp2393
g42
I00
sg48
I00
sg49
I00
sg50
g59
sbsg2372
g0
(g78
g2
Ntp2394
Rp2395
(dp2396
g42
I00
sg48
I00
sg49
I00
sg50
F1.0
sbsbatp2397
Rp2398
(dp2399
g42
I00
sg48
I01
sg49
I00
sg103
I1
sbsg139
g172
sg141
I55
sg142
g2347
sbsVsiStripLorentzAngleDepESProducer
p2400
g0
(g1552
g2
Ntp2401
Rp2402
(dp2403
g17
VSiStripLorentzAngleDepESProducer
p2404
sg19
(lp2405
g2310
aVLorentzAnglePeakMode
p2406
aVLorentzAngleDeconvMode
p2407
asg42
I00
sg43
Nsg2310
g0
(g233
g2
Ntp2408
Rp2409
(dp2410
g42
I00
sg48
I01
sg49
I00
sg19
(lp2411
g2278
ag1989
asg43
Nsg2278
g0
(g44
g2
Ntp2412
Rp2413
(dp2414
g42
I00
sg48
I01
sg49
I00
sg50
g2320
sbsg1989
g0
(g44
g2
Ntp2415
Rp2416
(dp2417
g42
I00
sg48
I00
sg49
I00
sg50
g59
sbsbsg49
I00
sg2406
g0
(g233
g2
Ntp2418
Rp2419
(dp2420
g42
I00
sg48
I01
sg49
I00
sg19
(lp2421
g2278
ag1989
asg43
Nsg2278
g0
(g44
g2
Ntp2422
Rp2423
(dp2424
g42
I00
sg48
I01
sg49
I00
sg50
VSiStripLorentzAngleRcd
p2425
sbsg1989
g0
(g44
g2
Ntp2426
Rp2427
(dp2428
g42
I00
sg48
I00
sg49
I00
sg50
g2335
sbsbsg2407
g0
(g233
g2
Ntp2429
Rp2430
(dp2431
g42
I00
sg48
I01
sg49
I00
sg19
(lp2432
g2278
ag1989
asg43
Nsg2278
g0
(g44
g2
Ntp2433
Rp2434
(dp2435
g42
I00
sg48
I01
sg49
I00
sg50
g2425
sbsg1989
g0
(g44
g2
Ntp2436
Rp2437
(dp2438
g42
I00
sg48
I00
sg49
I00
sg50
g2346
sbsbsg139
g172
sg141
I55
sg142
g2400
sbsVsiStripQualityESProducer
p2439
g0
(g1552
g2
Ntp2440
Rp2441
(dp2442
g17
VSiStripQualityESProducer
p2443
sg19
(lp2444
g646
ag2269
aVReduceGranularity
p2445
aVThresholdForReducedGranularity
p2446
aVPrintDebugOutput
p2447
aVUseEmptyRunInfo
p2448
asg42
I00
sg43
Nsg646
g0
(g44
g2
Ntp2449
Rp2450
(dp2451
g42
I00
sg48
I01
sg49
I00
sg50
g59
sbsg49
I01
sg2269
g0
(g614
g93
(lp2452
g0
(g233
g2
Ntp2453
Rp2454
(dp2455
g42
I00
sg48
I01
sg49
I00
sg19
(lp2456
g2278
ag2279
asg43
Nsg2278
g0
(g44
g2
Ntp2457
Rp2458
(dp2459
g42
I00
sg48
I01
sg49
I00
sg50
VSiStripDetVOffRcd
p2460
sbsg2279
g0
(g44
g2
Ntp2461
Rp2462
(dp2463
g42
I00
sg48
I01
sg49
I00
sg50
g59
sbsbag0
(g233
g2
Ntp2464
Rp2465
(dp2466
g42
I00
sg48
I01
sg49
I00
sg19
(lp2467
g2278
ag2279
asg43
Nsg2278
g0
(g44
g2
Ntp2468
Rp2469
(dp2470
g42
I00
sg48
I01
sg49
I00
sg50
VSiStripDetCablingRcd
p2471
sbsg2279
g0
(g44
g2
Ntp2472
Rp2473
(dp2474
g42
I00
sg48
I01
sg49
I00
sg50
g59
sbsbag0
(g233
g2
Ntp2475
Rp2476
(dp2477
g42
I00
sg48
I01
sg49
I00
sg19
(lp2478
g2278
ag2279
asg43
Nsg2278
g0
(g44
g2
Ntp2479
Rp2480
(dp2481
g42
I00
sg48
I01
sg49
I00
sg50
VRunInfoRcd
p2482
sbsg2279
g0
(g44
g2
Ntp2483
Rp2484
(dp2485
g42
I00
sg48
I01
sg49
I00
sg50
g59
sbsbag0
(g233
g2
Ntp2486
Rp2487
(dp2488
g42
I00
sg48
I01
sg49
I00
sg19
(lp2489
g2278
ag2279
asg43
Nsg2278
g0
(g44
g2
Ntp2490
Rp2491
(dp2492
g42
I00
sg48
I01
sg49
I00
sg50
VSiStripBadChannelRcd
p2493
sbsg2279
g0
(g44
g2
Ntp2494
Rp2495
(dp2496
g42
I00
sg48
I01
sg49
I00
sg50
g59
sbsbag0
(g233
g2
Ntp2497
Rp2498
(dp2499
g42
I00
sg48
I01
sg49
I00
sg19
(lp2500
g2278
ag2279
asg43
Nsg2278
g0
(g44
g2
Ntp2501
Rp2502
(dp2503
g42
I00
sg48
I01
sg49
I00
sg50
VSiStripBadFiberRcd
p2504
sbsg2279
g0
(g44
g2
Ntp2505
Rp2506
(dp2507
g42
I00
sg48
I01
sg49
I00
sg50
g59
sbsbag0
(g233
g2
Ntp2508
Rp2509
(dp2510
g42
I00
sg48
I01
sg49
I00
sg19
(lp2511
g2278
ag2279
asg43
Nsg2278
g0
(g44
g2
Ntp2512
Rp2513
(dp2514
g42
I00
sg48
I01
sg49
I00
sg50
VSiStripBadModuleRcd
p2515
sbsg2279
g0
(g44
g2
Ntp2516
Rp2517
(dp2518
g42
I00
sg48
I01
sg49
I00
sg50
g59
sbsbag0
(g233
g2
Ntp2519
Rp2520
(dp2521
g42
I00
sg48
I01
sg49
I00
sg19
(lp2522
g2278
ag2279
asg43
Nsg2278
g0
(g44
g2
Ntp2523
Rp2524
(dp2525
g42
I00
sg48
I01
sg49
I00
sg50
VSiStripBadStripRcd
p2526
sbsg2279
g0
(g44
g2
Ntp2527
Rp2528
(dp2529
g42
I00
sg48
I01
sg49
I00
sg50
g59
sbsbatp2530
Rp2531
(dp2532
g42
I00
sg48
I01
sg49
I00
sg103
I1
sbsg2445
g0
(g120
g2
Ntp2533
Rp2534
(dp2535
g42
I00
sg48
I01
sg49
I00
sg50
I00
sbsg2446
g0
(g78
g2
Ntp2536
Rp2537
(dp2538
g42
I00
sg48
I01
sg49
I00
sg50
F0.3
sbsg2447
g0
(g120
g2
Ntp2539
Rp2540
(dp2541
g42
I00
sg48
I01
sg49
I00
sg50
I00
sbsg2448
g0
(g120
g2
Ntp2542
Rp2543
(dp2544
g42
I00
sg48
I01
sg49
I00
sg50
I00
sbsg139
g172
sg141
I55
sg142
g2439
sbsVsistripconn
p2545
g0
(g1552
g2
Ntp2546
Rp2547
(dp2548
g17
VSiStripConnectivity
p2549
sg19
(lp2550
sg42
I00
sg43
Nsg49
I00
sg139
g172
sg141
I55
sg142
g2545
sbsVstripCPEESProducer
p2551
g0
(g1552
g2
Ntp2552
Rp2553
(dp2554
g17
g2066
sg19
(lp2555
g2049
ag2068
ag2069
asg42
I00
sg43
Nsg2049
g0
(g44
g2
Ntp2556
Rp2557
(dp2558
g42
I00
sg48
I01
sg49
I00
sg50
VstripCPE
p2559
sbsg49
I00
sg2068
g0
(g44
g2
Ntp2560
Rp2561
(dp2562
g42
I00
sg48
I01
sg49
I00
sg50
VSimpleStripCPE
p2563
sbsg2069
g0
(g233
g2
Ntp2564
Rp2565
(dp2566
g42
I00
sg48
I01
sg49
I00
sg19
(lp2567
sg43
Nsbsg139
g172
sg141
I55
sg142
g2551
sbssV_Process__esprefers
p2568
(dp2569
Ves_prefer_hcalHardcode
p2570
g0
(cFWCore.ParameterSet.Modules
ESPrefer
p2571
g2
Ntp2572
Rp2573
(dp2574
g17
g815
sg19
(lp2575
sg42
I00
sg43
Nsg49
I00
sg139
g172
sg141
I91
sV_targetLabel
p2576
g811
sg142
g2570
sbssV_Process__aliases
p2577
(dp2578
sV_Process__psets
p2579
(dp2580
Voptions
p2581
g0
(g233
g2
Ntp2582
Rp2583
(dp2584
g42
I00
sg48
I00
sg49
I00
sg19
(lp2585
VnumberOfThreads
p2586
aVnumberOfStreams
p2587
aVnumberOfConcurrentRuns
p2588
aVnumberOfConcurrentLuminosityBlocks
p2589
aVeventSetup
p2590
aVaccelerators
p2591
aVwantSummary
p2592
aVfileMode
p2593
aVforceEventSetupCacheClearOnNewRun
p2594
aVthrowIfIllegalParameter
p2595
aVprintDependencies
p2596
aVdeleteNonConsumedUnscheduledModules
p2597
aVsizeOfStackForThreadsInKB
p2598
aVRethrow
p2599
aVTryToContinue
p2600
aVIgnoreCompletely
p2601
aVmodulesToCallForTryToContinue
p2602
aVcanDeleteEarly
p2603
aVholdsReferencesToDeleteEarly
p2604
aVmodulesToIgnoreForDeleteEarly
p2605
aVdumpOptions
p2606
aVallowUnscheduled
p2607
aVemptyRunLumiMode
p2608
aVmakeTriggerResults
p2609
asg43
Nsg2586
g0
(g2032
g2
Ntp2610
Rp2611
(dp2612
g42
I00
sg48
I00
sg49
I00
sg50
I1
sbsg2587
g0
(g2032
g2
Ntp2613
Rp2614
(dp2615
g42
I00
sg48
I00
sg49
I00
sg50
I0
sbsg2588
g0
(g2032
g2
Ntp2616
Rp2617
(dp2618
g42
I00
sg48
I00
sg49
I00
sg50
I1
sbsg2589
g0
(g2032
g2
Ntp2619
Rp2620
(dp2621
g42
I00
sg48
I00
sg49
I00
sg50
I0
sbsg2590
g0
(g233
g2
Ntp2622
Rp2623
(dp2624
g42
I00
sg48
I00
sg49
I00
sg19
(lp2625
VnumberOfConcurrentIOVs
p2626
aVforceNumberOfConcurrentIOVs
p2627
asg43
Nsg2626
g0
(g2032
g2
Ntp2628
Rp2629
(dp2630
g42
I00
sg48
I00
sg49
I00
sg50
I0
sbsg2627
g0
(g233
g2
Ntp2631
Rp2632
(dp2633
g42
I00
sg48
I00
sg49
I00
sg19
(lp2634
sg43
g0
(cFWCore.ParameterSet.Types
_RequiredParameter
p2635
g2
Ntp2636
Rp2637
(dp2638
g42
I00
sg48
I00
sg49
I00
sg137
g2032
sg138
Nsbsbsbsg2591
g0
(g92
g93
(lp2639
V*
p2640
atp2641
Rp2642
(dp2643
g42
I00
sg48
I00
sg49
I00
sg103
I1
sbsg2592
g0
(g120
g2
Ntp2644
Rp2645
(dp2646
g42
I00
sg48
I00
sg49
I00
sg50
I00
sbsg2593
g0
(g44
g2
Ntp2647
Rp2648
(dp2649
g42
I00
sg48
I00
sg49
I00
sg50
VFULLMERGE
p2650
sbsg2594
g0
(g120
g2
Ntp2651
Rp2652
(dp2653
g42
I00
sg48
I00
sg49
I00
sg50
I00
sbsg2595
g0
(g120
g2
Ntp2654
Rp2655
(dp2656
g42
I00
sg48
I00
sg49
I00
sg50
I01
sbsg2596
g0
(g120
g2
Ntp2657
Rp2658
(dp2659
g42
I00
sg48
I00
sg49
I00
sg50
I00
sbsg2597
g0
(g120
g2
Ntp2660
Rp2661
(dp2662
g42
I00
sg48
I00
sg49
I00
sg50
I01
sbsg2598
g0
(g133
g2
Ntp2663
Rp2664
(dp2665
g42
I00
sg48
I00
sg49
I00
sg137
g2032
sg138
Nsbsg2599
g0
(g92
g93
(lp2666
tp2667
Rp2668
(dp2669
g42
I00
sg48
I00
sg49
I00
sg103
I1
sbsg2600
g0
(g92
g93
(lp2670
tp2671
Rp2672
(dp2673
g42
I00
sg48
I00
sg49
I00
sg103
I1
sbsg2601
g0
(g92
g93
(lp2674
tp2675
Rp2676
(dp2677
g42
I00
sg48
I00
sg49
I00
sg103
I1
sbsg2602
g0
(g92
g93
(lp2678
tp2679
Rp2680
(dp2681
g42
I00
sg48
I00
sg49
I00
sg103
I1
sbsg2603
g0
(g92
g93
(lp2682
tp2683
Rp2684
(dp2685
g42
I00
sg48
I00
sg49
I00
sg103
I1
sbsg2604
g0
(g614
g93
(lp2686
tp2687
Rp2688
(dp2689
g42
I00
sg48
I00
sg49
I00
sg103
I1
sbsg2605
g0
(g92
g93
(lp2690
tp2691
Rp2692
(dp2693
g42
I00
sg48
I00
sg49
I00
sg103
I1
sbsg2606
g0
(g120
g2
Ntp2694
Rp2695
(dp2696
g42
I00
sg48
I00
sg49
I00
sg50
I00
sbsg2607
g0
(cFWCore.ParameterSet.Types
_ObsoleteParameter
p2697
g2
Ntp2698
Rp2699
(dp2700
g42
I00
sg48
I00
sg49
I00
sg137
g120
sg138
Nsbsg2608
g0
(g2697
g2
Ntp2701
Rp2702
(dp2703
g42
I00
sg48
I00
sg49
I00
sg137
g44
sg138
Nsbsg2609
g0
(g2697
g2
Ntp2704
Rp2705
(dp2706
g42
I00
sg48
I00
sg49
I00
sg137
g120
sg138
Nsbsg142
g2581
sbsVmaxLuminosityBlocks
p2707
g0
(g233
g2
Ntp2708
Rp2709
(dp2710
g42
I00
sg48
I00
sg49
I00
sg19
(lp2711
Vinput
p2712
asg43
Nsg2712
g0
(g320
g2
Ntp2713
Rp2714
(dp2715
g42
I00
sg48
I00
sg49
I00
sg50
I-1
sbsg142
g2707
sbsVCondDB
p2716
g0
(g233
g2
Ntp2717
Rp2718
(dp2719
g42
I00
sg48
I01
sg49
I00
sg19
(lp2720
g567
ag568
asg43
Nsg567
g0
(g233
g2
Ntp2721
Rp2722
(dp2723
g42
I00
sg48
I01
sg49
I00
sg19
(lp2724
g583
ag584
ag585
ag586
ag587
asg43
Nsg583
g0
(g44
g2
Ntp2725
Rp2726
(dp2727
g42
I00
sg48
I00
sg49
I00
sg50
g59
sbsg584
g0
(g320
g2
Ntp2728
Rp2729
(dp2730
g42
I00
sg48
I00
sg49
I00
sg50
I0
sbsg585
g0
(g44
g2
Ntp2731
Rp2732
(dp2733
g42
I00
sg48
I00
sg49
I00
sg50
g59
sbsg586
g0
(g320
g2
Ntp2734
Rp2735
(dp2736
g42
I00
sg48
I00
sg49
I00
sg50
I0
sbsg587
g0
(g320
g2
Ntp2737
Rp2738
(dp2739
g42
I00
sg48
I00
sg49
I00
sg50
I0
sbsbsg568
g0
(g44
g2
Ntp2740
Rp2741
(dp2742
g42
I00
sg48
I01
sg49
I00
sg50
g59
sbsg142
g2716
sbsg825
g877
sVmaxEvents
p2743
g0
(g233
g2
Ntp2744
Rp2745
(dp2746
g42
I00
sg48
I00
sg49
I01
sg19
(lp2747
g2712
ag504
asg43
Nsg2712
g0
(g133
g2
Ntp2748
Rp2749
(dp2750
g42
I00
sg48
I00
sg49
I00
sg137
g320
sg138
g0
(g320
g2
Ntp2751
Rp2752
(dp2753
g42
I00
sg48
I00
sg49
I00
sg50
I-1
sbsbsg504
g0
(g133
g2
Ntp2754
Rp2755
(dp2756
g42
I00
sg48
I00
sg49
I00
sg137
g0
(cFWCore.ParameterSet.Types
_AllowedParameterTypes
p2757
g2
Ntp2758
Rp2759
(dp2760
V_AllowedParameterTypes__types
p2761
(g320
g233
tp2762
sV_default
p2763
NsV__name__
p2764
Vallowed(cms.int32,cms.PSet)
p2765
sbsg138
Nsbsg142
g2743
sbsVNANOAODEventContent
p2766
g0
(g233
g2
Ntp2767
Rp2768
(dp2769
g42
I00
sg48
I01
sg49
I00
sg19
(lp2770
g215
aVcompressionLevel
p2771
aVcompressionAlgorithm
p2772
asg43
Nsg215
g231
sg2771
g0
(g320
g2
Ntp2773
Rp2774
(dp2775
g42
I00
sg48
I00
sg49
I00
sg50
I9
sbsg2772
g0
(g44
g2
Ntp2776
Rp2777
(dp2778
g42
I00
sg48
I00
sg49
I00
sg50
VLZMA
p2779
sbsg142
g2766
sbsVNANOAODSIMEventContent
p2780
g0
(g233
g2
Ntp2781
Rp2782
(dp2783
g42
I00
sg48
I01
sg49
I00
sg19
(lp2784
g215
ag2771
ag2772
asg43
Nsg215
g0
(g92
g93
(lp2785
g222
ag223
ag224
ag225
ag226
ag227
atp2786
Rp2787
(dp2788
g42
I00
sg48
I00
sg49
I00
sg103
I1
sbsg2771
g0
(g320
g2
Ntp2789
Rp2790
(dp2791
g42
I00
sg48
I00
sg49
I00
sg50
I9
sbsg2772
g0
(g44
g2
Ntp2792
Rp2793
(dp2794
g42
I00
sg48
I00
sg49
I00
sg50
g2779
sbsg142
g2780
sbsVNanoAODEDMEventContent
p2795
g0
(g233
g2
Ntp2796
Rp2797
(dp2798
g42
I00
sg48
I01
sg49
I00
sg19
(lp2799
g215
asg43
Nsg215
g0
(g92
g93
(lp2800
g222
ag223
ag224
ag225
ag226
ag227
atp2801
Rp2802
(dp2803
g42
I00
sg48
I00
sg49
I00
sg103
I1
sbsg142
g2795
sbssV_Process__vpsets
p2804
(dp2805
sV_cloneToObjectDict
p2806
(dp2807
L140597500766480L
g2583
sL140597502437408L
g0
(g233
g2
Ntp2808
Rp2809
(dp2810
g42
I00
sg48
I00
sg49
I00
sg19
(lp2811
g2712
ag504
asg43
Nsg2712
g0
(g133
g2
Ntp2812
Rp2813
(dp2814
g42
I00
sg48
I00
sg49
I00
sg137
g320
sg138
Nsbsg504
g0
(g133
g2
Ntp2815
Rp2816
(dp2817
g42
I00
sg48
I00
sg49
I00
sg137
g0
(g2757
g2
Ntp2818
Rp2819
(dp2820
g2761
(g320
g233
tp2821
sg2763
Nsg2764
Vallowed(cms.int32,cms.PSet)
p2822
sbsg138
Nsbsg142
NsbsL140597502438848L
g2709
sL140597502423584L
g1554
sL140597498319824L
g1598
sL140597502183504L
g1614
sL140597498320496L
g1619
sL140597498364592L
g1627
sL140597498365840L
g1635
sL140597512041952L
g1643
sL140597498321216L
g1680
sL140597498319536L
g1688
sL140597498320640L
g1693
sL140597498320928L
g1701
sL140597513506096L
g1709
sL140597500693136L
g1719
sL140597498321984L
g1724
sL140597498320208L
g1729
sL140597513506528L
g1737
sL140597502423200L
g1742
sL140597509255328L
g1753
sL140597502582352L
g1762
sL140597498365552L
g1771
sL140597498366416L
g541
sL140597497898032L
g1779
sL140597498367280L
g1790
sL140597498367088L
g1799
sL140597498364112L
g1808
sL140597498367712L
g1825
sL140597498366656L
g1862
sL140597498366704L
g1892
sL140597502182976L
g1911
sL140597500693232L
g1923
sL140597512041424L
g1940
sL140597513506480L
g1955
sL140597497939232L
g1964
sL140597497941728L
g1984
sL140597497940624L
g2004
sL140597498019312L
g2020
sL140597516032416L
g2718
sL140597498327488L
g2028
sL140597498327728L
g2038
sL140597513848624L
g563
sL140597498019264L
g877
sL140597498018352L
g643
sL140597497658336L
g2046
sL140597497657472L
g2064
sL140597497694288L
g2136
sL140597497695056L
g2214
sL140597498088464L
g813
sL140597498088704L
g2573
sL140597498328640L
g2240
sL140597497692608L
g2255
sL140597497672464L
g2264
sL140597497674672L
g0
(g1552
g2
Ntp2823
Rp2824
(dp2825
g17
g2266
sg19
(lp2826
g2268
ag2269
ag646
asg42
I00
sg43
Nsg2268
g0
(g44
g2
Ntp2827
Rp2828
(dp2829
g42
I00
sg48
I01
sg49
I01
sg50
VforRawToDigi
p2830
sbsg49
I00
sg2269
g0
(g614
g93
(lp2831
g0
(g233
g2
Ntp2832
Rp2833
(dp2834
g42
I00
sg48
I01
sg49
I00
sg19
(lp2835
g2278
ag2279
asg43
Nsg2278
g0
(g44
g2
Ntp2836
Rp2837
(dp2838
g42
I00
sg48
I01
sg49
I00
sg50
g2283
sbsg2279
g0
(g44
g2
Ntp2839
Rp2840
(dp2841
g42
I00
sg48
I01
sg49
I00
sg50
g59
sbsbag0
(g233
g2
Ntp2842
Rp2843
(dp2844
g42
I00
sg48
I01
sg49
I00
sg19
(lp2845
g2278
ag2279
asg43
Nsg2278
g0
(g44
g2
Ntp2846
Rp2847
(dp2848
g42
I00
sg48
I01
sg49
I00
sg50
g2294
sbsg2279
g0
(g44
g2
Ntp2849
Rp2850
(dp2851
g42
I00
sg48
I01
sg49
I00
sg50
g59
sbsbatp2852
Rp2853
(dp2854
g42
I00
sg48
I01
sg49
I00
sg103
I1
sbsg646
g0
(g44
g2
Ntp2855
Rp2856
(dp2857
g42
I00
sg48
I01
sg49
I01
sg50
g2830
sbsg139
V/cvmfs/cms.cern.ch/el9_amd64_gcc12/cms/cmssw/CMSSW_14_1_0_pre7/src/CalibTracker/SiPixelESProducers/python/siPixelQualityForRawToDigiESProducer_cfi.py
p2858
sg141
I5
sg142
NsbsL140597498138192L
g2306
sL140597498136512L
g2349
sL140597498137280L
g2402
sL140597497673088L
g2441
sL140597498089424L
g2547
sL140597497656416L
g2553
sL140597497769168L
g15
sL140597497769216L
g2745
sL140597511893200L
g181
sL140597497799104L
g2768
sL140597497799008L
g2782
sL140597497799248L
g2797
sL140597497798768L
g210
sL140597497798816L
g202
ssV_Process__InExtendCall
p2859
I00
sV_Process__partialschedules
p2860
(dp2861
sV_Process__isStrict
p2862
I00
sV_Process__modifiers
p2863
(g0
(cFWCore.ParameterSet.Config
ModifierChain
p2864
g2
Ntp2865
Rp2866
(dp2867
V_ModifierChain__chosen
p2868
I01
sV_ModifierChain__chain
p2869
(g0
(g2864
g2
Ntp2870
Rp2871
(dp2872
g2868
I01
sg2869
(g0
(g2864
g2
Ntp2873
Rp2874
(dp2875
g2868
I01
sg2869
(g0
(g2864
g2
Ntp2876
Rp2877
(dp2878
g2868
I01
sg2869
(g0
(cFWCore.ParameterSet.Config
Modifier
p2879
g2
Ntp2880
Rp2881
(dp2882
V_Modifier__processModifiers
p2883
(lp2884
sV_Modifier__chosen
p2885
I01
sbg0
(g2879
g2
Ntp2886
Rp2887
(dp2888
g2883
(lp2889
sg2885
I01
sbg0
(g2879
g2
Ntp2890
Rp2891
(dp2892
g2883
(lp2893
sg2885
I01
sbg0
(g2879
g2
Ntp2894
Rp2895
(dp2896
g2883
(lp2897
sg2885
I01
sbg0
(g2879
g2
Ntp2898
Rp2899
(dp2900
g2883
(lp2901
sg2885
I01
sbtp2902
sbg0
(g2879
g2
Ntp2903
Rp2904
(dp2905
g2883
(lp2906
sg2885
I01
sbg0
(g2879
g2
Ntp2907
Rp2908
(dp2909
g2883
(lp2910
sg2885
I01
sbg0
(g2879
g2
Ntp2911
Rp2912
(dp2913
g2883
(lp2914
sg2885
I01
sbg0
(g2879
g2
Ntp2915
Rp2916
(dp2917
g2883
(lp2918
sg2885
I01
sbg0
(g2879
g2
Ntp2919
Rp2920
(dp2921
g2883
(lp2922
sg2885
I01
sbg0
(g2879
g2
Ntp2923
Rp2924
(dp2925
g2883
(lp2926
sg2885
I01
sbg0
(g2879
g2
Ntp2927
Rp2928
(dp2929
g2883
(lp2930
sg2885
I01
sbg0
(g2864
g2
Ntp2931
Rp2932
(dp2933
g2868
I01
sg2869
(g0
(g2879
g2
Ntp2934
Rp2935
(dp2936
g2883
(lp2937
sg2885
I01
sbg0
(g2879
g2
Ntp2938
Rp2939
(dp2940
g2883
(lp2941
sg2885
I01
sbg0
(g2879
g2
Ntp2942
Rp2943
(dp2944
g2883
(lp2945
sg2885
I01
sbg0
(g2879
g2
Ntp2946
Rp2947
(dp2948
g2883
(lp2949
sg2885
I01
sbg0
(g2879
g2
Ntp2950
Rp2951
(dp2952
g2883
(lp2953
sg2885
I01
sbg0
(g2879
g2
Ntp2954
Rp2955
(dp2956
g2883
(lp2957
sg2885
I01
sbg0
(g2879
g2
Ntp2958
Rp2959
(dp2960
g2883
(lp2961
sg2885
I01
sbtp2962
sbg0
(g2879
g2
Ntp2963
Rp2964
(dp2965
g2883
(lp2966
sg2885
I01
sbg0
(g2879
g2
Ntp2967
Rp2968
(dp2969
g2883
(lp2970
sg2885
I01
sbg0
(g2879
g2
Ntp2971
Rp2972
(dp2973
g2883
(lp2974
sg2885
I01
sbg0
(g2879
g2
Ntp2975
Rp2976
(dp2977
g2883
(lp2978
sg2885
I01
sbtp2979
sbg0
(g2879
g2
Ntp2980
Rp2981
(dp2982
g2883
(lp2983
sg2885
I01
sbg0
(g2879
g2
Ntp2984
Rp2985
(dp2986
g2883
(lp2987
sg2885
I01
sbg0
(g2879
g2
Ntp2988
Rp2989
(dp2990
g2883
(lp2991
sg2885
I01
sbg0
(g2879
g2
Ntp2992
Rp2993
(dp2994
g2883
(lp2995
sg2885
I01
sbg0
(g2879
g2
Ntp2996
Rp2997
(dp2998
g2883
(lp2999
sg2885
I01
sbg0
(g2879
g2
Ntp3000
Rp3001
(dp3002
g2883
(lp3003
sg2885
I01
sbg0
(g2879
g2
Ntp3004
Rp3005
(dp3006
g2883
(lp3007
sg2885
I01
sbg0
(g2879
g2
Ntp3008
Rp3009
(dp3010
g2883
(lp3011
sg2885
I01
sbtp3012
sbg0
(g2879
g2
Ntp3013
Rp3014
(dp3015
g2883
(lp3016
sg2885
I01
sbg0
(g2879
g2
Ntp3017
Rp3018
(dp3019
g2883
(lp3020
sg2885
I01
sbg0
(g2879
g2
Ntp3021
Rp3022
(dp3023
g2883
(lp3024
sg2885
I01
sbg0
(g2879
g2
Ntp3025
Rp3026
(dp3027
g2883
(lp3028
sg2885
I01
sbg0
(g2879
g2
Ntp3029
Rp3030
(dp3031
g2883
(lp3032
sg2885
I01
sbg0
(g2879
g2
Ntp3033
Rp3034
(dp3035
g2883
(lp3036
sg2885
I01
sbg0
(g2879
g2
Ntp3037
Rp3038
(dp3039
g2883
(lp3040
sg2885
I01
sbg0
(g2879
g2
Ntp3041
Rp3042
(dp3043
g2883
(lp3044
sg2885
I01
sbg0
(g2879
g2
Ntp3045
Rp3046
(dp3047
g2883
(lp3048
sg2885
I01
sbg0
(g2879
g2
Ntp3049
Rp3050
(dp3051
g2883
(lp3052
sg2885
I01
sbg0
(g2879
g2
Ntp3053
Rp3054
(dp3055
g2883
(lp3056
sg2885
I01
sbg0
(g2879
g2
Ntp3057
Rp3058
(dp3059
g2883
(lp3060
sg2885
I01
sbtp3061
sbtp3062
sV_Process__accelerators
p3063
(dp3064
sg2581
g2583
sg2707
g2709
sg290
g293
sg1551
g1554
sg1596
g1598
sg1612
g1614
sg1617
g1619
sg1625
g1627
sg1633
g1635
sg1641
g1643
sg1678
g1680
sg1686
g1688
sg1691
g1693
sg1699
g1701
sg1707
g1709
sg1717
g1719
sg1722
g1724
sg1727
g1729
sg1735
g1737
sg1740
g1742
sg1751
g1753
sg1760
g1762
sg1769
g1771
sg538
g541
sg1777
g1779
sg1788
g1790
sg1797
g1799
sg1806
g1808
sg1823
g1825
sg1860
g1862
sg1890
g1892
sg1909
g1911
sg1921
g1923
sg1938
g1940
sg1953
g1955
sg1962
g1964
sg1982
g1984
sg2002
g2004
sg2018
g2020
sg2716
g2718
sg2026
g2028
sg2036
g2038
sg561
g563
sg825
g877
sg641
g643
sg2044
g2046
sg2062
g2064
sg2134
g2136
sg2212
g2214
sg811
g813
sg2570
g2573
sg2238
g2240
sg2253
g2255
sg2262
g2264
sg2304
g2306
sg2347
g2349
sg2400
g2402
sg2439
g2441
sg2545
g2547
sg2551
g2553
sg12
g15
sg2743
g2745
sVsource
p3065
g148
sg150
g148
sg199
g181
sg2766
g2768
sg2780
g2782
sg2795
g2797
sg243
g210
sg195
g202
sVschedule
p3066
g250
sb.