(dp0
VServer
p1
Vcmsweb.cern.ch
p2
sVPort
p3
V
p4
sVRequestName
p5
V240430_101230:joshin_crab_muRPCTnPFlatTableProducer_cfg__Muon1__Run2023D-PromptReco-v2__240430-191145
p6
sVvoRole
p7
VNULL
p8
sVvoGroup
p9
g4
sVinstance
p10
Vprod
p11
sVOriginalConfig
p12
ccopy_reg
_reconstructor
p13
(cWMCore.Configuration
Configuration
p14
c__builtin__
object
p15
Ntp16
Rp17
(dp18
V_internal_sections
p19
(lp20
VGeneral
p21
aVJobType
p22
aVData
p23
aVSite
p24
aVUser
p25
aVDebug
p26
asg21
g13
(cWMCore.Configuration
ConfigSection
p27
g15
Ntp28
Rp29
(dp30
V_internal_documentation
p31
g4
sV_internal_name
p32
g21
sV_internal_settings
p33
c__builtin__
set
p34
((lp35
VrequestName
p36
aVtransferOutputs
p37
aVtransferLogs
p38
atp39
Rp40
sV_internal_docstrings
p41
(dp42
sV_internal_children
p43
g34
((lp44
tp45
Rp46
sV_internal_parent_ref
p47
NsV_internal_skipChecks
p48
I00
sg38
I00
sg37
I01
sg36
VmuRPCTnPFlatTableProducer_cfg__Muon1__Run2023D-PromptReco-v2__240430-191145
p49
sbsg22
g13
(g27
g15
Ntp50
Rp51
(dp52
g31
g4
sg32
g22
sg33
g34
((lp53
VpsetName
p54
aVnumCores
p55
aVpluginName
p56
atp57
Rp58
sg41
(dp59
sg43
g34
((lp60
tp61
Rp62
sg47
Nsg48
I00
sg56
VAnalysis
p63
sg54
V/u/user/sjws5411/Workspace/Efficiency/CMSSW_14_1_0_pre2/src/RPCDPGAnalysis/NanoAODTnP/test/muRPCTnPFlatTableProducer_cfg.py
p64
sg55
I8
sbsg23
g13
(g27
g15
Ntp65
Rp66
(dp67
g31
g4
sg32
g23
sg33
g34
((lp68
VunitsPerJob
p69
aVpublication
p70
aVinputDataset
p71
aVoutLFNDirBase
p72
aVallowNonValidInputDataset
p73
aVoutputDatasetTag
p74
aVsplitting
p75
atp76
Rp77
sg41
(dp78
sg43
g34
((lp79
tp80
Rp81
sg47
Nsg48
I00
sg70
I00
sg73
I01
sg75
VFileBased
p82
sg69
I30
sg71
V/Muon1/Run2023D-PromptReco-v2/AOD
p83
sg72
V/store/user/joshin/RPC/TnP-NanoAOD/240430-191145
p84
sg74
VmuRPCTnPFlatTableProducer_cfg__Muon1__Run2023D-PromptReco-v2
p85
sbsg24
g13
(g27
g15
Ntp86
Rp87
(dp88
g31
g4
sg32
g24
sg33
g34
((lp89
VstorageSite
p90
atp91
Rp92
sg41
(dp93
sg43
g34
((lp94
tp95
Rp96
sg47
Nsg48
I00
sg90
VT3_KR_KNU
p97
sbsg25
g13
(g27
g15
Ntp98
Rp99
(dp100
g31
g4
sg32
g25
sg33
g34
((lp101
tp102
Rp103
sg41
(dp104
sg43
g34
((lp105
tp106
Rp107
sg47
Nsg48
I00
sbsg26
g13
(g27
g15
Ntp108
Rp109
(dp110
g31
g4
sg32
g26
sg33
g34
((lp111
tp112
Rp113
sg41
(dp114
sg43
g34
((lp115
tp116
Rp117
sg47
Nsg48
I00
sbsbs.